---
triple:          'arm64-apple-darwin'
binary-path:     '/Users/kendallboesch/Desktop/CS3341-FoundationsOfModernComputing/Lab-1/lab-1-multithreading-kendallboesch/Code/JobSystem'
relocations:
  - { offsetInCU: 0x32EC, offset: 0x32EC, size: 0x8, addend: 0x0, symName: __ZNSt3__124__put_character_sequenceB7v160006IcNS_11char_traitsIcEEEERNS_13basic_ostreamIT_T0_EES7_PKS4_m, symObjAddr: 0xAAC, symBinAddr: 0x100003FC4, symSize: 0x1EC }
  - { offsetInCU: 0x4C6D, offset: 0x4C6D, size: 0x8, addend: 0x0, symName: __ZNSt3__1lsB7v160006INS_11char_traitsIcEEEERNS_13basic_ostreamIcT_EES6_PKc, symObjAddr: 0x360, symBinAddr: 0x100003878, symSize: 0x48 }
  - { offsetInCU: 0x4CB3, offset: 0x4CB3, size: 0x8, addend: 0x0, symName: __ZNSt3__14endlB7v160006IcNS_11char_traitsIcEEEERNS_13basic_ostreamIT_T0_EES7_, symObjAddr: 0x3D4, symBinAddr: 0x1000038EC, symSize: 0x58 }
  - { offsetInCU: 0x4FBC, offset: 0x4FBC, size: 0x8, addend: 0x0, symName: __ZNSt3__1lsB7v160006IcNS_11char_traitsIcEENS_9allocatorIcEEEERNS_13basic_ostreamIT_T0_EES9_RKNS_12basic_stringIS6_S7_T1_EE, symObjAddr: 0x46C, symBinAddr: 0x100003984, symSize: 0x4C }
  - { offsetInCU: 0x5014, offset: 0x5014, size: 0x8, addend: 0x0, symName: __ZNSt3__119__debug_db_insert_cB7v160006INS_12basic_stringIcNS_11char_traitsIcEENS_9allocatorIcEEEEEEvPT_, symObjAddr: 0x74C, symBinAddr: 0x100003C64, symSize: 0x10 }
  - { offsetInCU: 0x5045, offset: 0x5045, size: 0x8, addend: 0x0, symName: __ZNSt3__112__to_addressB7v160006IKcEEPT_S3_, symObjAddr: 0x8B8, symBinAddr: 0x100003DD0, symSize: 0x14 }
  - { offsetInCU: 0x50AD, offset: 0x50AD, size: 0x8, addend: 0x0, symName: __ZNSt3__118__constexpr_strlenB7v160006EPKc, symObjAddr: 0xA88, symBinAddr: 0x100003FA0, symSize: 0x24 }
  - { offsetInCU: 0x50D9, offset: 0x50D9, size: 0x8, addend: 0x0, symName: __ZNSt3__116__pad_and_outputB7v160006IcNS_11char_traitsIcEEEENS_19ostreambuf_iteratorIT_T0_EES6_PKS4_S8_S8_RNS_8ios_baseES4_, symObjAddr: 0xCB4, symBinAddr: 0x1000041CC, symSize: 0x240 }
  - { offsetInCU: 0x51A8, offset: 0x51A8, size: 0x8, addend: 0x0, symName: __ZNSt3__112__to_addressB7v160006IcEEPT_S2_, symObjAddr: 0x112C, symBinAddr: 0x100004644, symSize: 0x14 }
  - { offsetInCU: 0x5210, offset: 0x5210, size: 0x8, addend: 0x0, symName: __ZNSt3__19use_facetB7v160006INS_5ctypeIcEEEERKT_RKNS_6localeE, symObjAddr: 0x133C, symBinAddr: 0x100004854, symSize: 0x2C }
  - { offsetInCU: 0x7DC7, offset: 0x7DC7, size: 0x8, addend: 0x0, symName: __ZN10CompileJob7executeEv, symObjAddr: 0x0, symBinAddr: 0x100003518, symSize: 0x308 }
  - { offsetInCU: 0x7E2F, offset: 0x7E2F, size: 0x8, addend: 0x0, symName: __ZNSt3__112basic_stringIcNS_11char_traitsIcEENS_9allocatorIcEEEC1B7v160006IDnEEPKc, symObjAddr: 0x308, symBinAddr: 0x100003820, symSize: 0x34 }
  - { offsetInCU: 0x7E6B, offset: 0x7E6B, size: 0x8, addend: 0x0, symName: __ZNKSt3__112basic_stringIcNS_11char_traitsIcEENS_9allocatorIcEEE5c_strB7v160006Ev, symObjAddr: 0x33C, symBinAddr: 0x100003854, symSize: 0x24 }
  - { offsetInCU: 0x7E8F, offset: 0x7E8F, size: 0x8, addend: 0x0, symName: __ZNSt3__113basic_ostreamIcNS_11char_traitsIcEEElsB7v160006EPFRS3_S4_E, symObjAddr: 0x3A8, symBinAddr: 0x1000038C0, symSize: 0x2C }
  - { offsetInCU: 0x7EC1, offset: 0x7EC1, size: 0x8, addend: 0x0, symName: __ZNSt3__112basic_stringIcNS_11char_traitsIcEENS_9allocatorIcEEEC1B7v160006Ev, symObjAddr: 0x42C, symBinAddr: 0x100003944, symSize: 0x2C }
  - { offsetInCU: 0x7F21, offset: 0x7F21, size: 0x8, addend: 0x0, symName: __ZNSt3__15arrayIcLm128EE4dataB7v160006Ev, symObjAddr: 0x458, symBinAddr: 0x100003970, symSize: 0x14 }
  - { offsetInCU: 0x7F45, offset: 0x7F45, size: 0x8, addend: 0x0, symName: __ZNK3Job11getUniqueIDEv, symObjAddr: 0x4B8, symBinAddr: 0x1000039D0, symSize: 0x18 }
  - { offsetInCU: 0x7F69, offset: 0x7F69, size: 0x8, addend: 0x0, symName: __ZN10CompileJob19jobCompleteCallbackEv, symObjAddr: 0x4D0, symBinAddr: 0x1000039E8, symSize: 0xCC }
  - { offsetInCU: 0x7F8F, offset: 0x7F8F, size: 0x8, addend: 0x0, symName: __ZN10CompileJobD1Ev, symObjAddr: 0x59C, symBinAddr: 0x100003AB4, symSize: 0x2C }
  - { offsetInCU: 0x7FB7, offset: 0x7FB7, size: 0x8, addend: 0x0, symName: __ZN10CompileJobD0Ev, symObjAddr: 0x5C8, symBinAddr: 0x100003AE0, symSize: 0x30 }
  - { offsetInCU: 0x7FDF, offset: 0x7FDF, size: 0x8, addend: 0x0, symName: __ZN10CompileJobD2Ev, symObjAddr: 0x5F8, symBinAddr: 0x100003B10, symSize: 0x48 }
  - { offsetInCU: 0x8007, offset: 0x8007, size: 0x8, addend: 0x0, symName: __ZN3JobD2Ev, symObjAddr: 0x640, symBinAddr: 0x100003B58, symSize: 0x40 }
  - { offsetInCU: 0x802F, offset: 0x802F, size: 0x8, addend: 0x0, symName: __ZN3JobD1Ev, symObjAddr: 0x680, symBinAddr: 0x100003B98, symSize: 0x14 }
  - { offsetInCU: 0x8057, offset: 0x8057, size: 0x8, addend: 0x0, symName: __ZN3JobD0Ev, symObjAddr: 0x694, symBinAddr: 0x100003BAC, symSize: 0xC }
  - { offsetInCU: 0x807F, offset: 0x807F, size: 0x8, addend: 0x0, symName: __ZN3Job19jobCompleteCallbackEv, symObjAddr: 0x6A0, symBinAddr: 0x100003BB8, symSize: 0x10 }
  - { offsetInCU: 0x80A3, offset: 0x80A3, size: 0x8, addend: 0x0, symName: __ZNSt3__112basic_stringIcNS_11char_traitsIcEENS_9allocatorIcEEEC2B7v160006Ev, symObjAddr: 0x6B0, symBinAddr: 0x100003BC8, symSize: 0x54 }
  - { offsetInCU: 0x80D0, offset: 0x80D0, size: 0x8, addend: 0x0, symName: __ZNSt3__117__compressed_pairINS_12basic_stringIcNS_11char_traitsIcEENS_9allocatorIcEEE5__repES5_EC1B7v160006INS_18__default_init_tagESA_EEOT_OT0_, symObjAddr: 0x704, symBinAddr: 0x100003C1C, symSize: 0x3C }
  - { offsetInCU: 0x8126, offset: 0x8126, size: 0x8, addend: 0x0, symName: __ZNSt3__112basic_stringIcNS_11char_traitsIcEENS_9allocatorIcEEE14__default_initB7v160006Ev, symObjAddr: 0x75C, symBinAddr: 0x100003C74, symSize: 0x40 }
  - { offsetInCU: 0x814A, offset: 0x814A, size: 0x8, addend: 0x0, symName: __ZNSt3__117__compressed_pairINS_12basic_stringIcNS_11char_traitsIcEENS_9allocatorIcEEE5__repES5_EC2B7v160006INS_18__default_init_tagESA_EEOT_OT0_, symObjAddr: 0x79C, symBinAddr: 0x100003CB4, symSize: 0x3C }
  - { offsetInCU: 0x81A0, offset: 0x81A0, size: 0x8, addend: 0x0, symName: __ZNSt3__122__compressed_pair_elemINS_12basic_stringIcNS_11char_traitsIcEENS_9allocatorIcEEE5__repELi0ELb0EEC2B7v160006ENS_18__default_init_tagE, symObjAddr: 0x7D8, symBinAddr: 0x100003CF0, symSize: 0x14 }
  - { offsetInCU: 0x81D2, offset: 0x81D2, size: 0x8, addend: 0x0, symName: __ZNSt3__122__compressed_pair_elemINS_9allocatorIcEELi1ELb1EEC2B7v160006ENS_18__default_init_tagE, symObjAddr: 0x7EC, symBinAddr: 0x100003D04, symSize: 0x2C }
  - { offsetInCU: 0x8204, offset: 0x8204, size: 0x8, addend: 0x0, symName: __ZNSt3__19allocatorIcEC2B7v160006Ev, symObjAddr: 0x818, symBinAddr: 0x100003D30, symSize: 0x2C }
  - { offsetInCU: 0x822C, offset: 0x822C, size: 0x8, addend: 0x0, symName: __ZNSt3__116__non_trivial_ifILb1ENS_9allocatorIcEEEC2B7v160006Ev, symObjAddr: 0x844, symBinAddr: 0x100003D5C, symSize: 0x14 }
  - { offsetInCU: 0x8254, offset: 0x8254, size: 0x8, addend: 0x0, symName: __ZNSt3__117__compressed_pairINS_12basic_stringIcNS_11char_traitsIcEENS_9allocatorIcEEE5__repES5_E5firstB7v160006Ev, symObjAddr: 0x858, symBinAddr: 0x100003D70, symSize: 0x24 }
  - { offsetInCU: 0x8278, offset: 0x8278, size: 0x8, addend: 0x0, symName: __ZNSt3__122__compressed_pair_elemINS_12basic_stringIcNS_11char_traitsIcEENS_9allocatorIcEEE5__repELi0ELb0EE5__getB7v160006Ev, symObjAddr: 0x87C, symBinAddr: 0x100003D94, symSize: 0x14 }
  - { offsetInCU: 0x829C, offset: 0x829C, size: 0x8, addend: 0x0, symName: __ZNKSt3__112basic_stringIcNS_11char_traitsIcEENS_9allocatorIcEEE4dataB7v160006Ev, symObjAddr: 0x890, symBinAddr: 0x100003DA8, symSize: 0x28 }
  - { offsetInCU: 0x82C0, offset: 0x82C0, size: 0x8, addend: 0x0, symName: __ZNKSt3__112basic_stringIcNS_11char_traitsIcEENS_9allocatorIcEEE13__get_pointerB7v160006Ev, symObjAddr: 0x8CC, symBinAddr: 0x100003DE4, symSize: 0x54 }
  - { offsetInCU: 0x82E4, offset: 0x82E4, size: 0x8, addend: 0x0, symName: __ZNKSt3__112basic_stringIcNS_11char_traitsIcEENS_9allocatorIcEEE9__is_longB7v160006Ev, symObjAddr: 0x920, symBinAddr: 0x100003E38, symSize: 0x38 }
  - { offsetInCU: 0x8308, offset: 0x8308, size: 0x8, addend: 0x0, symName: __ZNKSt3__112basic_stringIcNS_11char_traitsIcEENS_9allocatorIcEEE18__get_long_pointerB7v160006Ev, symObjAddr: 0x958, symBinAddr: 0x100003E70, symSize: 0x28 }
  - { offsetInCU: 0x832C, offset: 0x832C, size: 0x8, addend: 0x0, symName: __ZNKSt3__112basic_stringIcNS_11char_traitsIcEENS_9allocatorIcEEE19__get_short_pointerB7v160006Ev, symObjAddr: 0x980, symBinAddr: 0x100003E98, symSize: 0x28 }
  - { offsetInCU: 0x8350, offset: 0x8350, size: 0x8, addend: 0x0, symName: __ZNKSt3__117__compressed_pairINS_12basic_stringIcNS_11char_traitsIcEENS_9allocatorIcEEE5__repES5_E5firstB7v160006Ev, symObjAddr: 0x9A8, symBinAddr: 0x100003EC0, symSize: 0x24 }
  - { offsetInCU: 0x8374, offset: 0x8374, size: 0x8, addend: 0x0, symName: __ZNKSt3__122__compressed_pair_elemINS_12basic_stringIcNS_11char_traitsIcEENS_9allocatorIcEEE5__repELi0ELb0EE5__getB7v160006Ev, symObjAddr: 0x9CC, symBinAddr: 0x100003EE4, symSize: 0x14 }
  - { offsetInCU: 0x8398, offset: 0x8398, size: 0x8, addend: 0x0, symName: __ZNSt3__114pointer_traitsIPKcE10pointer_toB7v160006ERS1_, symObjAddr: 0x9E0, symBinAddr: 0x100003EF8, symSize: 0x14 }
  - { offsetInCU: 0x83BA, offset: 0x83BA, size: 0x8, addend: 0x0, symName: __ZNSt3__112basic_stringIcNS_11char_traitsIcEENS_9allocatorIcEEEC2B7v160006IDnEEPKc, symObjAddr: 0x9F4, symBinAddr: 0x100003F0C, symSize: 0x60 }
  - { offsetInCU: 0x83F6, offset: 0x83F6, size: 0x8, addend: 0x0, symName: __ZNSt3__111char_traitsIcE6lengthEPKc, symObjAddr: 0xA54, symBinAddr: 0x100003F6C, symSize: 0x34 }
  - { offsetInCU: 0x8436, offset: 0x8436, size: 0x8, addend: 0x0, symName: __ZNKSt3__113basic_ostreamIcNS_11char_traitsIcEEE6sentrycvbB7v160006Ev, symObjAddr: 0xC98, symBinAddr: 0x1000041B0, symSize: 0x1C }
  - { offsetInCU: 0x845A, offset: 0x845A, size: 0x8, addend: 0x0, symName: __ZNSt3__119ostreambuf_iteratorIcNS_11char_traitsIcEEEC1B7v160006ERNS_13basic_ostreamIcS2_EE, symObjAddr: 0xEF4, symBinAddr: 0x10000440C, symSize: 0x34 }
  - { offsetInCU: 0x8490, offset: 0x8490, size: 0x8, addend: 0x0, symName: __ZNKSt3__18ios_base5flagsB7v160006Ev, symObjAddr: 0xF28, symBinAddr: 0x100004440, symSize: 0x18 }
  - { offsetInCU: 0x84B6, offset: 0x84B6, size: 0x8, addend: 0x0, symName: __ZNKSt3__19basic_iosIcNS_11char_traitsIcEEE4fillB7v160006Ev, symObjAddr: 0xF40, symBinAddr: 0x100004458, symSize: 0x64 }
  - { offsetInCU: 0x84DC, offset: 0x84DC, size: 0x8, addend: 0x0, symName: __ZNKSt3__119ostreambuf_iteratorIcNS_11char_traitsIcEEE6failedB7v160006Ev, symObjAddr: 0xFA4, symBinAddr: 0x1000044BC, symSize: 0x24 }
  - { offsetInCU: 0x8500, offset: 0x8500, size: 0x8, addend: 0x0, symName: __ZNSt3__19basic_iosIcNS_11char_traitsIcEEE8setstateB7v160006Ej, symObjAddr: 0xFC8, symBinAddr: 0x1000044E0, symSize: 0x2C }
  - { offsetInCU: 0x8533, offset: 0x8533, size: 0x8, addend: 0x0, symName: __ZNKSt3__18ios_base5widthB7v160006Ev, symObjAddr: 0xFF4, symBinAddr: 0x10000450C, symSize: 0x18 }
  - { offsetInCU: 0x8559, offset: 0x8559, size: 0x8, addend: 0x0, symName: __ZNSt3__115basic_streambufIcNS_11char_traitsIcEEE5sputnB7v160006EPKcl, symObjAddr: 0x100C, symBinAddr: 0x100004524, symSize: 0x3C }
  - { offsetInCU: 0x8599, offset: 0x8599, size: 0x8, addend: 0x0, symName: __ZNSt3__112basic_stringIcNS_11char_traitsIcEENS_9allocatorIcEEEC1B7v160006Emc, symObjAddr: 0x1048, symBinAddr: 0x100004560, symSize: 0x3C }
  - { offsetInCU: 0x85DF, offset: 0x85DF, size: 0x8, addend: 0x0, symName: __ZNSt3__112basic_stringIcNS_11char_traitsIcEENS_9allocatorIcEEE4dataB7v160006Ev, symObjAddr: 0x1084, symBinAddr: 0x10000459C, symSize: 0x28 }
  - { offsetInCU: 0x8603, offset: 0x8603, size: 0x8, addend: 0x0, symName: __ZNSt3__18ios_base5widthB7v160006El, symObjAddr: 0x10AC, symBinAddr: 0x1000045C4, symSize: 0x2C }
  - { offsetInCU: 0x8647, offset: 0x8647, size: 0x8, addend: 0x0, symName: __ZNSt3__112basic_stringIcNS_11char_traitsIcEENS_9allocatorIcEEEC2B7v160006Emc, symObjAddr: 0x10D8, symBinAddr: 0x1000045F0, symSize: 0x54 }
  - { offsetInCU: 0x868D, offset: 0x868D, size: 0x8, addend: 0x0, symName: __ZNSt3__112basic_stringIcNS_11char_traitsIcEENS_9allocatorIcEEE13__get_pointerB7v160006Ev, symObjAddr: 0x1140, symBinAddr: 0x100004658, symSize: 0x54 }
  - { offsetInCU: 0x86B1, offset: 0x86B1, size: 0x8, addend: 0x0, symName: __ZNSt3__112basic_stringIcNS_11char_traitsIcEENS_9allocatorIcEEE18__get_long_pointerB7v160006Ev, symObjAddr: 0x1194, symBinAddr: 0x1000046AC, symSize: 0x28 }
  - { offsetInCU: 0x86D5, offset: 0x86D5, size: 0x8, addend: 0x0, symName: __ZNSt3__112basic_stringIcNS_11char_traitsIcEENS_9allocatorIcEEE19__get_short_pointerB7v160006Ev, symObjAddr: 0x11BC, symBinAddr: 0x1000046D4, symSize: 0x28 }
  - { offsetInCU: 0x86F9, offset: 0x86F9, size: 0x8, addend: 0x0, symName: __ZNSt3__114pointer_traitsIPcE10pointer_toB7v160006ERc, symObjAddr: 0x11E4, symBinAddr: 0x1000046FC, symSize: 0x14 }
  - { offsetInCU: 0x871B, offset: 0x871B, size: 0x8, addend: 0x0, symName: __ZNSt3__119ostreambuf_iteratorIcNS_11char_traitsIcEEEC2B7v160006ERNS_13basic_ostreamIcS2_EE, symObjAddr: 0x11F8, symBinAddr: 0x100004710, symSize: 0x54 }
  - { offsetInCU: 0x8751, offset: 0x8751, size: 0x8, addend: 0x0, symName: __ZNKSt3__19basic_iosIcNS_11char_traitsIcEEE5rdbufB7v160006Ev, symObjAddr: 0x124C, symBinAddr: 0x100004764, symSize: 0x24 }
  - { offsetInCU: 0x8777, offset: 0x8777, size: 0x8, addend: 0x0, symName: __ZNKSt3__18ios_base5rdbufB7v160006Ev, symObjAddr: 0x1270, symBinAddr: 0x100004788, symSize: 0x18 }
  - { offsetInCU: 0x879B, offset: 0x879B, size: 0x8, addend: 0x0, symName: __ZNSt3__111char_traitsIcE11eq_int_typeEii, symObjAddr: 0x1288, symBinAddr: 0x1000047A0, symSize: 0x28 }
  - { offsetInCU: 0x87CC, offset: 0x87CC, size: 0x8, addend: 0x0, symName: __ZNSt3__111char_traitsIcE3eofEv, symObjAddr: 0x12B0, symBinAddr: 0x1000047C8, symSize: 0x8 }
  - { offsetInCU: 0x87DE, offset: 0x87DE, size: 0x8, addend: 0x0, symName: __ZNKSt3__19basic_iosIcNS_11char_traitsIcEEE5widenB7v160006Ec, symObjAddr: 0x12B8, symBinAddr: 0x1000047D0, symSize: 0x84 }
  - { offsetInCU: 0x884A, offset: 0x884A, size: 0x8, addend: 0x0, symName: __ZNKSt3__15ctypeIcE5widenB7v160006Ec, symObjAddr: 0x1368, symBinAddr: 0x100004880, symSize: 0x38 }
  - { offsetInCU: 0x887D, offset: 0x887D, size: 0x8, addend: 0x0, symName: __ZNSt3__18ios_base8setstateB7v160006Ej, symObjAddr: 0x13A0, symBinAddr: 0x1000048B8, symSize: 0x34 }
  - { offsetInCU: 0x88B2, offset: 0x88B2, size: 0x8, addend: 0x0, symName: __ZNKSt3__112basic_stringIcNS_11char_traitsIcEENS_9allocatorIcEEE4sizeB7v160006Ev, symObjAddr: 0x13D4, symBinAddr: 0x1000048EC, symSize: 0x54 }
  - { offsetInCU: 0x88D6, offset: 0x88D6, size: 0x8, addend: 0x0, symName: __ZNKSt3__112basic_stringIcNS_11char_traitsIcEENS_9allocatorIcEEE15__get_long_sizeB7v160006Ev, symObjAddr: 0x1428, symBinAddr: 0x100004940, symSize: 0x28 }
  - { offsetInCU: 0x88FA, offset: 0x88FA, size: 0x8, addend: 0x0, symName: __ZNKSt3__112basic_stringIcNS_11char_traitsIcEENS_9allocatorIcEEE16__get_short_sizeB7v160006Ev, symObjAddr: 0x1450, symBinAddr: 0x100004968, symSize: 0x34 }
  - { offsetInCU: 0x39, offset: 0x89BB, size: 0x8, addend: 0x0, symName: __ZN9JobSystem11s_jobSystemE, symObjAddr: 0x7EFC8, symBinAddr: 0x100044008, symSize: 0x0 }
  - { offsetInCU: 0x7EE0, offset: 0x10862, size: 0x8, addend: 0x0, symName: __ZNSt3__17advanceB7v160006INS_16__deque_iteratorIP3JobPS3_RS3_PS4_lLl512EEEllvEEvRT_T0_, symObjAddr: 0xBFA0, symBinAddr: 0x10000FC10, symSize: 0x50 }
  - { offsetInCU: 0x8C7E, offset: 0x11600, size: 0x8, addend: 0x0, symName: __ZNSt3__1neB7v160006IPP15JobWorkerThreadEEbRKNS_11__wrap_iterIT_EES8_, symObjAddr: 0x990, symBinAddr: 0x100005320, symSize: 0x34 }
  - { offsetInCU: 0x8CE0, offset: 0x11662, size: 0x8, addend: 0x0, symName: __ZNSt3__1neB7v160006ERKNS_16__deque_iteratorIP3JobPS2_RS2_PS3_lLl512EEES8_, symObjAddr: 0x118C, symBinAddr: 0x100005B1C, symSize: 0x34 }
  - { offsetInCU: 0x8D1D, offset: 0x1169F, size: 0x8, addend: 0x0, symName: __ZNSt3__1neB7v160006IcNS_11char_traitsIcEENS_9allocatorIcEEEEbRKNS_12basic_stringIT_T0_T1_EEPKS6_, symObjAddr: 0x18C8, symBinAddr: 0x10000618C, symSize: 0x34 }
  - { offsetInCU: 0xC3E5, offset: 0x14D67, size: 0x8, addend: 0x0, symName: __ZNSt3__1eqB7v160006IcNS_11char_traitsIcEENS_9allocatorIcEEEEbRKNS_12basic_stringIT_T0_T1_EEPKS6_, symObjAddr: 0x1C80, symBinAddr: 0x100006510, symSize: 0xAC }
  - { offsetInCU: 0xC44C, offset: 0x14DCE, size: 0x8, addend: 0x0, symName: __ZNSt3__1eqB7v160006IPP15JobWorkerThreadEEbRKNS_11__wrap_iterIT_EES8_, symObjAddr: 0x2034, symBinAddr: 0x1000068C4, symSize: 0x48 }
  - { offsetInCU: 0xC48F, offset: 0x14E11, size: 0x8, addend: 0x0, symName: __ZNSt3__119__debug_db_insert_cB7v160006INS_13unordered_mapINS_12basic_stringIcNS_11char_traitsIcEENS_9allocatorIcEEEENS_6vectorI5ErrorNS5_IS9_EEEENS_4hashIS7_EENS_8equal_toIS7_EENS5_INS_4pairIKS7_SB_EEEEEEEEvPT_, symObjAddr: 0x22D4, symBinAddr: 0x100006B08, symSize: 0x10 }
  - { offsetInCU: 0xC4C0, offset: 0x14E42, size: 0x8, addend: 0x0, symName: __ZNSt3__119__debug_db_insert_cB7v160006INS_6vectorIP15JobWorkerThreadNS_9allocatorIS3_EEEEEEvPT_, symObjAddr: 0x2B40, symBinAddr: 0x1000071A0, symSize: 0x10 }
  - { offsetInCU: 0xC4F1, offset: 0x14E73, size: 0x8, addend: 0x0, symName: __ZNSt3__119__debug_db_insert_cB7v160006INS_6vectorI15JobHistoryEntryNS_9allocatorIS2_EEEEEEvPT_, symObjAddr: 0x2F64, symBinAddr: 0x1000075C4, symSize: 0x10 }
  - { offsetInCU: 0xC522, offset: 0x14EA4, size: 0x8, addend: 0x0, symName: __ZNSt3__118__debug_db_erase_cB7v160006INS_6vectorIP15JobWorkerThreadNS_9allocatorIS3_EEEEEEvPT_, symObjAddr: 0x3228, symBinAddr: 0x100007888, symSize: 0x10 }
  - { offsetInCU: 0xC553, offset: 0x14ED5, size: 0x8, addend: 0x0, symName: __ZNSt3__112__to_addressB7v160006IP15JobWorkerThreadEEPT_S4_, symObjAddr: 0x3344, symBinAddr: 0x1000079A4, symSize: 0x14 }
  - { offsetInCU: 0xC588, offset: 0x14F0A, size: 0x8, addend: 0x0, symName: __ZNSt3__119__libcpp_deallocateB7v160006EPvmm, symObjAddr: 0x3464, symBinAddr: 0x100007AC4, symSize: 0x60 }
  - { offsetInCU: 0xC5EF, offset: 0x14F71, size: 0x8, addend: 0x0, symName: __ZNSt3__124__is_overaligned_for_newB7v160006Em, symObjAddr: 0x34C4, symBinAddr: 0x100007B24, symSize: 0x20 }
  - { offsetInCU: 0xC61E, offset: 0x14FA0, size: 0x8, addend: 0x0, symName: __ZNSt3__127__do_deallocate_handle_sizeB7v160006IJSt11align_val_tEEEvPvmDpT_, symObjAddr: 0x34E4, symBinAddr: 0x100007B44, symSize: 0x30 }
  - { offsetInCU: 0xC673, offset: 0x14FF5, size: 0x8, addend: 0x0, symName: __ZNSt3__127__do_deallocate_handle_sizeB7v160006IJEEEvPvmDpT_, symObjAddr: 0x3514, symBinAddr: 0x100007B74, symSize: 0x28 }
  - { offsetInCU: 0xC6B3, offset: 0x15035, size: 0x8, addend: 0x0, symName: __ZNSt3__124__libcpp_operator_deleteB7v160006IJPvSt11align_val_tEEEvDpT_, symObjAddr: 0x353C, symBinAddr: 0x100007B9C, symSize: 0x2C }
  - { offsetInCU: 0xC6FE, offset: 0x15080, size: 0x8, addend: 0x0, symName: __ZNSt3__124__libcpp_operator_deleteB7v160006IJPvEEEvDpT_, symObjAddr: 0x3568, symBinAddr: 0x100007BC8, symSize: 0x24 }
  - { offsetInCU: 0xC735, offset: 0x150B7, size: 0x8, addend: 0x0, symName: __ZNSt3__112__to_addressB7v160006IPP3JobEEPT_S5_, symObjAddr: 0x3CF0, symBinAddr: 0x100008350, symSize: 0x14 }
  - { offsetInCU: 0xC76A, offset: 0x150EC, size: 0x8, addend: 0x0, symName: __ZNSt3__118__debug_db_erase_cB7v160006INS_6vectorI15JobHistoryEntryNS_9allocatorIS2_EEEEEEvPT_, symObjAddr: 0x3FDC, symBinAddr: 0x10000863C, symSize: 0x10 }
  - { offsetInCU: 0xC79B, offset: 0x1511D, size: 0x8, addend: 0x0, symName: __ZNSt3__112__to_addressB7v160006I15JobHistoryEntryEEPT_S3_, symObjAddr: 0x40F8, symBinAddr: 0x100008758, symSize: 0x14 }
  - { offsetInCU: 0xC7D0, offset: 0x15152, size: 0x8, addend: 0x0, symName: __ZNSt3__13minB7v160006ImEERKT_S3_S3_, symObjAddr: 0x44B4, symBinAddr: 0x100008B14, symSize: 0x2C }
  - { offsetInCU: 0xC9FD, offset: 0x1537F, size: 0x8, addend: 0x0, symName: __ZNSt3__13minB7v160006ImNS_6__lessImmEEEERKT_S5_S5_T0_, symObjAddr: 0x4540, symBinAddr: 0x100008BA0, symSize: 0x54 }
  - { offsetInCU: 0xCA92, offset: 0x15414, size: 0x8, addend: 0x0, symName: __ZNSt3__120__throw_length_errorB7v160006EPKc, symObjAddr: 0x461C, symBinAddr: 0x100008C7C, symSize: 0x64 }
  - { offsetInCU: 0xCABB, offset: 0x1543D, size: 0x8, addend: 0x0, symName: __ZNSt3__119__allocate_at_leastB7v160006INS_9allocatorI15JobHistoryEntryEEEENS_19__allocation_resultINS_16allocator_traitsIT_E7pointerEEERS6_m, symObjAddr: 0x4810, symBinAddr: 0x100008E70, symSize: 0x40 }
  - { offsetInCU: 0xCAFE, offset: 0x15480, size: 0x8, addend: 0x0, symName: __ZNSt3__117__libcpp_allocateB7v160006Emm, symObjAddr: 0x4994, symBinAddr: 0x100008FF4, symSize: 0x60 }
  - { offsetInCU: 0xCB59, offset: 0x154DB, size: 0x8, addend: 0x0, symName: __ZNSt3__121__libcpp_operator_newB7v160006IJmSt11align_val_tEEEPvDpT_, symObjAddr: 0x49F4, symBinAddr: 0x100009054, symSize: 0x2C }
  - { offsetInCU: 0xCBA7, offset: 0x15529, size: 0x8, addend: 0x0, symName: __ZNSt3__121__libcpp_operator_newB7v160006IJmEEEPvDpT_, symObjAddr: 0x4A20, symBinAddr: 0x100009080, symSize: 0x24 }
  - { offsetInCU: 0xCBE1, offset: 0x15563, size: 0x8, addend: 0x0, symName: __ZNSt3__142__uninitialized_allocator_move_if_noexceptB7v160006INS_9allocatorI15JobHistoryEntryEENS_16reverse_iteratorIPS2_EES6_S2_vEET1_RT_T0_SA_S7_, symObjAddr: 0x4ABC, symBinAddr: 0x10000911C, symSize: 0x78 }
  - { offsetInCU: 0xCC60, offset: 0x155E2, size: 0x8, addend: 0x0, symName: __ZNSt3__14swapB7v160006IP15JobHistoryEntryEENS_9enable_ifIXaasr21is_move_constructibleIT_EE5valuesr18is_move_assignableIS4_EE5valueEvE4typeERS4_S7_, symObjAddr: 0x4B80, symBinAddr: 0x1000091E0, symSize: 0x3C }
  - { offsetInCU: 0xCCB1, offset: 0x15633, size: 0x8, addend: 0x0, symName: __ZNSt3__125__debug_db_invalidate_allB7v160006INS_6vectorI15JobHistoryEntryNS_9allocatorIS2_EEEEEEvPT_, symObjAddr: 0x4C90, symBinAddr: 0x1000092F0, symSize: 0x10 }
  - { offsetInCU: 0xCCE2, offset: 0x15664, size: 0x8, addend: 0x0, symName: __ZNSt3__14moveB7v160006INS_16reverse_iteratorIP15JobHistoryEntryEES4_EET0_T_S6_S5_, symObjAddr: 0x4CA0, symBinAddr: 0x100009300, symSize: 0x78 }
  - { offsetInCU: 0xCD3C, offset: 0x156BE, size: 0x8, addend: 0x0, symName: __ZNSt3__16__moveB7v160006INS_17_ClassicAlgPolicyENS_16reverse_iteratorIP15JobHistoryEntryEES5_S5_EENS_4pairIT0_T2_EES7_T1_S8_, symObjAddr: 0x4D18, symBinAddr: 0x100009378, symSize: 0x64 }
  - { offsetInCU: 0xCDA8, offset: 0x1572A, size: 0x8, addend: 0x0, symName: __ZNSt3__123__dispatch_copy_or_moveB7v160006INS_17_ClassicAlgPolicyENS_11__move_loopIS1_EENS_14__move_trivialENS_16reverse_iteratorIP15JobHistoryEntryEES8_S8_EENS_4pairIT2_T4_EESA_T3_SB_, symObjAddr: 0x4D7C, symBinAddr: 0x1000093DC, symSize: 0x64 }
  - { offsetInCU: 0xCE26, offset: 0x157A8, size: 0x8, addend: 0x0, symName: __ZNSt3__121__unwrap_and_dispatchB7v160006INS_10__overloadINS_11__move_loopINS_17_ClassicAlgPolicyEEENS_14__move_trivialEEENS_16reverse_iteratorIP15JobHistoryEntryEESA_SA_Li0EEENS_4pairIT0_T2_EESC_T1_SD_, symObjAddr: 0x4DE0, symBinAddr: 0x100009440, symSize: 0x12C }
  - { offsetInCU: 0xCEB7, offset: 0x15839, size: 0x8, addend: 0x0, symName: __ZNSt3__114__unwrap_rangeB7v160006INS_16reverse_iteratorIP15JobHistoryEntryEES4_EENS_4pairIT0_S6_EET_S8_, symObjAddr: 0x4F0C, symBinAddr: 0x10000956C, symSize: 0x84 }
  - { offsetInCU: 0xD0EC, offset: 0x15A6E, size: 0x8, addend: 0x0, symName: __ZNSt3__113__unwrap_iterB7v160006INS_16reverse_iteratorIP15JobHistoryEntryEENS_18__unwrap_iter_implIS4_Lb0EEELi0EEEDTclsrT0_8__unwrapclsr3stdE7declvalIT_EEEES8_, symObjAddr: 0x5030, symBinAddr: 0x100009690, symSize: 0x44 }
  - { offsetInCU: 0xD131, offset: 0x15AB3, size: 0x8, addend: 0x0, symName: __ZNSt3__19make_pairB7v160006INS_16reverse_iteratorIP15JobHistoryEntryEES4_EENS_4pairINS_18__unwrap_ref_decayIT_E4typeENS6_IT0_E4typeEEEOS7_OSA_, symObjAddr: 0x5074, symBinAddr: 0x1000096D4, symSize: 0x38 }
  - { offsetInCU: 0xD180, offset: 0x15B02, size: 0x8, addend: 0x0, symName: __ZNSt3__114__rewrap_rangeB7v160006INS_16reverse_iteratorIP15JobHistoryEntryEES4_EET_S5_T0_, symObjAddr: 0x50AC, symBinAddr: 0x10000970C, symSize: 0x5C }
  - { offsetInCU: 0xD1CC, offset: 0x15B4E, size: 0x8, addend: 0x0, symName: __ZNSt3__113__rewrap_iterB7v160006INS_16reverse_iteratorIP15JobHistoryEntryEES4_NS_18__unwrap_iter_implIS4_Lb0EEEEET_S7_T0_, symObjAddr: 0x5108, symBinAddr: 0x100009768, symSize: 0x74 }
  - { offsetInCU: 0xD221, offset: 0x15BA3, size: 0x8, addend: 0x0, symName: __ZNSt3__1neB7v160006IP15JobHistoryEntryS2_EEbRKNS_16reverse_iteratorIT_EERKNS3_IT0_EE, symObjAddr: 0x517C, symBinAddr: 0x1000097DC, symSize: 0x48 }
  - { offsetInCU: 0xD354, offset: 0x15CD6, size: 0x8, addend: 0x0, symName: __ZNSt3__13maxB7v160006ImEERKT_S3_S3_, symObjAddr: 0x5C00, symBinAddr: 0x10000A260, symSize: 0x2C }
  - { offsetInCU: 0xD397, offset: 0x15D19, size: 0x8, addend: 0x0, symName: __ZNSt3__13maxB7v160006ImNS_6__lessImmEEEERKT_S5_S5_T0_, symObjAddr: 0x5CC4, symBinAddr: 0x10000A324, symSize: 0x54 }
  - { offsetInCU: 0xD3F1, offset: 0x15D73, size: 0x8, addend: 0x0, symName: __ZNSt3__119__allocate_at_leastB7v160006INS_9allocatorIP15JobWorkerThreadEEEENS_19__allocation_resultINS_16allocator_traitsIT_E7pointerEEERS7_m, symObjAddr: 0x5E28, symBinAddr: 0x10000A488, symSize: 0x40 }
  - { offsetInCU: 0xD434, offset: 0x15DB6, size: 0x8, addend: 0x0, symName: __ZNSt3__142__uninitialized_allocator_move_if_noexceptB7v160006INS_9allocatorIP15JobWorkerThreadEENS_16reverse_iteratorIPS3_EES7_S3_vEET1_RT_T0_SB_S8_, symObjAddr: 0x5FDC, symBinAddr: 0x10000A63C, symSize: 0x78 }
  - { offsetInCU: 0xD4B3, offset: 0x15E35, size: 0x8, addend: 0x0, symName: __ZNSt3__14swapB7v160006IPP15JobWorkerThreadEENS_9enable_ifIXaasr21is_move_constructibleIT_EE5valuesr18is_move_assignableIS5_EE5valueEvE4typeERS5_S8_, symObjAddr: 0x60A0, symBinAddr: 0x10000A700, symSize: 0x3C }
  - { offsetInCU: 0xD504, offset: 0x15E86, size: 0x8, addend: 0x0, symName: __ZNSt3__125__debug_db_invalidate_allB7v160006INS_6vectorIP15JobWorkerThreadNS_9allocatorIS3_EEEEEEvPT_, symObjAddr: 0x6188, symBinAddr: 0x10000A7E8, symSize: 0x10 }
  - { offsetInCU: 0xD535, offset: 0x15EB7, size: 0x8, addend: 0x0, symName: __ZNSt3__14moveB7v160006INS_16reverse_iteratorIPP15JobWorkerThreadEES5_EET0_T_S7_S6_, symObjAddr: 0x6198, symBinAddr: 0x10000A7F8, symSize: 0x78 }
  - { offsetInCU: 0xD58F, offset: 0x15F11, size: 0x8, addend: 0x0, symName: __ZNSt3__16__moveB7v160006INS_17_ClassicAlgPolicyENS_16reverse_iteratorIPP15JobWorkerThreadEES6_S6_EENS_4pairIT0_T2_EES8_T1_S9_, symObjAddr: 0x6210, symBinAddr: 0x10000A870, symSize: 0x64 }
  - { offsetInCU: 0xD5FB, offset: 0x15F7D, size: 0x8, addend: 0x0, symName: __ZNSt3__123__dispatch_copy_or_moveB7v160006INS_17_ClassicAlgPolicyENS_11__move_loopIS1_EENS_14__move_trivialENS_16reverse_iteratorIPP15JobWorkerThreadEES9_S9_EENS_4pairIT2_T4_EESB_T3_SC_, symObjAddr: 0x6274, symBinAddr: 0x10000A8D4, symSize: 0x64 }
  - { offsetInCU: 0xD679, offset: 0x15FFB, size: 0x8, addend: 0x0, symName: __ZNSt3__121__unwrap_and_dispatchB7v160006INS_10__overloadINS_11__move_loopINS_17_ClassicAlgPolicyEEENS_14__move_trivialEEENS_16reverse_iteratorIPP15JobWorkerThreadEESB_SB_Li0EEENS_4pairIT0_T2_EESD_T1_SE_, symObjAddr: 0x62D8, symBinAddr: 0x10000A938, symSize: 0x12C }
  - { offsetInCU: 0xD70A, offset: 0x1608C, size: 0x8, addend: 0x0, symName: __ZNSt3__114__unwrap_rangeB7v160006INS_16reverse_iteratorIPP15JobWorkerThreadEES5_EENS_4pairIT0_S7_EET_S9_, symObjAddr: 0x6404, symBinAddr: 0x10000AA64, symSize: 0x84 }
  - { offsetInCU: 0xD82B, offset: 0x161AD, size: 0x8, addend: 0x0, symName: __ZNSt3__113__unwrap_iterB7v160006INS_16reverse_iteratorIPP15JobWorkerThreadEENS_18__unwrap_iter_implIS5_Lb0EEELi0EEEDTclsrT0_8__unwrapclsr3stdE7declvalIT_EEEES9_, symObjAddr: 0x6528, symBinAddr: 0x10000AB88, symSize: 0x44 }
  - { offsetInCU: 0xD870, offset: 0x161F2, size: 0x8, addend: 0x0, symName: __ZNSt3__19make_pairB7v160006INS_16reverse_iteratorIPP15JobWorkerThreadEES5_EENS_4pairINS_18__unwrap_ref_decayIT_E4typeENS7_IT0_E4typeEEEOS8_OSB_, symObjAddr: 0x656C, symBinAddr: 0x10000ABCC, symSize: 0x38 }
  - { offsetInCU: 0xD8BF, offset: 0x16241, size: 0x8, addend: 0x0, symName: __ZNSt3__114__rewrap_rangeB7v160006INS_16reverse_iteratorIPP15JobWorkerThreadEES5_EET_S6_T0_, symObjAddr: 0x65A4, symBinAddr: 0x10000AC04, symSize: 0x5C }
  - { offsetInCU: 0xD90B, offset: 0x1628D, size: 0x8, addend: 0x0, symName: __ZNSt3__113__rewrap_iterB7v160006INS_16reverse_iteratorIPP15JobWorkerThreadEES5_NS_18__unwrap_iter_implIS5_Lb0EEEEET_S8_T0_, symObjAddr: 0x6600, symBinAddr: 0x10000AC60, symSize: 0x74 }
  - { offsetInCU: 0xD960, offset: 0x162E2, size: 0x8, addend: 0x0, symName: __ZNSt3__1neB7v160006IPP15JobWorkerThreadS3_EEbRKNS_16reverse_iteratorIT_EERKNS4_IT0_EE, symObjAddr: 0x6674, symBinAddr: 0x10000ACD4, symSize: 0x48 }
  - { offsetInCU: 0xDA1A, offset: 0x1639C, size: 0x8, addend: 0x0, symName: __ZNSt3__1miB7v160006IPKP15JobWorkerThreadS4_EEDTmicldtfp_4baseEcldtfp0_4baseEERKNS_11__wrap_iterIT_EERKNS6_IT0_EE, symObjAddr: 0x6A98, symBinAddr: 0x10000B0F8, symSize: 0x48 }
  - { offsetInCU: 0xDA66, offset: 0x163E8, size: 0x8, addend: 0x0, symName: __ZNSt3__14moveB7v160006IPP15JobWorkerThreadS3_EET0_T_S5_S4_, symObjAddr: 0x6B0C, symBinAddr: 0x10000B16C, symSize: 0x40 }
  - { offsetInCU: 0xDAC0, offset: 0x16442, size: 0x8, addend: 0x0, symName: __ZNSt3__16__moveB7v160006INS_17_ClassicAlgPolicyEPP15JobWorkerThreadS4_S4_EENS_4pairIT0_T2_EES6_T1_S7_, symObjAddr: 0x6C28, symBinAddr: 0x10000B288, symSize: 0x44 }
  - { offsetInCU: 0xDB2C, offset: 0x164AE, size: 0x8, addend: 0x0, symName: __ZNSt3__123__dispatch_copy_or_moveB7v160006INS_17_ClassicAlgPolicyENS_11__move_loopIS1_EENS_14__move_trivialEPP15JobWorkerThreadS7_S7_EENS_4pairIT2_T4_EES9_T3_SA_, symObjAddr: 0x6C6C, symBinAddr: 0x10000B2CC, symSize: 0x44 }
  - { offsetInCU: 0xDBAA, offset: 0x1652C, size: 0x8, addend: 0x0, symName: __ZNSt3__121__unwrap_and_dispatchB7v160006INS_10__overloadINS_11__move_loopINS_17_ClassicAlgPolicyEEENS_14__move_trivialEEEPP15JobWorkerThreadS9_S9_Li0EEENS_4pairIT0_T2_EESB_T1_SC_, symObjAddr: 0x6CB0, symBinAddr: 0x10000B310, symSize: 0xB4 }
  - { offsetInCU: 0xDC39, offset: 0x165BB, size: 0x8, addend: 0x0, symName: __ZNSt3__114__unwrap_rangeB7v160006IPP15JobWorkerThreadS3_EENS_4pairIT0_S5_EET_S7_, symObjAddr: 0x6D64, symBinAddr: 0x10000B3C4, symSize: 0x60 }
  - { offsetInCU: 0xDE4B, offset: 0x167CD, size: 0x8, addend: 0x0, symName: __ZNSt3__113__unwrap_iterB7v160006IPP15JobWorkerThreadNS_18__unwrap_iter_implIS3_Lb1EEELi0EEEDTclsrT0_8__unwrapclsr3stdE7declvalIT_EEEES7_, symObjAddr: 0x6E0C, symBinAddr: 0x10000B46C, symSize: 0x24 }
  - { offsetInCU: 0xDE90, offset: 0x16812, size: 0x8, addend: 0x0, symName: __ZNSt3__19make_pairB7v160006IPP15JobWorkerThreadS3_EENS_4pairINS_18__unwrap_ref_decayIT_E4typeENS5_IT0_E4typeEEEOS6_OS9_, symObjAddr: 0x6E30, symBinAddr: 0x10000B490, symSize: 0x38 }
  - { offsetInCU: 0xDEDF, offset: 0x16861, size: 0x8, addend: 0x0, symName: __ZNSt3__114__rewrap_rangeB7v160006IPP15JobWorkerThreadS3_EET_S4_T0_, symObjAddr: 0x6E68, symBinAddr: 0x10000B4C8, symSize: 0x2C }
  - { offsetInCU: 0xDF2B, offset: 0x168AD, size: 0x8, addend: 0x0, symName: __ZNSt3__113__rewrap_iterB7v160006IPP15JobWorkerThreadS3_NS_18__unwrap_iter_implIS3_Lb1EEEEET_S6_T0_, symObjAddr: 0x6E94, symBinAddr: 0x10000B4F4, symSize: 0x3C }
  - { offsetInCU: 0xDF80, offset: 0x16902, size: 0x8, addend: 0x0, symName: __ZNSt3__119__copy_trivial_implB7v160006IP15JobWorkerThreadS2_EENS_4pairIPT_PT0_EES5_S5_S7_, symObjAddr: 0x6ED0, symBinAddr: 0x10000B530, symSize: 0x84 }
  - { offsetInCU: 0xDFE8, offset: 0x1696A, size: 0x8, addend: 0x0, symName: __ZNSt3__19make_pairB7v160006IRPP15JobWorkerThreadS3_EENS_4pairINS_18__unwrap_ref_decayIT_E4typeENS6_IT0_E4typeEEEOS7_OSA_, symObjAddr: 0x6F54, symBinAddr: 0x10000B5B4, symSize: 0x38 }
  - { offsetInCU: 0xE4E7, offset: 0x16E69, size: 0x8, addend: 0x0, symName: __ZNSt3__14swapB7v160006IPPP3JobEENS_9enable_ifIXaasr21is_move_constructibleIT_EE5valuesr18is_move_assignableIS6_EE5valueEvE4typeERS6_S9_, symObjAddr: 0x8648, symBinAddr: 0x10000CCA8, symSize: 0x3C }
  - { offsetInCU: 0xE538, offset: 0x16EBA, size: 0x8, addend: 0x0, symName: __ZNSt3__14moveB7v160006IPPP3JobS4_EET0_T_S6_S5_, symObjAddr: 0x872C, symBinAddr: 0x10000CD8C, symSize: 0x40 }
  - { offsetInCU: 0xE592, offset: 0x16F14, size: 0x8, addend: 0x0, symName: __ZNSt3__16__moveB7v160006INS_17_ClassicAlgPolicyEPPP3JobS5_S5_EENS_4pairIT0_T2_EES7_T1_S8_, symObjAddr: 0x88D0, symBinAddr: 0x10000CF30, symSize: 0x44 }
  - { offsetInCU: 0xE5FE, offset: 0x16F80, size: 0x8, addend: 0x0, symName: __ZNSt3__123__dispatch_copy_or_moveB7v160006INS_17_ClassicAlgPolicyENS_11__move_loopIS1_EENS_14__move_trivialEPPP3JobS8_S8_EENS_4pairIT2_T4_EESA_T3_SB_, symObjAddr: 0x8914, symBinAddr: 0x10000CF74, symSize: 0x44 }
  - { offsetInCU: 0xE67C, offset: 0x16FFE, size: 0x8, addend: 0x0, symName: __ZNSt3__121__unwrap_and_dispatchB7v160006INS_10__overloadINS_11__move_loopINS_17_ClassicAlgPolicyEEENS_14__move_trivialEEEPPP3JobSA_SA_Li0EEENS_4pairIT0_T2_EESC_T1_SD_, symObjAddr: 0x8958, symBinAddr: 0x10000CFB8, symSize: 0xB4 }
  - { offsetInCU: 0xE70B, offset: 0x1708D, size: 0x8, addend: 0x0, symName: __ZNSt3__114__unwrap_rangeB7v160006IPPP3JobS4_EENS_4pairIT0_S6_EET_S8_, symObjAddr: 0x8A0C, symBinAddr: 0x10000D06C, symSize: 0x60 }
  - { offsetInCU: 0xE88C, offset: 0x1720E, size: 0x8, addend: 0x0, symName: __ZNSt3__113__unwrap_iterB7v160006IPPP3JobNS_18__unwrap_iter_implIS4_Lb1EEELi0EEEDTclsrT0_8__unwrapclsr3stdE7declvalIT_EEEES8_, symObjAddr: 0x8AB4, symBinAddr: 0x10000D114, symSize: 0x24 }
  - { offsetInCU: 0xE8D1, offset: 0x17253, size: 0x8, addend: 0x0, symName: __ZNSt3__19make_pairB7v160006IPPP3JobS4_EENS_4pairINS_18__unwrap_ref_decayIT_E4typeENS6_IT0_E4typeEEEOS7_OSA_, symObjAddr: 0x8AD8, symBinAddr: 0x10000D138, symSize: 0x38 }
  - { offsetInCU: 0xE920, offset: 0x172A2, size: 0x8, addend: 0x0, symName: __ZNSt3__114__rewrap_rangeB7v160006IPPP3JobS4_EET_S5_T0_, symObjAddr: 0x8B10, symBinAddr: 0x10000D170, symSize: 0x2C }
  - { offsetInCU: 0xE96C, offset: 0x172EE, size: 0x8, addend: 0x0, symName: __ZNSt3__113__rewrap_iterB7v160006IPPP3JobS4_NS_18__unwrap_iter_implIS4_Lb1EEEEET_S7_T0_, symObjAddr: 0x8B3C, symBinAddr: 0x10000D19C, symSize: 0x3C }
  - { offsetInCU: 0xE9C1, offset: 0x17343, size: 0x8, addend: 0x0, symName: __ZNSt3__119__copy_trivial_implB7v160006IPP3JobS3_EENS_4pairIPT_PT0_EES6_S6_S8_, symObjAddr: 0x8B78, symBinAddr: 0x10000D1D8, symSize: 0x84 }
  - { offsetInCU: 0xEA29, offset: 0x173AB, size: 0x8, addend: 0x0, symName: __ZNSt3__19make_pairB7v160006IRPPP3JobS4_EENS_4pairINS_18__unwrap_ref_decayIT_E4typeENS7_IT0_E4typeEEEOS8_OSB_, symObjAddr: 0x8BFC, symBinAddr: 0x10000D25C, symSize: 0x38 }
  - { offsetInCU: 0xEACC, offset: 0x1744E, size: 0x8, addend: 0x0, symName: __ZNSt3__18distanceB7v160006INS_13move_iteratorIPPP3JobEEEENS_15iterator_traitsIT_E15difference_typeES8_S8_, symObjAddr: 0x8D88, symBinAddr: 0x10000D3E8, symSize: 0x3C }
  - { offsetInCU: 0xEB0F, offset: 0x17491, size: 0x8, addend: 0x0, symName: __ZNSt3__110__distanceB7v160006INS_13move_iteratorIPPP3JobEEEENS_15iterator_traitsIT_E15difference_typeES8_S8_NS_26random_access_iterator_tagE, symObjAddr: 0x8EC0, symBinAddr: 0x10000D520, symSize: 0x30 }
  - { offsetInCU: 0xEB5C, offset: 0x174DE, size: 0x8, addend: 0x0, symName: __ZNSt3__1miB7v160006IPPP3JobS4_EEDTmicldtfp_4baseEcldtfp0_4baseEERKNS_13move_iteratorIT_EERKNS6_IT0_EE, symObjAddr: 0x8EF0, symBinAddr: 0x10000D550, symSize: 0x48 }
  - { offsetInCU: 0xEBAB, offset: 0x1752D, size: 0x8, addend: 0x0, symName: __ZNSt3__113move_backwardB7v160006IPPP3JobS4_EET0_T_S6_S5_, symObjAddr: 0x90F4, symBinAddr: 0x10000D754, symSize: 0x40 }
  - { offsetInCU: 0xEC05, offset: 0x17587, size: 0x8, addend: 0x0, symName: __ZNSt3__115__move_backwardB7v160006INS_17_ClassicAlgPolicyEPPP3JobS5_S5_EENS_4pairIT0_T2_EES7_T1_S8_, symObjAddr: 0x9134, symBinAddr: 0x10000D794, symSize: 0x44 }
  - { offsetInCU: 0xEC71, offset: 0x175F3, size: 0x8, addend: 0x0, symName: __ZNSt3__123__dispatch_copy_or_moveB7v160006INS_17_ClassicAlgPolicyENS_20__move_backward_loopIS1_EENS_23__move_backward_trivialEPPP3JobS8_S8_EENS_4pairIT2_T4_EESA_T3_SB_, symObjAddr: 0x9178, symBinAddr: 0x10000D7D8, symSize: 0x44 }
  - { offsetInCU: 0xECEF, offset: 0x17671, size: 0x8, addend: 0x0, symName: __ZNSt3__121__unwrap_and_dispatchB7v160006INS_10__overloadINS_20__move_backward_loopINS_17_ClassicAlgPolicyEEENS_23__move_backward_trivialEEEPPP3JobSA_SA_Li0EEENS_4pairIT0_T2_EESC_T1_SD_, symObjAddr: 0x91BC, symBinAddr: 0x10000D81C, symSize: 0xB4 }
  - { offsetInCU: 0xEE02, offset: 0x17784, size: 0x8, addend: 0x0, symName: __ZNSt3__128__copy_backward_trivial_implB7v160006IPP3JobS3_EENS_4pairIPT_PT0_EES6_S6_S8_, symObjAddr: 0x92B8, symBinAddr: 0x10000D918, symSize: 0x94 }
  - { offsetInCU: 0xEE6A, offset: 0x177EC, size: 0x8, addend: 0x0, symName: __ZNSt3__19make_pairB7v160006IRPPP3JobS5_EENS_4pairINS_18__unwrap_ref_decayIT_E4typeENS7_IT0_E4typeEEEOS8_OSB_, symObjAddr: 0x934C, symBinAddr: 0x10000D9AC, symSize: 0x38 }
  - { offsetInCU: 0xEEB9, offset: 0x1783B, size: 0x8, addend: 0x0, symName: __ZNSt3__119__allocate_at_leastB7v160006INS_9allocatorIPP3JobEEEENS_19__allocation_resultINS_16allocator_traitsIT_E7pointerEEERS8_m, symObjAddr: 0x9504, symBinAddr: 0x10000DB64, symSize: 0x40 }
  - { offsetInCU: 0xEEFC, offset: 0x1787E, size: 0x8, addend: 0x0, symName: __ZNSt3__14swapB7v160006ImEENS_9enable_ifIXaasr21is_move_constructibleIT_EE5valuesr18is_move_assignableIS2_EE5valueEvE4typeERS2_S5_, symObjAddr: 0x9C0C, symBinAddr: 0x10000E26C, symSize: 0x3C }
  - { offsetInCU: 0xEF4D, offset: 0x178CF, size: 0x8, addend: 0x0, symName: __ZNSt3__116__swap_allocatorB7v160006INS_9allocatorIP3JobEEEEvRT_S6_, symObjAddr: 0x9C48, symBinAddr: 0x10000E2A8, symSize: 0x2C }
  - { offsetInCU: 0xEF8D, offset: 0x1790F, size: 0x8, addend: 0x0, symName: __ZNSt3__116__swap_allocatorB7v160006INS_9allocatorIPP3JobEEEEvRT_S7_, symObjAddr: 0x9C74, symBinAddr: 0x10000E2D4, symSize: 0x2C }
  - { offsetInCU: 0xEFCD, offset: 0x1794F, size: 0x8, addend: 0x0, symName: __ZNSt3__116__swap_allocatorB7v160006INS_9allocatorIPP3JobEEEEvRT_S7_NS_17integral_constantIbLb0EEE, symObjAddr: 0x9CA0, symBinAddr: 0x10000E300, symSize: 0x14 }
  - { offsetInCU: 0xF00E, offset: 0x17990, size: 0x8, addend: 0x0, symName: __ZNSt3__116__swap_allocatorB7v160006INS_9allocatorIP3JobEEEEvRT_S6_NS_17integral_constantIbLb0EEE, symObjAddr: 0x9CB4, symBinAddr: 0x10000E314, symSize: 0x14 }
  - { offsetInCU: 0xF04F, offset: 0x179D1, size: 0x8, addend: 0x0, symName: __ZNSt3__1eqB7v160006ERKNS_16__deque_iteratorIP3JobPS2_RS2_PS3_lLl512EEES8_, symObjAddr: 0x9D58, symBinAddr: 0x10000E3B8, symSize: 0x30 }
  - { offsetInCU: 0xF08D, offset: 0x17A0F, size: 0x8, addend: 0x0, symName: __ZNSt3__1miB7v160006ERKNS_16__deque_iteratorIP3JobPKS2_RS3_PKS4_lLl512EEESA_, symObjAddr: 0xA778, symBinAddr: 0x10000E3E8, symSize: 0xA4 }
  - { offsetInCU: 0xF0CA, offset: 0x17A4C, size: 0x8, addend: 0x0, symName: __ZNSt3__113move_backwardB7v160006INS_16__deque_iteratorIP3JobPS3_RS3_PS4_lLl512EEES7_EET0_T_S9_S8_, symObjAddr: 0xA85C, symBinAddr: 0x10000E4CC, symSize: 0x78 }
  - { offsetInCU: 0xF124, offset: 0x17AA6, size: 0x8, addend: 0x0, symName: __ZNSt3__14nextB7v160006INS_16__deque_iteratorIP3JobPS3_RS3_PS4_lLl512EEEEENS_9enable_ifIXsr25__is_cpp17_input_iteratorIT_EE5valueES9_E4typeES9_NS_15iterator_traitsIS9_E15difference_typeE, symObjAddr: 0xA8D4, symBinAddr: 0x10000E544, symSize: 0x58 }
  - { offsetInCU: 0xF167, offset: 0x17AE9, size: 0x8, addend: 0x0, symName: __ZNSt3__14moveB7v160006INS_16__deque_iteratorIP3JobPS3_RS3_PS4_lLl512EEES7_EET0_T_S9_S8_, symObjAddr: 0xAA08, symBinAddr: 0x10000E678, symSize: 0x78 }
  - { offsetInCU: 0xF1C1, offset: 0x17B43, size: 0x8, addend: 0x0, symName: __ZNSt3__1neB7v160006ERKNS_16__deque_iteratorIP3JobPKS2_RS3_PKS4_lLl512EEESA_, symObjAddr: 0xAB4C, symBinAddr: 0x10000E7BC, symSize: 0x34 }
  - { offsetInCU: 0xF1FE, offset: 0x17B80, size: 0x8, addend: 0x0, symName: __ZNSt3__1eqB7v160006ERKNS_16__deque_iteratorIP3JobPKS2_RS3_PKS4_lLl512EEESA_, symObjAddr: 0xAB80, symBinAddr: 0x10000E7F0, symSize: 0x30 }
  - { offsetInCU: 0xF23C, offset: 0x17BBE, size: 0x8, addend: 0x0, symName: __ZNSt3__115__move_backwardB7v160006INS_17_ClassicAlgPolicyENS_16__deque_iteratorIP3JobPS4_RS4_PS5_lLl512EEES8_S8_EENS_4pairIT0_T2_EESA_T1_SB_, symObjAddr: 0xACC0, symBinAddr: 0x10000E930, symSize: 0x64 }
  - { offsetInCU: 0xF2A8, offset: 0x17C2A, size: 0x8, addend: 0x0, symName: __ZNSt3__123__dispatch_copy_or_moveB7v160006INS_17_ClassicAlgPolicyENS_20__move_backward_loopIS1_EENS_23__move_backward_trivialENS_16__deque_iteratorIP3JobPS7_RS7_PS8_lLl512EEESB_SB_EENS_4pairIT2_T4_EESD_T3_SE_, symObjAddr: 0xAD24, symBinAddr: 0x10000E994, symSize: 0x64 }
  - { offsetInCU: 0xF326, offset: 0x17CA8, size: 0x8, addend: 0x0, symName: __ZNSt3__121__unwrap_and_dispatchB7v160006INS_10__overloadINS_20__move_backward_loopINS_17_ClassicAlgPolicyEEENS_23__move_backward_trivialEEENS_16__deque_iteratorIP3JobPS9_RS9_PSA_lLl512EEESD_SD_Li0EEENS_4pairIT0_T2_EESF_T1_SG_, symObjAddr: 0xAD88, symBinAddr: 0x10000E9F8, symSize: 0x12C }
  - { offsetInCU: 0xF3B7, offset: 0x17D39, size: 0x8, addend: 0x0, symName: __ZNSt3__114__unwrap_rangeB7v160006INS_16__deque_iteratorIP3JobPS3_RS3_PS4_lLl512EEES7_EENS_4pairIT0_S9_EET_SB_, symObjAddr: 0xAEB4, symBinAddr: 0x10000EB24, symSize: 0x84 }
  - { offsetInCU: 0xF5C5, offset: 0x17F47, size: 0x8, addend: 0x0, symName: __ZNSt3__113__unwrap_iterB7v160006INS_16__deque_iteratorIP3JobPS3_RS3_PS4_lLl512EEENS_18__unwrap_iter_implIS7_Lb0EEELi0EEEDTclsrT0_8__unwrapclsr3stdE7declvalIT_EEEESB_, symObjAddr: 0xB168, symBinAddr: 0x10000EDD8, symSize: 0x44 }
  - { offsetInCU: 0xF60A, offset: 0x17F8C, size: 0x8, addend: 0x0, symName: __ZNSt3__19make_pairB7v160006INS_16__deque_iteratorIP3JobPS3_RS3_PS4_lLl512EEES7_EENS_4pairINS_18__unwrap_ref_decayIT_E4typeENS9_IT0_E4typeEEEOSA_OSD_, symObjAddr: 0xB1AC, symBinAddr: 0x10000EE1C, symSize: 0x38 }
  - { offsetInCU: 0xF659, offset: 0x17FDB, size: 0x8, addend: 0x0, symName: __ZNSt3__114__rewrap_rangeB7v160006INS_16__deque_iteratorIP3JobPS3_RS3_PS4_lLl512EEES7_EET_S8_T0_, symObjAddr: 0xB1E4, symBinAddr: 0x10000EE54, symSize: 0x5C }
  - { offsetInCU: 0xF6A5, offset: 0x18027, size: 0x8, addend: 0x0, symName: __ZNSt3__113__rewrap_iterB7v160006INS_16__deque_iteratorIP3JobPS3_RS3_PS4_lLl512EEES7_NS_18__unwrap_iter_implIS7_Lb0EEEEET_SA_T0_, symObjAddr: 0xB240, symBinAddr: 0x10000EEB0, symSize: 0x74 }
  - { offsetInCU: 0xF7A6, offset: 0x18128, size: 0x8, addend: 0x0, symName: __ZNSt3__115__move_backwardB7v160006INS_17_ClassicAlgPolicyEPP3JobS4_NS_16__deque_iteratorIS3_S4_RS3_PS4_lLl512EEEEENS_4pairIT0_T2_EESA_T1_SB_, symObjAddr: 0xB2CC, symBinAddr: 0x10000EF3C, symSize: 0x44 }
  - { offsetInCU: 0xF812, offset: 0x18194, size: 0x8, addend: 0x0, symName: __ZNSt3__19make_pairB7v160006IRNS_16__deque_iteratorIP3JobPS3_RS3_PS4_lLl512EEES8_EENS_4pairINS_18__unwrap_ref_decayIT_E4typeENSA_IT0_E4typeEEEOSB_OSE_, symObjAddr: 0xB328, symBinAddr: 0x10000EF98, symSize: 0x38 }
  - { offsetInCU: 0xF861, offset: 0x181E3, size: 0x8, addend: 0x0, symName: __ZNSt3__19make_pairB7v160006IRNS_16__deque_iteratorIP3JobPS3_RS3_PS4_lLl512EEES7_EENS_4pairINS_18__unwrap_ref_decayIT_E4typeENSA_IT0_E4typeEEEOSB_OSE_, symObjAddr: 0xB394, symBinAddr: 0x10000F004, symSize: 0x38 }
  - { offsetInCU: 0xF8B0, offset: 0x18232, size: 0x8, addend: 0x0, symName: __ZNSt3__123__dispatch_copy_or_moveB7v160006INS_17_ClassicAlgPolicyENS_20__move_backward_loopIS1_EENS_23__move_backward_trivialEPP3JobS7_NS_16__deque_iteratorIS6_S7_RS6_PS7_lLl512EEEEENS_4pairIT2_T4_EESD_T3_SE_, symObjAddr: 0xB3CC, symBinAddr: 0x10000F03C, symSize: 0x44 }
  - { offsetInCU: 0xF92E, offset: 0x182B0, size: 0x8, addend: 0x0, symName: __ZNSt3__121__unwrap_and_dispatchB7v160006INS_10__overloadINS_20__move_backward_loopINS_17_ClassicAlgPolicyEEENS_23__move_backward_trivialEEEPP3JobS9_NS_16__deque_iteratorIS8_S9_RS8_PS9_lLl512EEELi0EEENS_4pairIT0_T2_EESF_T1_SG_, symObjAddr: 0xB410, symBinAddr: 0x10000F080, symSize: 0xF0 }
  - { offsetInCU: 0xF9BE, offset: 0x18340, size: 0x8, addend: 0x0, symName: __ZNSt3__114__unwrap_rangeB7v160006IPP3JobS3_EENS_4pairIT0_S5_EET_S7_, symObjAddr: 0xB500, symBinAddr: 0x10000F170, symSize: 0x60 }
  - { offsetInCU: 0xFB0F, offset: 0x18491, size: 0x8, addend: 0x0, symName: __ZNSt3__19make_pairB7v160006IPP3JobNS_16__deque_iteratorIS2_S3_RS2_PS3_lLl512EEEEENS_4pairINS_18__unwrap_ref_decayIT_E4typeENS9_IT0_E4typeEEEOSA_OSD_, symObjAddr: 0xB6FC, symBinAddr: 0x10000F36C, symSize: 0x38 }
  - { offsetInCU: 0xFB5E, offset: 0x184E0, size: 0x8, addend: 0x0, symName: __ZNSt3__114__rewrap_rangeB7v160006IPP3JobS3_EET_S4_T0_, symObjAddr: 0xB734, symBinAddr: 0x10000F3A4, symSize: 0x2C }
  - { offsetInCU: 0xFBAA, offset: 0x1852C, size: 0x8, addend: 0x0, symName: __ZNSt3__19make_pairB7v160006IPP3JobS3_EENS_4pairINS_18__unwrap_ref_decayIT_E4typeENS5_IT0_E4typeEEEOS6_OS9_, symObjAddr: 0xB760, symBinAddr: 0x10000F3D0, symSize: 0x38 }
  - { offsetInCU: 0xFBF9, offset: 0x1857B, size: 0x8, addend: 0x0, symName: __ZNSt3__113__unwrap_iterB7v160006IPP3JobNS_18__unwrap_iter_implIS3_Lb1EEELi0EEEDTclsrT0_8__unwrapclsr3stdE7declvalIT_EEEES7_, symObjAddr: 0xB798, symBinAddr: 0x10000F408, symSize: 0x24 }
  - { offsetInCU: 0xFDC7, offset: 0x18749, size: 0x8, addend: 0x0, symName: __ZNSt3__112__to_addressB7v160006IP3JobEEPT_S4_, symObjAddr: 0xB850, symBinAddr: 0x10000F4C0, symSize: 0x14 }
  - { offsetInCU: 0xFDFC, offset: 0x1877E, size: 0x8, addend: 0x0, symName: __ZNSt3__19make_pairB7v160006IRPP3JobRNS_16__deque_iteratorIS2_S3_RS2_PS3_lLl512EEEEENS_4pairINS_18__unwrap_ref_decayIT_E4typeENSB_IT0_E4typeEEEOSC_OSF_, symObjAddr: 0xB864, symBinAddr: 0x10000F4D4, symSize: 0x38 }
  - { offsetInCU: 0xFE4B, offset: 0x187CD, size: 0x8, addend: 0x0, symName: __ZNSt3__13minB7v160006IlEERKT_S3_S3_, symObjAddr: 0xB89C, symBinAddr: 0x10000F50C, symSize: 0x2C }
  - { offsetInCU: 0xFE8E, offset: 0x18810, size: 0x8, addend: 0x0, symName: __ZNSt3__115__move_backwardB7v160006INS_17_ClassicAlgPolicyEPP3JobS4_S4_EENS_4pairIT0_T2_EES6_T1_S7_, symObjAddr: 0xB8C8, symBinAddr: 0x10000F538, symSize: 0x44 }
  - { offsetInCU: 0xFEFA, offset: 0x1887C, size: 0x8, addend: 0x0, symName: __ZNSt3__13minB7v160006IlNS_6__lessIllEEEERKT_S5_S5_T0_, symObjAddr: 0xBA00, symBinAddr: 0x10000F670, symSize: 0x54 }
  - { offsetInCU: 0xFF8F, offset: 0x18911, size: 0x8, addend: 0x0, symName: __ZNSt3__123__dispatch_copy_or_moveB7v160006INS_17_ClassicAlgPolicyENS_20__move_backward_loopIS1_EENS_23__move_backward_trivialEPP3JobS7_S7_EENS_4pairIT2_T4_EES9_T3_SA_, symObjAddr: 0xBA88, symBinAddr: 0x10000F6F8, symSize: 0x44 }
  - { offsetInCU: 0x1000D, offset: 0x1898F, size: 0x8, addend: 0x0, symName: __ZNSt3__121__unwrap_and_dispatchB7v160006INS_10__overloadINS_20__move_backward_loopINS_17_ClassicAlgPolicyEEENS_23__move_backward_trivialEEEPP3JobS9_S9_Li0EEENS_4pairIT0_T2_EESB_T1_SC_, symObjAddr: 0xBACC, symBinAddr: 0x10000F73C, symSize: 0xB4 }
  - { offsetInCU: 0x1009C, offset: 0x18A1E, size: 0x8, addend: 0x0, symName: __ZNSt3__113__rewrap_iterB7v160006IPP3JobS3_NS_18__unwrap_iter_implIS3_Lb1EEEEET_S6_T0_, symObjAddr: 0xBBC8, symBinAddr: 0x10000F838, symSize: 0x3C }
  - { offsetInCU: 0x100F1, offset: 0x18A73, size: 0x8, addend: 0x0, symName: __ZNSt3__128__copy_backward_trivial_implB7v160006IP3JobS2_EENS_4pairIPT_PT0_EES5_S5_S7_, symObjAddr: 0xBC04, symBinAddr: 0x10000F874, symSize: 0x94 }
  - { offsetInCU: 0x10159, offset: 0x18ADB, size: 0x8, addend: 0x0, symName: __ZNSt3__19make_pairB7v160006IRPP3JobS4_EENS_4pairINS_18__unwrap_ref_decayIT_E4typeENS6_IT0_E4typeEEEOS7_OSA_, symObjAddr: 0xBC98, symBinAddr: 0x10000F908, symSize: 0x38 }
  - { offsetInCU: 0x101F1, offset: 0x18B73, size: 0x8, addend: 0x0, symName: __ZNSt3__121__convert_to_integralB7v160006El, symObjAddr: 0xBFF0, symBinAddr: 0x10000FC60, symSize: 0x14 }
  - { offsetInCU: 0x1021D, offset: 0x18B9F, size: 0x8, addend: 0x0, symName: __ZNSt3__19__advanceB7v160006INS_16__deque_iteratorIP3JobPS3_RS3_PS4_lLl512EEEEEvRT_NS_15iterator_traitsIS8_E15difference_typeENS_26random_access_iterator_tagE, symObjAddr: 0xC004, symBinAddr: 0x10000FC74, symSize: 0x2C }
  - { offsetInCU: 0x10267, offset: 0x18BE9, size: 0x8, addend: 0x0, symName: __ZNSt3__16__moveB7v160006INS_17_ClassicAlgPolicyENS_16__deque_iteratorIP3JobPS4_RS4_PS5_lLl512EEES8_S8_EENS_4pairIT0_T2_EESA_T1_SB_, symObjAddr: 0xC05C, symBinAddr: 0x10000FCCC, symSize: 0x64 }
  - { offsetInCU: 0x102D3, offset: 0x18C55, size: 0x8, addend: 0x0, symName: __ZNSt3__123__dispatch_copy_or_moveB7v160006INS_17_ClassicAlgPolicyENS_11__move_loopIS1_EENS_14__move_trivialENS_16__deque_iteratorIP3JobPS7_RS7_PS8_lLl512EEESB_SB_EENS_4pairIT2_T4_EESD_T3_SE_, symObjAddr: 0xC0C0, symBinAddr: 0x10000FD30, symSize: 0x64 }
  - { offsetInCU: 0x10351, offset: 0x18CD3, size: 0x8, addend: 0x0, symName: __ZNSt3__121__unwrap_and_dispatchB7v160006INS_10__overloadINS_11__move_loopINS_17_ClassicAlgPolicyEEENS_14__move_trivialEEENS_16__deque_iteratorIP3JobPS9_RS9_PSA_lLl512EEESD_SD_Li0EEENS_4pairIT0_T2_EESF_T1_SG_, symObjAddr: 0xC124, symBinAddr: 0x10000FD94, symSize: 0x12C }
  - { offsetInCU: 0x103E2, offset: 0x18D64, size: 0x8, addend: 0x0, symName: __ZNSt3__16__moveB7v160006INS_17_ClassicAlgPolicyEPP3JobS4_NS_16__deque_iteratorIS3_S4_RS3_PS4_lLl512EEEEENS_4pairIT0_T2_EESA_T1_SB_, symObjAddr: 0xC488, symBinAddr: 0x1000100F8, symSize: 0x44 }
  - { offsetInCU: 0x1044E, offset: 0x18DD0, size: 0x8, addend: 0x0, symName: __ZNSt3__123__dispatch_copy_or_moveB7v160006INS_17_ClassicAlgPolicyENS_11__move_loopIS1_EENS_14__move_trivialEPP3JobS7_NS_16__deque_iteratorIS6_S7_RS6_PS7_lLl512EEEEENS_4pairIT2_T4_EESD_T3_SE_, symObjAddr: 0xC4CC, symBinAddr: 0x10001013C, symSize: 0x44 }
  - { offsetInCU: 0x104CC, offset: 0x18E4E, size: 0x8, addend: 0x0, symName: __ZNSt3__121__unwrap_and_dispatchB7v160006INS_10__overloadINS_11__move_loopINS_17_ClassicAlgPolicyEEENS_14__move_trivialEEEPP3JobS9_NS_16__deque_iteratorIS8_S9_RS8_PS9_lLl512EEELi0EEENS_4pairIT0_T2_EESF_T1_SG_, symObjAddr: 0xC510, symBinAddr: 0x100010180, symSize: 0xF0 }
  - { offsetInCU: 0x1055C, offset: 0x18EDE, size: 0x8, addend: 0x0, symName: __ZNSt3__16__moveB7v160006INS_17_ClassicAlgPolicyEPP3JobS4_S4_EENS_4pairIT0_T2_EES6_T1_S7_, symObjAddr: 0xC764, symBinAddr: 0x1000103D4, symSize: 0x44 }
  - { offsetInCU: 0x105C8, offset: 0x18F4A, size: 0x8, addend: 0x0, symName: __ZNSt3__123__dispatch_copy_or_moveB7v160006INS_17_ClassicAlgPolicyENS_11__move_loopIS1_EENS_14__move_trivialEPP3JobS7_S7_EENS_4pairIT2_T4_EES9_T3_SA_, symObjAddr: 0xC7A8, symBinAddr: 0x100010418, symSize: 0x44 }
  - { offsetInCU: 0x10646, offset: 0x18FC8, size: 0x8, addend: 0x0, symName: __ZNSt3__121__unwrap_and_dispatchB7v160006INS_10__overloadINS_11__move_loopINS_17_ClassicAlgPolicyEEENS_14__move_trivialEEEPP3JobS9_S9_Li0EEENS_4pairIT0_T2_EESB_T1_SC_, symObjAddr: 0xC7EC, symBinAddr: 0x10001045C, symSize: 0xB4 }
  - { offsetInCU: 0x106D5, offset: 0x19057, size: 0x8, addend: 0x0, symName: __ZNSt3__119__copy_trivial_implB7v160006IP3JobS2_EENS_4pairIPT_PT0_EES5_S5_S7_, symObjAddr: 0xC8E8, symBinAddr: 0x100010558, symSize: 0x84 }
  - { offsetInCU: 0x1073D, offset: 0x190BF, size: 0x8, addend: 0x0, symName: __ZNSt3__19make_pairB7v160006IRPP3JobS3_EENS_4pairINS_18__unwrap_ref_decayIT_E4typeENS6_IT0_E4typeEEEOS7_OSA_, symObjAddr: 0xC96C, symBinAddr: 0x1000105DC, symSize: 0x38 }
  - { offsetInCU: 0x10B05, offset: 0x19487, size: 0x8, addend: 0x0, symName: __ZSt28__throw_bad_array_new_lengthB7v160006v, symObjAddr: 0x4960, symBinAddr: 0x100008FC0, symSize: 0x34 }
  - { offsetInCU: 0x114C0, offset: 0x19E42, size: 0x8, addend: 0x0, symName: __ZN3JobC2Emi, symObjAddr: 0x216C, symBinAddr: 0x1000069FC, symSize: 0x78 }
  - { offsetInCU: 0x114E7, offset: 0x19E69, size: 0x8, addend: 0x0, symName: __ZZN3JobC1EmiE11s_nextJobID, symObjAddr: 0xD130, symBinAddr: 0x100044000, symSize: 0x0 }
  - { offsetInCU: 0x11588, offset: 0x19F0A, size: 0x8, addend: 0x0, symName: __ZNSt3__16vectorI15JobHistoryEntryNS_9allocatorIS1_EEE26__swap_out_circular_bufferERNS_14__split_bufferIS1_RS3_EE, symObjAddr: 0x4370, symBinAddr: 0x1000089D0, symSize: 0x118 }
  - { offsetInCU: 0x115DD, offset: 0x19F5F, size: 0x8, addend: 0x0, symName: __ZNSt3__16vectorIP15JobWorkerThreadNS_9allocatorIS2_EEE26__swap_out_circular_bufferERNS_14__split_bufferIS2_RS4_EE, symObjAddr: 0x5A40, symBinAddr: 0x10000A0A0, symSize: 0x118 }
  - { offsetInCU: 0x13455, offset: 0x1BDD7, size: 0x8, addend: 0x0, symName: __ZN9JobSystemC2Ev, symObjAddr: 0x0, symBinAddr: 0x10000499C, symSize: 0x14C }
  - { offsetInCU: 0x13480, offset: 0x1BE02, size: 0x8, addend: 0x0, symName: __ZNSt3__16vectorIP15JobWorkerThreadNS_9allocatorIS2_EEEC1B7v160006Ev, symObjAddr: 0x14C, symBinAddr: 0x100004AE8, symSize: 0x2C }
  - { offsetInCU: 0x134A8, offset: 0x1BE2A, size: 0x8, addend: 0x0, symName: __ZNSt3__15mutexC1B7v160006Ev, symObjAddr: 0x178, symBinAddr: 0x100004B14, symSize: 0x2C }
  - { offsetInCU: 0x134D0, offset: 0x1BE52, size: 0x8, addend: 0x0, symName: __ZNSt3__15dequeIP3JobNS_9allocatorIS2_EEEC1B7v160006Ev, symObjAddr: 0x1A4, symBinAddr: 0x100004B40, symSize: 0x2C }
  - { offsetInCU: 0x134F8, offset: 0x1BE7A, size: 0x8, addend: 0x0, symName: __ZNSt3__16vectorI15JobHistoryEntryNS_9allocatorIS1_EEEC1B7v160006Ev, symObjAddr: 0x1D0, symBinAddr: 0x100004B6C, symSize: 0x2C }
  - { offsetInCU: 0x13520, offset: 0x1BEA2, size: 0x8, addend: 0x0, symName: __ZNSt3__16vectorI15JobHistoryEntryNS_9allocatorIS1_EEE7reserveEm, symObjAddr: 0x1FC, symBinAddr: 0x100004B98, symSize: 0xE8 }
  - { offsetInCU: 0x1357A, offset: 0x1BEFC, size: 0x8, addend: 0x0, symName: __ZNSt3__16vectorI15JobHistoryEntryNS_9allocatorIS1_EEED1B7v160006Ev, symObjAddr: 0x2E4, symBinAddr: 0x100004C80, symSize: 0x2C }
  - { offsetInCU: 0x135A2, offset: 0x1BF24, size: 0x8, addend: 0x0, symName: __ZNSt3__15dequeIP3JobNS_9allocatorIS2_EEED1B7v160006Ev, symObjAddr: 0x310, symBinAddr: 0x100004CAC, symSize: 0x2C }
  - { offsetInCU: 0x135CA, offset: 0x1BF4C, size: 0x8, addend: 0x0, symName: __ZNSt3__16vectorIP15JobWorkerThreadNS_9allocatorIS2_EEED1B7v160006Ev, symObjAddr: 0x33C, symBinAddr: 0x100004CD8, symSize: 0x2C }
  - { offsetInCU: 0x135F2, offset: 0x1BF74, size: 0x8, addend: 0x0, symName: __ZN9JobSystemC1Ev, symObjAddr: 0x368, symBinAddr: 0x100004D04, symSize: 0x2C }
  - { offsetInCU: 0x1361D, offset: 0x1BF9F, size: 0x8, addend: 0x0, symName: __ZN9JobSystemD2Ev, symObjAddr: 0x394, symBinAddr: 0x100004D30, symSize: 0x188 }
  - { offsetInCU: 0x13679, offset: 0x1BFFB, size: 0x8, addend: 0x0, symName: __ZNKSt3__16vectorIP15JobWorkerThreadNS_9allocatorIS2_EEE4sizeB7v160006Ev, symObjAddr: 0x528, symBinAddr: 0x100004EB8, symSize: 0x28 }
  - { offsetInCU: 0x1369D, offset: 0x1C01F, size: 0x8, addend: 0x0, symName: __ZNSt3__16vectorIP15JobWorkerThreadNS_9allocatorIS2_EEEixB7v160006Em, symObjAddr: 0x550, symBinAddr: 0x100004EE0, symSize: 0x24 }
  - { offsetInCU: 0x136D2, offset: 0x1C054, size: 0x8, addend: 0x0, symName: __ZNKSt3__16vectorIP15JobWorkerThreadNS_9allocatorIS2_EEE5emptyB7v160006Ev, symObjAddr: 0x574, symBinAddr: 0x100004F04, symSize: 0x28 }
  - { offsetInCU: 0x136F6, offset: 0x1C078, size: 0x8, addend: 0x0, symName: __ZNSt3__16vectorIP15JobWorkerThreadNS_9allocatorIS2_EEE4backB7v160006Ev, symObjAddr: 0x59C, symBinAddr: 0x100004F2C, symSize: 0x1C }
  - { offsetInCU: 0x1371A, offset: 0x1C09C, size: 0x8, addend: 0x0, symName: __ZNSt3__16vectorIP15JobWorkerThreadNS_9allocatorIS2_EEE8pop_backEv, symObjAddr: 0x5B8, symBinAddr: 0x100004F48, symSize: 0x2C }
  - { offsetInCU: 0x13740, offset: 0x1C0C2, size: 0x8, addend: 0x0, symName: __ZN9JobSystemD1Ev, symObjAddr: 0x5E4, symBinAddr: 0x100004F74, symSize: 0x2C }
  - { offsetInCU: 0x1376B, offset: 0x1C0ED, size: 0x8, addend: 0x0, symName: __ZN9JobSystem11createOrGetEv, symObjAddr: 0x610, symBinAddr: 0x100004FA0, symSize: 0x80 }
  - { offsetInCU: 0x13781, offset: 0x1C103, size: 0x8, addend: 0x0, symName: __ZN9JobSystem7destroyEv, symObjAddr: 0x690, symBinAddr: 0x100005020, symSize: 0x6C }
  - { offsetInCU: 0x13797, offset: 0x1C119, size: 0x8, addend: 0x0, symName: __ZN9JobSystem18createWorkerThreadEPKcm, symObjAddr: 0x6FC, symBinAddr: 0x10000508C, symSize: 0xBC }
  - { offsetInCU: 0x137E7, offset: 0x1C169, size: 0x8, addend: 0x0, symName: __ZNSt3__16vectorIP15JobWorkerThreadNS_9allocatorIS2_EEE9push_backB7v160006ERKS2_, symObjAddr: 0x7B8, symBinAddr: 0x100005148, symSize: 0x6C }
  - { offsetInCU: 0x1381C, offset: 0x1C19E, size: 0x8, addend: 0x0, symName: __ZN9JobSystem19destroyWorkerThreadEPKc, symObjAddr: 0x824, symBinAddr: 0x1000051B4, symSize: 0x13C }
  - { offsetInCU: 0x1386C, offset: 0x1C1EE, size: 0x8, addend: 0x0, symName: __ZNSt3__16vectorIP15JobWorkerThreadNS_9allocatorIS2_EEE5beginB7v160006Ev, symObjAddr: 0x960, symBinAddr: 0x1000052F0, symSize: 0x30 }
  - { offsetInCU: 0x13892, offset: 0x1C214, size: 0x8, addend: 0x0, symName: __ZNSt3__16vectorIP15JobWorkerThreadNS_9allocatorIS2_EEE3endB7v160006Ev, symObjAddr: 0x9C4, symBinAddr: 0x100005354, symSize: 0x30 }
  - { offsetInCU: 0x138B8, offset: 0x1C23A, size: 0x8, addend: 0x0, symName: __ZNKSt3__111__wrap_iterIPP15JobWorkerThreadEdeB7v160006Ev, symObjAddr: 0x9F4, symBinAddr: 0x100005384, symSize: 0x18 }
  - { offsetInCU: 0x138DC, offset: 0x1C25E, size: 0x8, addend: 0x0, symName: __ZNSt3__16vectorIP15JobWorkerThreadNS_9allocatorIS2_EEE5eraseB7v160006ENS_11__wrap_iterIPKS2_EE, symObjAddr: 0xA0C, symBinAddr: 0x10000539C, symSize: 0xA4 }
  - { offsetInCU: 0x13939, offset: 0x1C2BB, size: 0x8, addend: 0x0, symName: __ZNSt3__111__wrap_iterIPKP15JobWorkerThreadEC1B7v160006IPS2_EERKNS0_IT_EEPNS_9enable_ifIXsr14is_convertibleIS8_S4_EE5valueEvE4typeE, symObjAddr: 0xAB0, symBinAddr: 0x100005440, symSize: 0x3C }
  - { offsetInCU: 0x13982, offset: 0x1C304, size: 0x8, addend: 0x0, symName: __ZNSt3__111__wrap_iterIPP15JobWorkerThreadEppB7v160006Ev, symObjAddr: 0xAEC, symBinAddr: 0x10000547C, symSize: 0x20 }
  - { offsetInCU: 0x139A6, offset: 0x1C328, size: 0x8, addend: 0x0, symName: __ZN9JobSystem8queueJobEP3Job, symObjAddr: 0xB0C, symBinAddr: 0x10000549C, symSize: 0x94 }
  - { offsetInCU: 0x139DF, offset: 0x1C361, size: 0x8, addend: 0x0, symName: __ZNSt3__16vectorI15JobHistoryEntryNS_9allocatorIS1_EEE12emplace_backIJS1_EEERS1_DpOT_, symObjAddr: 0xBA0, symBinAddr: 0x100005530, symSize: 0x74 }
  - { offsetInCU: 0x13A20, offset: 0x1C3A2, size: 0x8, addend: 0x0, symName: __ZN15JobHistoryEntryC1Ei9JobStatus, symObjAddr: 0xC14, symBinAddr: 0x1000055A4, symSize: 0x3C }
  - { offsetInCU: 0x13A64, offset: 0x1C3E6, size: 0x8, addend: 0x0, symName: __ZNSt3__15dequeIP3JobNS_9allocatorIS2_EEE9push_backERKS2_, symObjAddr: 0xC50, symBinAddr: 0x1000055E0, symSize: 0xA0 }
  - { offsetInCU: 0x13AA8, offset: 0x1C42A, size: 0x8, addend: 0x0, symName: __ZNK9JobSystem12getJobStatusEi, symObjAddr: 0xCF0, symBinAddr: 0x100005680, symSize: 0x8C }
  - { offsetInCU: 0x13AEA, offset: 0x1C46C, size: 0x8, addend: 0x0, symName: __ZNKSt3__16vectorI15JobHistoryEntryNS_9allocatorIS1_EEE4sizeB7v160006Ev, symObjAddr: 0xD7C, symBinAddr: 0x10000570C, symSize: 0x28 }
  - { offsetInCU: 0x13B0E, offset: 0x1C490, size: 0x8, addend: 0x0, symName: __ZNKSt3__16vectorI15JobHistoryEntryNS_9allocatorIS1_EEEixB7v160006Em, symObjAddr: 0xDA4, symBinAddr: 0x100005734, symSize: 0x24 }
  - { offsetInCU: 0x13B43, offset: 0x1C4C5, size: 0x8, addend: 0x0, symName: __ZN9JobSystem8getJobIDEP3Job, symObjAddr: 0xDC8, symBinAddr: 0x100005758, symSize: 0x1C }
  - { offsetInCU: 0x13B78, offset: 0x1C4FA, size: 0x8, addend: 0x0, symName: __ZNK9JobSystem13isJobCompleteEi, symObjAddr: 0xDE4, symBinAddr: 0x100005774, symSize: 0x38 }
  - { offsetInCU: 0x13BAC, offset: 0x1C52E, size: 0x8, addend: 0x0, symName: __ZN9JobSystem19finishCompletedJobsEv, symObjAddr: 0xE1C, symBinAddr: 0x1000057AC, symSize: 0x178 }
  - { offsetInCU: 0x13C35, offset: 0x1C5B7, size: 0x8, addend: 0x0, symName: __ZNSt3__15dequeIP3JobNS_9allocatorIS2_EEE4swapERS5_, symObjAddr: 0xF94, symBinAddr: 0x100005924, symSize: 0x84 }
  - { offsetInCU: 0x13C6A, offset: 0x1C5EC, size: 0x8, addend: 0x0, symName: __ZNSt3__15dequeIP3JobNS_9allocatorIS2_EEE5beginB7v160006Ev, symObjAddr: 0x1018, symBinAddr: 0x1000059A8, symSize: 0xB8 }
  - { offsetInCU: 0x13C9D, offset: 0x1C61F, size: 0x8, addend: 0x0, symName: __ZNSt3__15dequeIP3JobNS_9allocatorIS2_EEE3endB7v160006Ev, symObjAddr: 0x10D0, symBinAddr: 0x100005A60, symSize: 0xBC }
  - { offsetInCU: 0x13CDF, offset: 0x1C661, size: 0x8, addend: 0x0, symName: __ZNKSt3__116__deque_iteratorIP3JobPS2_RS2_PS3_lLl512EEdeB7v160006Ev, symObjAddr: 0x11C0, symBinAddr: 0x100005B50, symSize: 0x18 }
  - { offsetInCU: 0x13D03, offset: 0x1C685, size: 0x8, addend: 0x0, symName: __ZNSt3__16vectorI15JobHistoryEntryNS_9allocatorIS1_EEEixB7v160006Em, symObjAddr: 0x11D8, symBinAddr: 0x100005B68, symSize: 0x24 }
  - { offsetInCU: 0x13D38, offset: 0x1C6BA, size: 0x8, addend: 0x0, symName: __ZNSt3__116__deque_iteratorIP3JobPS2_RS2_PS3_lLl512EEppB7v160006Ev, symObjAddr: 0x11FC, symBinAddr: 0x100005B8C, symSize: 0x70 }
  - { offsetInCU: 0x13D5C, offset: 0x1C6DE, size: 0x8, addend: 0x0, symName: __ZN9JobSystem9finishJobEi, symObjAddr: 0x126C, symBinAddr: 0x100005BFC, symSize: 0x2F4 }
  - { offsetInCU: 0x13E09, offset: 0x1C78B, size: 0x8, addend: 0x0, symName: __ZNSt3__15dequeIP3JobNS_9allocatorIS2_EEE5eraseENS_16__deque_iteratorIS2_PKS2_RS7_PKS8_lLl512EEE, symObjAddr: 0x162C, symBinAddr: 0x100005EF0, symSize: 0x260 }
  - { offsetInCU: 0x13EA2, offset: 0x1C824, size: 0x8, addend: 0x0, symName: __ZNSt3__116__deque_iteratorIP3JobPKS2_RS3_PKS4_lLl512EEC1B7v160006IPS2_RS2_PSA_EERKNS0_IS2_T_T0_T1_lLl512EEEPNS_9enable_ifIXsr14is_convertibleISD_S4_EE5valueEvE4typeE, symObjAddr: 0x188C, symBinAddr: 0x100006150, symSize: 0x3C }
  - { offsetInCU: 0x144FE, offset: 0x1CE80, size: 0x8, addend: 0x0, symName: __ZN8ParseJobC1Emi, symObjAddr: 0x18FC, symBinAddr: 0x1000061C0, symSize: 0x3C }
  - { offsetInCU: 0x14542, offset: 0x1CEC4, size: 0x8, addend: 0x0, symName: __ZN9JobSystem14getCompResultsEi, symObjAddr: 0x1938, symBinAddr: 0x1000061FC, symSize: 0x2DC }
  - { offsetInCU: 0x14604, offset: 0x1CF86, size: 0x8, addend: 0x0, symName: __ZNSt3__116__deque_iteratorIP3JobPS2_RS2_PS3_lLl512EEppB7v160006Ei, symObjAddr: 0x1C48, symBinAddr: 0x1000064D8, symSize: 0x38 }
  - { offsetInCU: 0x14643, offset: 0x1CFC5, size: 0x8, addend: 0x0, symName: __ZN9JobSystem14onJobCompletedEP3Job, symObjAddr: 0x1D2C, symBinAddr: 0x1000065BC, symSize: 0x158 }
  - { offsetInCU: 0x14686, offset: 0x1D008, size: 0x8, addend: 0x0, symName: __ZN9JobSystem8claimJobEm, symObjAddr: 0x1E84, symBinAddr: 0x100006714, symSize: 0x16C }
  - { offsetInCU: 0x146FA, offset: 0x1D07C, size: 0x8, addend: 0x0, symName: __ZNSt3__15mutexC2B7v160006Ev, symObjAddr: 0x1FF0, symBinAddr: 0x100006880, symSize: 0x44 }
  - { offsetInCU: 0x14722, offset: 0x1D0A4, size: 0x8, addend: 0x0, symName: __ZNKSt3__111__wrap_iterIPP15JobWorkerThreadE4baseB7v160006Ev, symObjAddr: 0x207C, symBinAddr: 0x10000690C, symSize: 0x18 }
  - { offsetInCU: 0x14746, offset: 0x1D0C8, size: 0x8, addend: 0x0, symName: __ZNSt3__111__wrap_iterIPKP15JobWorkerThreadEC2B7v160006IPS2_EERKNS0_IT_EEPNS_9enable_ifIXsr14is_convertibleIS8_S4_EE5valueEvE4typeE, symObjAddr: 0x2094, symBinAddr: 0x100006924, symSize: 0x40 }
  - { offsetInCU: 0x1478F, offset: 0x1D111, size: 0x8, addend: 0x0, symName: __ZN15JobHistoryEntryC2Ei9JobStatus, symObjAddr: 0x20D4, symBinAddr: 0x100006964, symSize: 0x2C }
  - { offsetInCU: 0x147D3, offset: 0x1D155, size: 0x8, addend: 0x0, symName: __ZN8ParseJobC2Emi, symObjAddr: 0x2100, symBinAddr: 0x100006990, symSize: 0x6C }
  - { offsetInCU: 0x14817, offset: 0x1D199, size: 0x8, addend: 0x0, symName: __ZNSt3__113unordered_mapINS_12basic_stringIcNS_11char_traitsIcEENS_9allocatorIcEEEENS_6vectorI5ErrorNS4_IS8_EEEENS_4hashIS6_EENS_8equal_toIS6_EENS4_INS_4pairIKS6_SA_EEEEEC1B7v160006Ev, symObjAddr: 0x21E4, symBinAddr: 0x100006A74, symSize: 0x2C }
  - { offsetInCU: 0x1483F, offset: 0x1D1C1, size: 0x8, addend: 0x0, symName: __ZNSt3__113unordered_mapINS_12basic_stringIcNS_11char_traitsIcEENS_9allocatorIcEEEENS_6vectorI5ErrorNS4_IS8_EEEENS_4hashIS6_EENS_8equal_toIS6_EENS4_INS_4pairIKS6_SA_EEEEEC2B7v160006Ev, symObjAddr: 0x226C, symBinAddr: 0x100006AA0, symSize: 0x3C }
  - { offsetInCU: 0x14867, offset: 0x1D1E9, size: 0x8, addend: 0x0, symName: __ZNSt3__112__hash_tableINS_17__hash_value_typeINS_12basic_stringIcNS_11char_traitsIcEENS_9allocatorIcEEEENS_6vectorI5ErrorNS5_IS9_EEEEEENS_22__unordered_map_hasherIS7_SC_NS_4hashIS7_EENS_8equal_toIS7_EELb1EEENS_21__unordered_map_equalIS7_SC_SH_SF_Lb1EEENS5_ISC_EEEC1Ev, symObjAddr: 0x22A8, symBinAddr: 0x100006ADC, symSize: 0x2C }
  - { offsetInCU: 0x14892, offset: 0x1D214, size: 0x8, addend: 0x0, symName: __ZNSt3__112__hash_tableINS_17__hash_value_typeINS_12basic_stringIcNS_11char_traitsIcEENS_9allocatorIcEEEENS_6vectorI5ErrorNS5_IS9_EEEEEENS_22__unordered_map_hasherIS7_SC_NS_4hashIS7_EENS_8equal_toIS7_EELb1EEENS_21__unordered_map_equalIS7_SC_SH_SF_Lb1EEENS5_ISC_EEEC2Ev, symObjAddr: 0x22E4, symBinAddr: 0x100006B18, symSize: 0x7C }
  - { offsetInCU: 0x148BD, offset: 0x1D23F, size: 0x8, addend: 0x0, symName: __ZNSt3__110unique_ptrIA_PNS_16__hash_node_baseIPNS_11__hash_nodeINS_17__hash_value_typeINS_12basic_stringIcNS_11char_traitsIcEENS_9allocatorIcEEEENS_6vectorI5ErrorNS7_ISB_EEEEEEPvEEEENS_25__bucket_list_deallocatorINS7_ISJ_EEEEEC1B7v160006ILb1EvEEv, symObjAddr: 0x2360, symBinAddr: 0x100006B94, symSize: 0x2C }
  - { offsetInCU: 0x148F1, offset: 0x1D273, size: 0x8, addend: 0x0, symName: __ZNSt3__117__compressed_pairINS_16__hash_node_baseIPNS_11__hash_nodeINS_17__hash_value_typeINS_12basic_stringIcNS_11char_traitsIcEENS_9allocatorIcEEEENS_6vectorI5ErrorNS7_ISB_EEEEEEPvEEEENS7_ISG_EEEC1B7v160006ILb1EvEEv, symObjAddr: 0x238C, symBinAddr: 0x100006BC0, symSize: 0x2C }
  - { offsetInCU: 0x1492F, offset: 0x1D2B1, size: 0x8, addend: 0x0, symName: __ZNSt3__117__compressed_pairImNS_22__unordered_map_hasherINS_12basic_stringIcNS_11char_traitsIcEENS_9allocatorIcEEEENS_17__hash_value_typeIS7_NS_6vectorI5ErrorNS5_ISA_EEEEEENS_4hashIS7_EENS_8equal_toIS7_EELb1EEEEC1B7v160006IiNS_18__default_init_tagEEEOT_OT0_, symObjAddr: 0x23B8, symBinAddr: 0x100006BEC, symSize: 0x3C }
  - { offsetInCU: 0x1498A, offset: 0x1D30C, size: 0x8, addend: 0x0, symName: __ZNSt3__117__compressed_pairIfNS_21__unordered_map_equalINS_12basic_stringIcNS_11char_traitsIcEENS_9allocatorIcEEEENS_17__hash_value_typeIS7_NS_6vectorI5ErrorNS5_ISA_EEEEEENS_8equal_toIS7_EENS_4hashIS7_EELb1EEEEC1B7v160006IfNS_18__default_init_tagEEEOT_OT0_, symObjAddr: 0x23F4, symBinAddr: 0x100006C28, symSize: 0x3C }
  - { offsetInCU: 0x149E0, offset: 0x1D362, size: 0x8, addend: 0x0, symName: __ZNSt3__110unique_ptrIA_PNS_16__hash_node_baseIPNS_11__hash_nodeINS_17__hash_value_typeINS_12basic_stringIcNS_11char_traitsIcEENS_9allocatorIcEEEENS_6vectorI5ErrorNS7_ISB_EEEEEEPvEEEENS_25__bucket_list_deallocatorINS7_ISJ_EEEEEC2B7v160006ILb1EvEEv, symObjAddr: 0x2430, symBinAddr: 0x100006C64, symSize: 0x3C }
  - { offsetInCU: 0x14A19, offset: 0x1D39B, size: 0x8, addend: 0x0, symName: __ZNSt3__117__compressed_pairIPPNS_16__hash_node_baseIPNS_11__hash_nodeINS_17__hash_value_typeINS_12basic_stringIcNS_11char_traitsIcEENS_9allocatorIcEEEENS_6vectorI5ErrorNS7_ISB_EEEEEEPvEEEENS_25__bucket_list_deallocatorINS7_ISJ_EEEEEC1B7v160006INS_16__value_init_tagESQ_EEOT_OT0_, symObjAddr: 0x246C, symBinAddr: 0x100006CA0, symSize: 0x3C }
  - { offsetInCU: 0x14A6F, offset: 0x1D3F1, size: 0x8, addend: 0x0, symName: __ZNSt3__117__compressed_pairIPPNS_16__hash_node_baseIPNS_11__hash_nodeINS_17__hash_value_typeINS_12basic_stringIcNS_11char_traitsIcEENS_9allocatorIcEEEENS_6vectorI5ErrorNS7_ISB_EEEEEEPvEEEENS_25__bucket_list_deallocatorINS7_ISJ_EEEEEC2B7v160006INS_16__value_init_tagESQ_EEOT_OT0_, symObjAddr: 0x24A8, symBinAddr: 0x100006CDC, symSize: 0x40 }
  - { offsetInCU: 0x14AC5, offset: 0x1D447, size: 0x8, addend: 0x0, symName: __ZNSt3__122__compressed_pair_elemIPPNS_16__hash_node_baseIPNS_11__hash_nodeINS_17__hash_value_typeINS_12basic_stringIcNS_11char_traitsIcEENS_9allocatorIcEEEENS_6vectorI5ErrorNS7_ISB_EEEEEEPvEEEELi0ELb0EEC2B7v160006ENS_16__value_init_tagE, symObjAddr: 0x24E8, symBinAddr: 0x100006D1C, symSize: 0x18 }
  - { offsetInCU: 0x14AF7, offset: 0x1D479, size: 0x8, addend: 0x0, symName: __ZNSt3__122__compressed_pair_elemINS_25__bucket_list_deallocatorINS_9allocatorIPNS_16__hash_node_baseIPNS_11__hash_nodeINS_17__hash_value_typeINS_12basic_stringIcNS_11char_traitsIcEENS2_IcEEEENS_6vectorI5ErrorNS2_ISC_EEEEEEPvEEEEEEEELi1ELb0EEC2B7v160006ENS_16__value_init_tagE, symObjAddr: 0x2500, symBinAddr: 0x100006D34, symSize: 0x2C }
  - { offsetInCU: 0x14B29, offset: 0x1D4AB, size: 0x8, addend: 0x0, symName: __ZNSt3__125__bucket_list_deallocatorINS_9allocatorIPNS_16__hash_node_baseIPNS_11__hash_nodeINS_17__hash_value_typeINS_12basic_stringIcNS_11char_traitsIcEENS1_IcEEEENS_6vectorI5ErrorNS1_ISB_EEEEEEPvEEEEEEEC1B7v160006Ev, symObjAddr: 0x252C, symBinAddr: 0x100006D60, symSize: 0x2C }
  - { offsetInCU: 0x14B51, offset: 0x1D4D3, size: 0x8, addend: 0x0, symName: __ZNSt3__125__bucket_list_deallocatorINS_9allocatorIPNS_16__hash_node_baseIPNS_11__hash_nodeINS_17__hash_value_typeINS_12basic_stringIcNS_11char_traitsIcEENS1_IcEEEENS_6vectorI5ErrorNS1_ISB_EEEEEEPvEEEEEEEC2B7v160006Ev, symObjAddr: 0x2558, symBinAddr: 0x100006D8C, symSize: 0x40 }
  - { offsetInCU: 0x14B79, offset: 0x1D4FB, size: 0x8, addend: 0x0, symName: __ZNSt3__117__compressed_pairImNS_9allocatorIPNS_16__hash_node_baseIPNS_11__hash_nodeINS_17__hash_value_typeINS_12basic_stringIcNS_11char_traitsIcEENS1_IcEEEENS_6vectorI5ErrorNS1_ISB_EEEEEEPvEEEEEEEC1B7v160006IiNS_18__default_init_tagEEEOT_OT0_, symObjAddr: 0x2598, symBinAddr: 0x100006DCC, symSize: 0x3C }
  - { offsetInCU: 0x14BCF, offset: 0x1D551, size: 0x8, addend: 0x0, symName: __ZNSt3__117__compressed_pairImNS_9allocatorIPNS_16__hash_node_baseIPNS_11__hash_nodeINS_17__hash_value_typeINS_12basic_stringIcNS_11char_traitsIcEENS1_IcEEEENS_6vectorI5ErrorNS1_ISB_EEEEEEPvEEEEEEEC2B7v160006IiNS_18__default_init_tagEEEOT_OT0_, symObjAddr: 0x25D4, symBinAddr: 0x100006E08, symSize: 0x40 }
  - { offsetInCU: 0x14C25, offset: 0x1D5A7, size: 0x8, addend: 0x0, symName: __ZNSt3__122__compressed_pair_elemImLi0ELb0EEC2B7v160006IivEEOT_, symObjAddr: 0x2614, symBinAddr: 0x100006E48, symSize: 0x24 }
  - { offsetInCU: 0x14C66, offset: 0x1D5E8, size: 0x8, addend: 0x0, symName: __ZNSt3__122__compressed_pair_elemINS_9allocatorIPNS_16__hash_node_baseIPNS_11__hash_nodeINS_17__hash_value_typeINS_12basic_stringIcNS_11char_traitsIcEENS1_IcEEEENS_6vectorI5ErrorNS1_ISB_EEEEEEPvEEEEEELi1ELb1EEC2B7v160006ENS_18__default_init_tagE, symObjAddr: 0x2638, symBinAddr: 0x100006E6C, symSize: 0x2C }
  - { offsetInCU: 0x14C98, offset: 0x1D61A, size: 0x8, addend: 0x0, symName: __ZNSt3__19allocatorIPNS_16__hash_node_baseIPNS_11__hash_nodeINS_17__hash_value_typeINS_12basic_stringIcNS_11char_traitsIcEENS0_IcEEEENS_6vectorI5ErrorNS0_ISA_EEEEEEPvEEEEEC2B7v160006Ev, symObjAddr: 0x2664, symBinAddr: 0x100006E98, symSize: 0x2C }
  - { offsetInCU: 0x14CC0, offset: 0x1D642, size: 0x8, addend: 0x0, symName: __ZNSt3__116__non_trivial_ifILb1ENS_9allocatorIPNS_16__hash_node_baseIPNS_11__hash_nodeINS_17__hash_value_typeINS_12basic_stringIcNS_11char_traitsIcEENS1_IcEEEENS_6vectorI5ErrorNS1_ISB_EEEEEEPvEEEEEEEC2B7v160006Ev, symObjAddr: 0x2690, symBinAddr: 0x100006EC4, symSize: 0x14 }
  - { offsetInCU: 0x14CE8, offset: 0x1D66A, size: 0x8, addend: 0x0, symName: __ZNSt3__117__compressed_pairINS_16__hash_node_baseIPNS_11__hash_nodeINS_17__hash_value_typeINS_12basic_stringIcNS_11char_traitsIcEENS_9allocatorIcEEEENS_6vectorI5ErrorNS7_ISB_EEEEEEPvEEEENS7_ISG_EEEC2B7v160006ILb1EvEEv, symObjAddr: 0x26A4, symBinAddr: 0x100006ED8, symSize: 0x34 }
  - { offsetInCU: 0x14D1C, offset: 0x1D69E, size: 0x8, addend: 0x0, symName: __ZNSt3__122__compressed_pair_elemINS_16__hash_node_baseIPNS_11__hash_nodeINS_17__hash_value_typeINS_12basic_stringIcNS_11char_traitsIcEENS_9allocatorIcEEEENS_6vectorI5ErrorNS7_ISB_EEEEEEPvEEEELi0ELb0EEC2B7v160006ENS_16__value_init_tagE, symObjAddr: 0x26D8, symBinAddr: 0x100006F0C, symSize: 0x2C }
  - { offsetInCU: 0x14D4E, offset: 0x1D6D0, size: 0x8, addend: 0x0, symName: __ZNSt3__122__compressed_pair_elemINS_9allocatorINS_11__hash_nodeINS_17__hash_value_typeINS_12basic_stringIcNS_11char_traitsIcEENS1_IcEEEENS_6vectorI5ErrorNS1_ISA_EEEEEEPvEEEELi1ELb1EEC2B7v160006ENS_16__value_init_tagE, symObjAddr: 0x2704, symBinAddr: 0x100006F38, symSize: 0x2C }
  - { offsetInCU: 0x14D80, offset: 0x1D702, size: 0x8, addend: 0x0, symName: __ZNSt3__116__hash_node_baseIPNS_11__hash_nodeINS_17__hash_value_typeINS_12basic_stringIcNS_11char_traitsIcEENS_9allocatorIcEEEENS_6vectorI5ErrorNS6_ISA_EEEEEEPvEEEC1B7v160006Ev, symObjAddr: 0x2730, symBinAddr: 0x100006F64, symSize: 0x2C }
  - { offsetInCU: 0x14DA8, offset: 0x1D72A, size: 0x8, addend: 0x0, symName: __ZNSt3__116__hash_node_baseIPNS_11__hash_nodeINS_17__hash_value_typeINS_12basic_stringIcNS_11char_traitsIcEENS_9allocatorIcEEEENS_6vectorI5ErrorNS6_ISA_EEEEEEPvEEEC2B7v160006Ev, symObjAddr: 0x275C, symBinAddr: 0x100006F90, symSize: 0x18 }
  - { offsetInCU: 0x14DD0, offset: 0x1D752, size: 0x8, addend: 0x0, symName: __ZNSt3__19allocatorINS_11__hash_nodeINS_17__hash_value_typeINS_12basic_stringIcNS_11char_traitsIcEENS0_IcEEEENS_6vectorI5ErrorNS0_IS9_EEEEEEPvEEEC2B7v160006Ev, symObjAddr: 0x2774, symBinAddr: 0x100006FA8, symSize: 0x2C }
  - { offsetInCU: 0x14DF8, offset: 0x1D77A, size: 0x8, addend: 0x0, symName: __ZNSt3__116__non_trivial_ifILb1ENS_9allocatorINS_11__hash_nodeINS_17__hash_value_typeINS_12basic_stringIcNS_11char_traitsIcEENS1_IcEEEENS_6vectorI5ErrorNS1_ISA_EEEEEEPvEEEEEC2B7v160006Ev, symObjAddr: 0x27A0, symBinAddr: 0x100006FD4, symSize: 0x14 }
  - { offsetInCU: 0x14E20, offset: 0x1D7A2, size: 0x8, addend: 0x0, symName: __ZNSt3__117__compressed_pairImNS_22__unordered_map_hasherINS_12basic_stringIcNS_11char_traitsIcEENS_9allocatorIcEEEENS_17__hash_value_typeIS7_NS_6vectorI5ErrorNS5_ISA_EEEEEENS_4hashIS7_EENS_8equal_toIS7_EELb1EEEEC2B7v160006IiNS_18__default_init_tagEEEOT_OT0_, symObjAddr: 0x27B4, symBinAddr: 0x100006FE8, symSize: 0x40 }
  - { offsetInCU: 0x14E76, offset: 0x1D7F8, size: 0x8, addend: 0x0, symName: __ZNSt3__122__compressed_pair_elemINS_22__unordered_map_hasherINS_12basic_stringIcNS_11char_traitsIcEENS_9allocatorIcEEEENS_17__hash_value_typeIS7_NS_6vectorI5ErrorNS5_ISA_EEEEEENS_4hashIS7_EENS_8equal_toIS7_EELb1EEELi1ELb1EEC2B7v160006ENS_18__default_init_tagE, symObjAddr: 0x27F4, symBinAddr: 0x100007028, symSize: 0x2C }
  - { offsetInCU: 0x14EA8, offset: 0x1D82A, size: 0x8, addend: 0x0, symName: __ZNSt3__122__unordered_map_hasherINS_12basic_stringIcNS_11char_traitsIcEENS_9allocatorIcEEEENS_17__hash_value_typeIS6_NS_6vectorI5ErrorNS4_IS9_EEEEEENS_4hashIS6_EENS_8equal_toIS6_EELb1EEC2B7v160006Ev, symObjAddr: 0x2820, symBinAddr: 0x100007054, symSize: 0x14 }
  - { offsetInCU: 0x14ED0, offset: 0x1D852, size: 0x8, addend: 0x0, symName: __ZNSt3__117__compressed_pairIfNS_21__unordered_map_equalINS_12basic_stringIcNS_11char_traitsIcEENS_9allocatorIcEEEENS_17__hash_value_typeIS7_NS_6vectorI5ErrorNS5_ISA_EEEEEENS_8equal_toIS7_EENS_4hashIS7_EELb1EEEEC2B7v160006IfNS_18__default_init_tagEEEOT_OT0_, symObjAddr: 0x2834, symBinAddr: 0x100007068, symSize: 0x40 }
  - { offsetInCU: 0x14F26, offset: 0x1D8A8, size: 0x8, addend: 0x0, symName: __ZNSt3__122__compressed_pair_elemIfLi0ELb0EEC2B7v160006IfvEEOT_, symObjAddr: 0x2874, symBinAddr: 0x1000070A8, symSize: 0x24 }
  - { offsetInCU: 0x14F67, offset: 0x1D8E9, size: 0x8, addend: 0x0, symName: __ZNSt3__122__compressed_pair_elemINS_21__unordered_map_equalINS_12basic_stringIcNS_11char_traitsIcEENS_9allocatorIcEEEENS_17__hash_value_typeIS7_NS_6vectorI5ErrorNS5_ISA_EEEEEENS_8equal_toIS7_EENS_4hashIS7_EELb1EEELi1ELb1EEC2B7v160006ENS_18__default_init_tagE, symObjAddr: 0x2898, symBinAddr: 0x1000070CC, symSize: 0x2C }
  - { offsetInCU: 0x14F99, offset: 0x1D91B, size: 0x8, addend: 0x0, symName: __ZNSt3__121__unordered_map_equalINS_12basic_stringIcNS_11char_traitsIcEENS_9allocatorIcEEEENS_17__hash_value_typeIS6_NS_6vectorI5ErrorNS4_IS9_EEEEEENS_8equal_toIS6_EENS_4hashIS6_EELb1EEC2B7v160006Ev, symObjAddr: 0x28C4, symBinAddr: 0x1000070F8, symSize: 0x14 }
  - { offsetInCU: 0x14FC1, offset: 0x1D943, size: 0x8, addend: 0x0, symName: __ZNSt3__16vectorIP15JobWorkerThreadNS_9allocatorIS2_EEEC2B7v160006Ev, symObjAddr: 0x2AAC, symBinAddr: 0x10000710C, symSize: 0x58 }
  - { offsetInCU: 0x14FEE, offset: 0x1D970, size: 0x8, addend: 0x0, symName: __ZNSt3__117__compressed_pairIPP15JobWorkerThreadNS_9allocatorIS2_EEEC1B7v160006IDnNS_18__default_init_tagEEEOT_OT0_, symObjAddr: 0x2B04, symBinAddr: 0x100007164, symSize: 0x3C }
  - { offsetInCU: 0x15044, offset: 0x1D9C6, size: 0x8, addend: 0x0, symName: __ZNSt3__117__compressed_pairIPP15JobWorkerThreadNS_9allocatorIS2_EEEC2B7v160006IDnNS_18__default_init_tagEEEOT_OT0_, symObjAddr: 0x2B50, symBinAddr: 0x1000071B0, symSize: 0x40 }
  - { offsetInCU: 0x1509A, offset: 0x1DA1C, size: 0x8, addend: 0x0, symName: __ZNSt3__122__compressed_pair_elemIPP15JobWorkerThreadLi0ELb0EEC2B7v160006IDnvEEOT_, symObjAddr: 0x2B90, symBinAddr: 0x1000071F0, symSize: 0x1C }
  - { offsetInCU: 0x150DB, offset: 0x1DA5D, size: 0x8, addend: 0x0, symName: __ZNSt3__122__compressed_pair_elemINS_9allocatorIP15JobWorkerThreadEELi1ELb1EEC2B7v160006ENS_18__default_init_tagE, symObjAddr: 0x2BAC, symBinAddr: 0x10000720C, symSize: 0x2C }
  - { offsetInCU: 0x1510D, offset: 0x1DA8F, size: 0x8, addend: 0x0, symName: __ZNSt3__19allocatorIP15JobWorkerThreadEC2B7v160006Ev, symObjAddr: 0x2BD8, symBinAddr: 0x100007238, symSize: 0x2C }
  - { offsetInCU: 0x15135, offset: 0x1DAB7, size: 0x8, addend: 0x0, symName: __ZNSt3__116__non_trivial_ifILb1ENS_9allocatorIP15JobWorkerThreadEEEC2B7v160006Ev, symObjAddr: 0x2C04, symBinAddr: 0x100007264, symSize: 0x14 }
  - { offsetInCU: 0x1515D, offset: 0x1DADF, size: 0x8, addend: 0x0, symName: __ZNSt3__15dequeIP3JobNS_9allocatorIS2_EEEC2B7v160006Ev, symObjAddr: 0x2C18, symBinAddr: 0x100007278, symSize: 0x50 }
  - { offsetInCU: 0x15185, offset: 0x1DB07, size: 0x8, addend: 0x0, symName: __ZNSt3__114__split_bufferIPP3JobNS_9allocatorIS3_EEEC1Ev, symObjAddr: 0x2C68, symBinAddr: 0x1000072C8, symSize: 0x2C }
  - { offsetInCU: 0x151B0, offset: 0x1DB32, size: 0x8, addend: 0x0, symName: __ZNSt3__117__compressed_pairImNS_9allocatorIP3JobEEEC1B7v160006IiNS_18__default_init_tagEEEOT_OT0_, symObjAddr: 0x2C94, symBinAddr: 0x1000072F4, symSize: 0x3C }
  - { offsetInCU: 0x15206, offset: 0x1DB88, size: 0x8, addend: 0x0, symName: __ZNSt3__114__split_bufferIPP3JobNS_9allocatorIS3_EEEC2Ev, symObjAddr: 0x2CD0, symBinAddr: 0x100007330, symSize: 0x50 }
  - { offsetInCU: 0x15231, offset: 0x1DBB3, size: 0x8, addend: 0x0, symName: __ZNSt3__117__compressed_pairIPPP3JobNS_9allocatorIS3_EEEC1B7v160006IDnNS_18__default_init_tagEEEOT_OT0_, symObjAddr: 0x2D20, symBinAddr: 0x100007380, symSize: 0x3C }
  - { offsetInCU: 0x15287, offset: 0x1DC09, size: 0x8, addend: 0x0, symName: __ZNSt3__117__compressed_pairIPPP3JobNS_9allocatorIS3_EEEC2B7v160006IDnNS_18__default_init_tagEEEOT_OT0_, symObjAddr: 0x2D5C, symBinAddr: 0x1000073BC, symSize: 0x40 }
  - { offsetInCU: 0x152DD, offset: 0x1DC5F, size: 0x8, addend: 0x0, symName: __ZNSt3__122__compressed_pair_elemIPPP3JobLi0ELb0EEC2B7v160006IDnvEEOT_, symObjAddr: 0x2D9C, symBinAddr: 0x1000073FC, symSize: 0x1C }
  - { offsetInCU: 0x1531E, offset: 0x1DCA0, size: 0x8, addend: 0x0, symName: __ZNSt3__122__compressed_pair_elemINS_9allocatorIPP3JobEELi1ELb1EEC2B7v160006ENS_18__default_init_tagE, symObjAddr: 0x2DB8, symBinAddr: 0x100007418, symSize: 0x2C }
  - { offsetInCU: 0x15350, offset: 0x1DCD2, size: 0x8, addend: 0x0, symName: __ZNSt3__19allocatorIPP3JobEC2B7v160006Ev, symObjAddr: 0x2DE4, symBinAddr: 0x100007444, symSize: 0x2C }
  - { offsetInCU: 0x15378, offset: 0x1DCFA, size: 0x8, addend: 0x0, symName: __ZNSt3__116__non_trivial_ifILb1ENS_9allocatorIPP3JobEEEC2B7v160006Ev, symObjAddr: 0x2E10, symBinAddr: 0x100007470, symSize: 0x14 }
  - { offsetInCU: 0x153A0, offset: 0x1DD22, size: 0x8, addend: 0x0, symName: __ZNSt3__117__compressed_pairImNS_9allocatorIP3JobEEEC2B7v160006IiNS_18__default_init_tagEEEOT_OT0_, symObjAddr: 0x2E24, symBinAddr: 0x100007484, symSize: 0x40 }
  - { offsetInCU: 0x153F6, offset: 0x1DD78, size: 0x8, addend: 0x0, symName: __ZNSt3__122__compressed_pair_elemINS_9allocatorIP3JobEELi1ELb1EEC2B7v160006ENS_18__default_init_tagE, symObjAddr: 0x2E64, symBinAddr: 0x1000074C4, symSize: 0x2C }
  - { offsetInCU: 0x15428, offset: 0x1DDAA, size: 0x8, addend: 0x0, symName: __ZNSt3__19allocatorIP3JobEC2B7v160006Ev, symObjAddr: 0x2E90, symBinAddr: 0x1000074F0, symSize: 0x2C }
  - { offsetInCU: 0x15450, offset: 0x1DDD2, size: 0x8, addend: 0x0, symName: __ZNSt3__116__non_trivial_ifILb1ENS_9allocatorIP3JobEEEC2B7v160006Ev, symObjAddr: 0x2EBC, symBinAddr: 0x10000751C, symSize: 0x14 }
  - { offsetInCU: 0x15478, offset: 0x1DDFA, size: 0x8, addend: 0x0, symName: __ZNSt3__16vectorI15JobHistoryEntryNS_9allocatorIS1_EEEC2B7v160006Ev, symObjAddr: 0x2ED0, symBinAddr: 0x100007530, symSize: 0x58 }
  - { offsetInCU: 0x154A0, offset: 0x1DE22, size: 0x8, addend: 0x0, symName: __ZNSt3__117__compressed_pairIP15JobHistoryEntryNS_9allocatorIS1_EEEC1B7v160006IDnNS_18__default_init_tagEEEOT_OT0_, symObjAddr: 0x2F28, symBinAddr: 0x100007588, symSize: 0x3C }
  - { offsetInCU: 0x154F6, offset: 0x1DE78, size: 0x8, addend: 0x0, symName: __ZNSt3__117__compressed_pairIP15JobHistoryEntryNS_9allocatorIS1_EEEC2B7v160006IDnNS_18__default_init_tagEEEOT_OT0_, symObjAddr: 0x2F74, symBinAddr: 0x1000075D4, symSize: 0x40 }
  - { offsetInCU: 0x1554C, offset: 0x1DECE, size: 0x8, addend: 0x0, symName: __ZNSt3__122__compressed_pair_elemIP15JobHistoryEntryLi0ELb0EEC2B7v160006IDnvEEOT_, symObjAddr: 0x2FB4, symBinAddr: 0x100007614, symSize: 0x1C }
  - { offsetInCU: 0x1558D, offset: 0x1DF0F, size: 0x8, addend: 0x0, symName: __ZNSt3__122__compressed_pair_elemINS_9allocatorI15JobHistoryEntryEELi1ELb1EEC2B7v160006ENS_18__default_init_tagE, symObjAddr: 0x2FD0, symBinAddr: 0x100007630, symSize: 0x2C }
  - { offsetInCU: 0x155BF, offset: 0x1DF41, size: 0x8, addend: 0x0, symName: __ZNSt3__19allocatorI15JobHistoryEntryEC2B7v160006Ev, symObjAddr: 0x2FFC, symBinAddr: 0x10000765C, symSize: 0x2C }
  - { offsetInCU: 0x155E7, offset: 0x1DF69, size: 0x8, addend: 0x0, symName: __ZNSt3__116__non_trivial_ifILb1ENS_9allocatorI15JobHistoryEntryEEEC2B7v160006Ev, symObjAddr: 0x3028, symBinAddr: 0x100007688, symSize: 0x14 }
  - { offsetInCU: 0x1560F, offset: 0x1DF91, size: 0x8, addend: 0x0, symName: __ZNSt3__16vectorIP15JobWorkerThreadNS_9allocatorIS2_EEED2B7v160006Ev, symObjAddr: 0x303C, symBinAddr: 0x10000769C, symSize: 0x44 }
  - { offsetInCU: 0x15637, offset: 0x1DFB9, size: 0x8, addend: 0x0, symName: __ZNSt3__16vectorIP15JobWorkerThreadNS_9allocatorIS2_EEE16__destroy_vectorC1ERS5_, symObjAddr: 0x3080, symBinAddr: 0x1000076E0, symSize: 0x34 }
  - { offsetInCU: 0x1566E, offset: 0x1DFF0, size: 0x8, addend: 0x0, symName: __ZNSt3__16vectorIP15JobWorkerThreadNS_9allocatorIS2_EEE16__destroy_vectorclB7v160006Ev, symObjAddr: 0x30B4, symBinAddr: 0x100007714, symSize: 0x9C }
  - { offsetInCU: 0x15692, offset: 0x1E014, size: 0x8, addend: 0x0, symName: __ZNSt3__16vectorIP15JobWorkerThreadNS_9allocatorIS2_EEE16__destroy_vectorC2ERS5_, symObjAddr: 0x3150, symBinAddr: 0x1000077B0, symSize: 0x20 }
  - { offsetInCU: 0x156C9, offset: 0x1E04B, size: 0x8, addend: 0x0, symName: __ZNKSt3__16vectorIP15JobWorkerThreadNS_9allocatorIS2_EEE17__annotate_deleteB7v160006Ev, symObjAddr: 0x3170, symBinAddr: 0x1000077D0, symSize: 0xB8 }
  - { offsetInCU: 0x156ED, offset: 0x1E06F, size: 0x8, addend: 0x0, symName: __ZNSt3__16vectorIP15JobWorkerThreadNS_9allocatorIS2_EEE7__clearB7v160006Ev, symObjAddr: 0x3238, symBinAddr: 0x100007898, symSize: 0x28 }
  - { offsetInCU: 0x15711, offset: 0x1E093, size: 0x8, addend: 0x0, symName: __ZNSt3__116allocator_traitsINS_9allocatorIP15JobWorkerThreadEEE10deallocateB7v160006ERS4_PS3_m, symObjAddr: 0x3260, symBinAddr: 0x1000078C0, symSize: 0x34 }
  - { offsetInCU: 0x15752, offset: 0x1E0D4, size: 0x8, addend: 0x0, symName: __ZNSt3__16vectorIP15JobWorkerThreadNS_9allocatorIS2_EEE7__allocB7v160006Ev, symObjAddr: 0x3294, symBinAddr: 0x1000078F4, symSize: 0x28 }
  - { offsetInCU: 0x15776, offset: 0x1E0F8, size: 0x8, addend: 0x0, symName: __ZNKSt3__16vectorIP15JobWorkerThreadNS_9allocatorIS2_EEE8capacityB7v160006Ev, symObjAddr: 0x32BC, symBinAddr: 0x10000791C, symSize: 0x40 }
  - { offsetInCU: 0x1579A, offset: 0x1E11C, size: 0x8, addend: 0x0, symName: __ZNKSt3__16vectorIP15JobWorkerThreadNS_9allocatorIS2_EEE31__annotate_contiguous_containerB7v160006EPKvS7_S7_S7_, symObjAddr: 0x32FC, symBinAddr: 0x10000795C, symSize: 0x20 }
  - { offsetInCU: 0x157EE, offset: 0x1E170, size: 0x8, addend: 0x0, symName: __ZNKSt3__16vectorIP15JobWorkerThreadNS_9allocatorIS2_EEE4dataB7v160006Ev, symObjAddr: 0x331C, symBinAddr: 0x10000797C, symSize: 0x28 }
  - { offsetInCU: 0x15812, offset: 0x1E194, size: 0x8, addend: 0x0, symName: __ZNSt3__16vectorIP15JobWorkerThreadNS_9allocatorIS2_EEE22__base_destruct_at_endB7v160006EPS2_, symObjAddr: 0x3358, symBinAddr: 0x1000079B8, symSize: 0x8C }
  - { offsetInCU: 0x15854, offset: 0x1E1D6, size: 0x8, addend: 0x0, symName: __ZNSt3__116allocator_traitsINS_9allocatorIP15JobWorkerThreadEEE7destroyB7v160006IS3_vEEvRS4_PT_, symObjAddr: 0x33E4, symBinAddr: 0x100007A44, symSize: 0x2C }
  - { offsetInCU: 0x15891, offset: 0x1E213, size: 0x8, addend: 0x0, symName: __ZNSt3__19allocatorIP15JobWorkerThreadE7destroyB7v160006EPS2_, symObjAddr: 0x3410, symBinAddr: 0x100007A70, symSize: 0x14 }
  - { offsetInCU: 0x158C3, offset: 0x1E245, size: 0x8, addend: 0x0, symName: __ZNSt3__19allocatorIP15JobWorkerThreadE10deallocateB7v160006EPS2_m, symObjAddr: 0x3424, symBinAddr: 0x100007A84, symSize: 0x40 }
  - { offsetInCU: 0x15903, offset: 0x1E285, size: 0x8, addend: 0x0, symName: __ZNSt3__117__compressed_pairIPP15JobWorkerThreadNS_9allocatorIS2_EEE6secondB7v160006Ev, symObjAddr: 0x358C, symBinAddr: 0x100007BEC, symSize: 0x24 }
  - { offsetInCU: 0x15927, offset: 0x1E2A9, size: 0x8, addend: 0x0, symName: __ZNSt3__122__compressed_pair_elemINS_9allocatorIP15JobWorkerThreadEELi1ELb1EE5__getB7v160006Ev, symObjAddr: 0x35B0, symBinAddr: 0x100007C10, symSize: 0x14 }
  - { offsetInCU: 0x1594B, offset: 0x1E2CD, size: 0x8, addend: 0x0, symName: __ZNKSt3__16vectorIP15JobWorkerThreadNS_9allocatorIS2_EEE9__end_capB7v160006Ev, symObjAddr: 0x35C4, symBinAddr: 0x100007C24, symSize: 0x28 }
  - { offsetInCU: 0x1596F, offset: 0x1E2F1, size: 0x8, addend: 0x0, symName: __ZNKSt3__117__compressed_pairIPP15JobWorkerThreadNS_9allocatorIS2_EEE5firstB7v160006Ev, symObjAddr: 0x35EC, symBinAddr: 0x100007C4C, symSize: 0x24 }
  - { offsetInCU: 0x15993, offset: 0x1E315, size: 0x8, addend: 0x0, symName: __ZNKSt3__122__compressed_pair_elemIPP15JobWorkerThreadLi0ELb0EE5__getB7v160006Ev, symObjAddr: 0x3610, symBinAddr: 0x100007C70, symSize: 0x14 }
  - { offsetInCU: 0x159B7, offset: 0x1E339, size: 0x8, addend: 0x0, symName: __ZNSt3__15dequeIP3JobNS_9allocatorIS2_EEED2B7v160006Ev, symObjAddr: 0x3624, symBinAddr: 0x100007C84, symSize: 0x9C }
  - { offsetInCU: 0x15A0C, offset: 0x1E38E, size: 0x8, addend: 0x0, symName: __ZNSt3__15dequeIP3JobNS_9allocatorIS2_EEE5clearEv, symObjAddr: 0x36C0, symBinAddr: 0x100007D20, symSize: 0x180 }
  - { offsetInCU: 0x15A65, offset: 0x1E3E7, size: 0x8, addend: 0x0, symName: __ZNSt3__114__split_bufferIPP3JobNS_9allocatorIS3_EEE5beginB7v160006Ev, symObjAddr: 0x3840, symBinAddr: 0x100007EA0, symSize: 0x18 }
  - { offsetInCU: 0x15A89, offset: 0x1E40B, size: 0x8, addend: 0x0, symName: __ZNSt3__114__split_bufferIPP3JobNS_9allocatorIS3_EEE3endB7v160006Ev, symObjAddr: 0x3858, symBinAddr: 0x100007EB8, symSize: 0x18 }
  - { offsetInCU: 0x15AAD, offset: 0x1E42F, size: 0x8, addend: 0x0, symName: __ZNSt3__116allocator_traitsINS_9allocatorIP3JobEEE10deallocateB7v160006ERS4_PS3_m, symObjAddr: 0x3870, symBinAddr: 0x100007ED0, symSize: 0x34 }
  - { offsetInCU: 0x15AEE, offset: 0x1E470, size: 0x8, addend: 0x0, symName: __ZNSt3__15dequeIP3JobNS_9allocatorIS2_EEE7__allocB7v160006Ev, symObjAddr: 0x38A4, symBinAddr: 0x100007F04, symSize: 0x28 }
  - { offsetInCU: 0x15B12, offset: 0x1E494, size: 0x8, addend: 0x0, symName: __ZNSt3__114__split_bufferIPP3JobNS_9allocatorIS3_EEED1Ev, symObjAddr: 0x38CC, symBinAddr: 0x100007F2C, symSize: 0x2C }
  - { offsetInCU: 0x15B3D, offset: 0x1E4BF, size: 0x8, addend: 0x0, symName: __ZNSt3__116allocator_traitsINS_9allocatorIP3JobEEE7destroyB7v160006IS3_vEEvRS4_PT_, symObjAddr: 0x38F8, symBinAddr: 0x100007F58, symSize: 0x2C }
  - { offsetInCU: 0x15B7A, offset: 0x1E4FC, size: 0x8, addend: 0x0, symName: __ZNSt3__15dequeIP3JobNS_9allocatorIS2_EEE6__sizeB7v160006Ev, symObjAddr: 0x3924, symBinAddr: 0x100007F84, symSize: 0x28 }
  - { offsetInCU: 0x15B9E, offset: 0x1E520, size: 0x8, addend: 0x0, symName: __ZNKSt3__114__split_bufferIPP3JobNS_9allocatorIS3_EEE4sizeB7v160006Ev, symObjAddr: 0x394C, symBinAddr: 0x100007FAC, symSize: 0x28 }
  - { offsetInCU: 0x15BC2, offset: 0x1E544, size: 0x8, addend: 0x0, symName: __ZNSt3__114__split_bufferIPP3JobNS_9allocatorIS3_EEE5frontB7v160006Ev, symObjAddr: 0x3974, symBinAddr: 0x100007FD4, symSize: 0x18 }
  - { offsetInCU: 0x15BE6, offset: 0x1E568, size: 0x8, addend: 0x0, symName: __ZNSt3__114__split_bufferIPP3JobNS_9allocatorIS3_EEE9pop_frontB7v160006Ev, symObjAddr: 0x398C, symBinAddr: 0x100007FEC, symSize: 0x2C }
  - { offsetInCU: 0x15C0A, offset: 0x1E58C, size: 0x8, addend: 0x0, symName: __ZNSt3__19allocatorIP3JobE7destroyB7v160006EPS2_, symObjAddr: 0x39B8, symBinAddr: 0x100008018, symSize: 0x14 }
  - { offsetInCU: 0x15C3C, offset: 0x1E5BE, size: 0x8, addend: 0x0, symName: __ZNSt3__117__compressed_pairImNS_9allocatorIP3JobEEE5firstB7v160006Ev, symObjAddr: 0x39CC, symBinAddr: 0x10000802C, symSize: 0x24 }
  - { offsetInCU: 0x15C60, offset: 0x1E5E2, size: 0x8, addend: 0x0, symName: __ZNSt3__122__compressed_pair_elemImLi0ELb0EE5__getB7v160006Ev, symObjAddr: 0x39F0, symBinAddr: 0x100008050, symSize: 0x14 }
  - { offsetInCU: 0x15C84, offset: 0x1E606, size: 0x8, addend: 0x0, symName: __ZNSt3__114__split_bufferIPP3JobNS_9allocatorIS3_EEE19__destruct_at_beginB7v160006EPS3_, symObjAddr: 0x3A04, symBinAddr: 0x100008064, symSize: 0x2C }
  - { offsetInCU: 0x15CB6, offset: 0x1E638, size: 0x8, addend: 0x0, symName: __ZNSt3__114__split_bufferIPP3JobNS_9allocatorIS3_EEE19__destruct_at_beginEPS3_NS_17integral_constantIbLb1EEE, symObjAddr: 0x3A30, symBinAddr: 0x100008090, symSize: 0x20 }
  - { offsetInCU: 0x15CF4, offset: 0x1E676, size: 0x8, addend: 0x0, symName: __ZNSt3__19allocatorIP3JobE10deallocateB7v160006EPS2_m, symObjAddr: 0x3A50, symBinAddr: 0x1000080B0, symSize: 0x40 }
  - { offsetInCU: 0x15D34, offset: 0x1E6B6, size: 0x8, addend: 0x0, symName: __ZNSt3__117__compressed_pairImNS_9allocatorIP3JobEEE6secondB7v160006Ev, symObjAddr: 0x3A90, symBinAddr: 0x1000080F0, symSize: 0x24 }
  - { offsetInCU: 0x15D58, offset: 0x1E6DA, size: 0x8, addend: 0x0, symName: __ZNSt3__122__compressed_pair_elemINS_9allocatorIP3JobEELi1ELb1EE5__getB7v160006Ev, symObjAddr: 0x3AB4, symBinAddr: 0x100008114, symSize: 0x14 }
  - { offsetInCU: 0x15D7C, offset: 0x1E6FE, size: 0x8, addend: 0x0, symName: __ZNSt3__114__split_bufferIPP3JobNS_9allocatorIS3_EEED2Ev, symObjAddr: 0x3AC8, symBinAddr: 0x100008128, symSize: 0x8C }
  - { offsetInCU: 0x15DA7, offset: 0x1E729, size: 0x8, addend: 0x0, symName: __ZNSt3__114__split_bufferIPP3JobNS_9allocatorIS3_EEE5clearB7v160006Ev, symObjAddr: 0x3B54, symBinAddr: 0x1000081B4, symSize: 0x28 }
  - { offsetInCU: 0x15DCB, offset: 0x1E74D, size: 0x8, addend: 0x0, symName: __ZNSt3__116allocator_traitsINS_9allocatorIPP3JobEEE10deallocateB7v160006ERS5_PS4_m, symObjAddr: 0x3B7C, symBinAddr: 0x1000081DC, symSize: 0x34 }
  - { offsetInCU: 0x15E0C, offset: 0x1E78E, size: 0x8, addend: 0x0, symName: __ZNSt3__114__split_bufferIPP3JobNS_9allocatorIS3_EEE7__allocB7v160006Ev, symObjAddr: 0x3BB0, symBinAddr: 0x100008210, symSize: 0x28 }
  - { offsetInCU: 0x15E30, offset: 0x1E7B2, size: 0x8, addend: 0x0, symName: __ZNKSt3__114__split_bufferIPP3JobNS_9allocatorIS3_EEE8capacityB7v160006Ev, symObjAddr: 0x3BD8, symBinAddr: 0x100008238, symSize: 0x40 }
  - { offsetInCU: 0x15E54, offset: 0x1E7D6, size: 0x8, addend: 0x0, symName: __ZNSt3__114__split_bufferIPP3JobNS_9allocatorIS3_EEE17__destruct_at_endB7v160006EPS3_, symObjAddr: 0x3C18, symBinAddr: 0x100008278, symSize: 0x2C }
  - { offsetInCU: 0x15E86, offset: 0x1E808, size: 0x8, addend: 0x0, symName: __ZNSt3__114__split_bufferIPP3JobNS_9allocatorIS3_EEE17__destruct_at_endB7v160006EPS3_NS_17integral_constantIbLb0EEE, symObjAddr: 0x3C44, symBinAddr: 0x1000082A4, symSize: 0x80 }
  - { offsetInCU: 0x15EC4, offset: 0x1E846, size: 0x8, addend: 0x0, symName: __ZNSt3__116allocator_traitsINS_9allocatorIPP3JobEEE7destroyB7v160006IS4_vEEvRS5_PT_, symObjAddr: 0x3CC4, symBinAddr: 0x100008324, symSize: 0x2C }
  - { offsetInCU: 0x15F01, offset: 0x1E883, size: 0x8, addend: 0x0, symName: __ZNSt3__19allocatorIPP3JobE7destroyB7v160006EPS3_, symObjAddr: 0x3D04, symBinAddr: 0x100008364, symSize: 0x14 }
  - { offsetInCU: 0x15F33, offset: 0x1E8B5, size: 0x8, addend: 0x0, symName: __ZNSt3__19allocatorIPP3JobE10deallocateB7v160006EPS3_m, symObjAddr: 0x3D18, symBinAddr: 0x100008378, symSize: 0x40 }
  - { offsetInCU: 0x15F73, offset: 0x1E8F5, size: 0x8, addend: 0x0, symName: __ZNSt3__117__compressed_pairIPPP3JobNS_9allocatorIS3_EEE6secondB7v160006Ev, symObjAddr: 0x3D58, symBinAddr: 0x1000083B8, symSize: 0x24 }
  - { offsetInCU: 0x15F97, offset: 0x1E919, size: 0x8, addend: 0x0, symName: __ZNSt3__122__compressed_pair_elemINS_9allocatorIPP3JobEELi1ELb1EE5__getB7v160006Ev, symObjAddr: 0x3D7C, symBinAddr: 0x1000083DC, symSize: 0x14 }
  - { offsetInCU: 0x15FBB, offset: 0x1E93D, size: 0x8, addend: 0x0, symName: __ZNKSt3__114__split_bufferIPP3JobNS_9allocatorIS3_EEE9__end_capB7v160006Ev, symObjAddr: 0x3D90, symBinAddr: 0x1000083F0, symSize: 0x28 }
  - { offsetInCU: 0x15FDF, offset: 0x1E961, size: 0x8, addend: 0x0, symName: __ZNKSt3__117__compressed_pairIPPP3JobNS_9allocatorIS3_EEE5firstB7v160006Ev, symObjAddr: 0x3DB8, symBinAddr: 0x100008418, symSize: 0x24 }
  - { offsetInCU: 0x16003, offset: 0x1E985, size: 0x8, addend: 0x0, symName: __ZNKSt3__122__compressed_pair_elemIPPP3JobLi0ELb0EE5__getB7v160006Ev, symObjAddr: 0x3DDC, symBinAddr: 0x10000843C, symSize: 0x14 }
  - { offsetInCU: 0x16027, offset: 0x1E9A9, size: 0x8, addend: 0x0, symName: __ZNSt3__16vectorI15JobHistoryEntryNS_9allocatorIS1_EEED2B7v160006Ev, symObjAddr: 0x3DF0, symBinAddr: 0x100008450, symSize: 0x44 }
  - { offsetInCU: 0x1604F, offset: 0x1E9D1, size: 0x8, addend: 0x0, symName: __ZNSt3__16vectorI15JobHistoryEntryNS_9allocatorIS1_EEE16__destroy_vectorC1ERS4_, symObjAddr: 0x3E34, symBinAddr: 0x100008494, symSize: 0x34 }
  - { offsetInCU: 0x16086, offset: 0x1EA08, size: 0x8, addend: 0x0, symName: __ZNSt3__16vectorI15JobHistoryEntryNS_9allocatorIS1_EEE16__destroy_vectorclB7v160006Ev, symObjAddr: 0x3E68, symBinAddr: 0x1000084C8, symSize: 0x9C }
  - { offsetInCU: 0x160AA, offset: 0x1EA2C, size: 0x8, addend: 0x0, symName: __ZNSt3__16vectorI15JobHistoryEntryNS_9allocatorIS1_EEE16__destroy_vectorC2ERS4_, symObjAddr: 0x3F04, symBinAddr: 0x100008564, symSize: 0x20 }
  - { offsetInCU: 0x160E1, offset: 0x1EA63, size: 0x8, addend: 0x0, symName: __ZNKSt3__16vectorI15JobHistoryEntryNS_9allocatorIS1_EEE17__annotate_deleteB7v160006Ev, symObjAddr: 0x3F24, symBinAddr: 0x100008584, symSize: 0xB8 }
  - { offsetInCU: 0x16105, offset: 0x1EA87, size: 0x8, addend: 0x0, symName: __ZNSt3__16vectorI15JobHistoryEntryNS_9allocatorIS1_EEE7__clearB7v160006Ev, symObjAddr: 0x3FEC, symBinAddr: 0x10000864C, symSize: 0x28 }
  - { offsetInCU: 0x16129, offset: 0x1EAAB, size: 0x8, addend: 0x0, symName: __ZNSt3__116allocator_traitsINS_9allocatorI15JobHistoryEntryEEE10deallocateB7v160006ERS3_PS2_m, symObjAddr: 0x4014, symBinAddr: 0x100008674, symSize: 0x34 }
  - { offsetInCU: 0x1616A, offset: 0x1EAEC, size: 0x8, addend: 0x0, symName: __ZNSt3__16vectorI15JobHistoryEntryNS_9allocatorIS1_EEE7__allocB7v160006Ev, symObjAddr: 0x4048, symBinAddr: 0x1000086A8, symSize: 0x28 }
  - { offsetInCU: 0x1618E, offset: 0x1EB10, size: 0x8, addend: 0x0, symName: __ZNKSt3__16vectorI15JobHistoryEntryNS_9allocatorIS1_EEE8capacityB7v160006Ev, symObjAddr: 0x4070, symBinAddr: 0x1000086D0, symSize: 0x40 }
  - { offsetInCU: 0x161B2, offset: 0x1EB34, size: 0x8, addend: 0x0, symName: __ZNKSt3__16vectorI15JobHistoryEntryNS_9allocatorIS1_EEE31__annotate_contiguous_containerB7v160006EPKvS6_S6_S6_, symObjAddr: 0x40B0, symBinAddr: 0x100008710, symSize: 0x20 }
  - { offsetInCU: 0x16206, offset: 0x1EB88, size: 0x8, addend: 0x0, symName: __ZNKSt3__16vectorI15JobHistoryEntryNS_9allocatorIS1_EEE4dataB7v160006Ev, symObjAddr: 0x40D0, symBinAddr: 0x100008730, symSize: 0x28 }
  - { offsetInCU: 0x1622A, offset: 0x1EBAC, size: 0x8, addend: 0x0, symName: __ZNSt3__16vectorI15JobHistoryEntryNS_9allocatorIS1_EEE22__base_destruct_at_endB7v160006EPS1_, symObjAddr: 0x410C, symBinAddr: 0x10000876C, symSize: 0x8C }
  - { offsetInCU: 0x1626C, offset: 0x1EBEE, size: 0x8, addend: 0x0, symName: __ZNSt3__116allocator_traitsINS_9allocatorI15JobHistoryEntryEEE7destroyB7v160006IS2_vEEvRS3_PT_, symObjAddr: 0x4198, symBinAddr: 0x1000087F8, symSize: 0x2C }
  - { offsetInCU: 0x162A9, offset: 0x1EC2B, size: 0x8, addend: 0x0, symName: __ZNSt3__19allocatorI15JobHistoryEntryE7destroyB7v160006EPS1_, symObjAddr: 0x41C4, symBinAddr: 0x100008824, symSize: 0x14 }
  - { offsetInCU: 0x162DB, offset: 0x1EC5D, size: 0x8, addend: 0x0, symName: __ZNSt3__19allocatorI15JobHistoryEntryE10deallocateB7v160006EPS1_m, symObjAddr: 0x41D8, symBinAddr: 0x100008838, symSize: 0x40 }
  - { offsetInCU: 0x1631B, offset: 0x1EC9D, size: 0x8, addend: 0x0, symName: __ZNSt3__117__compressed_pairIP15JobHistoryEntryNS_9allocatorIS1_EEE6secondB7v160006Ev, symObjAddr: 0x4218, symBinAddr: 0x100008878, symSize: 0x24 }
  - { offsetInCU: 0x1633F, offset: 0x1ECC1, size: 0x8, addend: 0x0, symName: __ZNSt3__122__compressed_pair_elemINS_9allocatorI15JobHistoryEntryEELi1ELb1EE5__getB7v160006Ev, symObjAddr: 0x423C, symBinAddr: 0x10000889C, symSize: 0x14 }
  - { offsetInCU: 0x16363, offset: 0x1ECE5, size: 0x8, addend: 0x0, symName: __ZNKSt3__16vectorI15JobHistoryEntryNS_9allocatorIS1_EEE9__end_capB7v160006Ev, symObjAddr: 0x4250, symBinAddr: 0x1000088B0, symSize: 0x28 }
  - { offsetInCU: 0x16387, offset: 0x1ED09, size: 0x8, addend: 0x0, symName: __ZNKSt3__117__compressed_pairIP15JobHistoryEntryNS_9allocatorIS1_EEE5firstB7v160006Ev, symObjAddr: 0x4278, symBinAddr: 0x1000088D8, symSize: 0x24 }
  - { offsetInCU: 0x163AB, offset: 0x1ED2D, size: 0x8, addend: 0x0, symName: __ZNKSt3__122__compressed_pair_elemIP15JobHistoryEntryLi0ELb0EE5__getB7v160006Ev, symObjAddr: 0x429C, symBinAddr: 0x1000088FC, symSize: 0x14 }
  - { offsetInCU: 0x163CF, offset: 0x1ED51, size: 0x8, addend: 0x0, symName: __ZNKSt3__16vectorI15JobHistoryEntryNS_9allocatorIS1_EEE8max_sizeEv, symObjAddr: 0x42B0, symBinAddr: 0x100008910, symSize: 0x60 }
  - { offsetInCU: 0x163F5, offset: 0x1ED77, size: 0x8, addend: 0x0, symName: __ZNKSt3__16vectorI15JobHistoryEntryNS_9allocatorIS1_EEE20__throw_length_errorB7v160006Ev, symObjAddr: 0x4310, symBinAddr: 0x100008970, symSize: 0x1C }
  - { offsetInCU: 0x16419, offset: 0x1ED9B, size: 0x8, addend: 0x0, symName: __ZNSt3__114__split_bufferI15JobHistoryEntryRNS_9allocatorIS1_EEEC1EmmS4_, symObjAddr: 0x432C, symBinAddr: 0x10000898C, symSize: 0x44 }
  - { offsetInCU: 0x1646E, offset: 0x1EDF0, size: 0x8, addend: 0x0, symName: __ZNSt3__114__split_bufferI15JobHistoryEntryRNS_9allocatorIS1_EEED1Ev, symObjAddr: 0x4488, symBinAddr: 0x100008AE8, symSize: 0x2C }
  - { offsetInCU: 0x164A3, offset: 0x1EE25, size: 0x8, addend: 0x0, symName: __ZNSt3__116allocator_traitsINS_9allocatorI15JobHistoryEntryEEE8max_sizeB7v160006IS3_vEEmRKS3_, symObjAddr: 0x44E0, symBinAddr: 0x100008B40, symSize: 0x24 }
  - { offsetInCU: 0x164D1, offset: 0x1EE53, size: 0x8, addend: 0x0, symName: __ZNKSt3__16vectorI15JobHistoryEntryNS_9allocatorIS1_EEE7__allocB7v160006Ev, symObjAddr: 0x4504, symBinAddr: 0x100008B64, symSize: 0x28 }
  - { offsetInCU: 0x164F5, offset: 0x1EE77, size: 0x8, addend: 0x0, symName: __ZNSt3__114numeric_limitsIlE3maxB7v160006Ev, symObjAddr: 0x452C, symBinAddr: 0x100008B8C, symSize: 0x14 }
  - { offsetInCU: 0x16513, offset: 0x1EE95, size: 0x8, addend: 0x0, symName: __ZNKSt3__16__lessImmEclB7v160006ERKmS3_, symObjAddr: 0x4594, symBinAddr: 0x100008BF4, symSize: 0x34 }
  - { offsetInCU: 0x16553, offset: 0x1EED5, size: 0x8, addend: 0x0, symName: __ZNKSt3__19allocatorI15JobHistoryEntryE8max_sizeB7v160006Ev, symObjAddr: 0x45C8, symBinAddr: 0x100008C28, symSize: 0x14 }
  - { offsetInCU: 0x16577, offset: 0x1EEF9, size: 0x8, addend: 0x0, symName: __ZNKSt3__117__compressed_pairIP15JobHistoryEntryNS_9allocatorIS1_EEE6secondB7v160006Ev, symObjAddr: 0x45DC, symBinAddr: 0x100008C3C, symSize: 0x24 }
  - { offsetInCU: 0x1659B, offset: 0x1EF1D, size: 0x8, addend: 0x0, symName: __ZNKSt3__122__compressed_pair_elemINS_9allocatorI15JobHistoryEntryEELi1ELb1EE5__getB7v160006Ev, symObjAddr: 0x4600, symBinAddr: 0x100008C60, symSize: 0x14 }
  - { offsetInCU: 0x165BF, offset: 0x1EF41, size: 0x8, addend: 0x0, symName: __ZNSt3__123__libcpp_numeric_limitsIlLb1EE3maxB7v160006Ev, symObjAddr: 0x4614, symBinAddr: 0x100008C74, symSize: 0x8 }
  - { offsetInCU: 0x165D2, offset: 0x1EF54, size: 0x8, addend: 0x0, symName: __ZNSt12length_errorC1B7v160006EPKc, symObjAddr: 0x4680, symBinAddr: 0x100008CE0, symSize: 0x34 }
  - { offsetInCU: 0x16608, offset: 0x1EF8A, size: 0x8, addend: 0x0, symName: __ZNSt12length_errorC2B7v160006EPKc, symObjAddr: 0x46B4, symBinAddr: 0x100008D14, symSize: 0x4C }
  - { offsetInCU: 0x1663E, offset: 0x1EFC0, size: 0x8, addend: 0x0, symName: __ZNSt3__114__split_bufferI15JobHistoryEntryRNS_9allocatorIS1_EEEC2EmmS4_, symObjAddr: 0x4700, symBinAddr: 0x100008D60, symSize: 0xD4 }
  - { offsetInCU: 0x166B1, offset: 0x1F033, size: 0x8, addend: 0x0, symName: __ZNSt3__117__compressed_pairIP15JobHistoryEntryRNS_9allocatorIS1_EEEC1B7v160006IDnS5_EEOT_OT0_, symObjAddr: 0x47D4, symBinAddr: 0x100008E34, symSize: 0x3C }
  - { offsetInCU: 0x16707, offset: 0x1F089, size: 0x8, addend: 0x0, symName: __ZNSt3__114__split_bufferI15JobHistoryEntryRNS_9allocatorIS1_EEE7__allocB7v160006Ev, symObjAddr: 0x4850, symBinAddr: 0x100008EB0, symSize: 0x28 }
  - { offsetInCU: 0x1672B, offset: 0x1F0AD, size: 0x8, addend: 0x0, symName: __ZNSt3__114__split_bufferI15JobHistoryEntryRNS_9allocatorIS1_EEE9__end_capB7v160006Ev, symObjAddr: 0x4878, symBinAddr: 0x100008ED8, symSize: 0x28 }
  - { offsetInCU: 0x1674F, offset: 0x1F0D1, size: 0x8, addend: 0x0, symName: __ZNSt3__117__compressed_pairIP15JobHistoryEntryRNS_9allocatorIS1_EEEC2B7v160006IDnS5_EEOT_OT0_, symObjAddr: 0x48A0, symBinAddr: 0x100008F00, symSize: 0x48 }
  - { offsetInCU: 0x167A5, offset: 0x1F127, size: 0x8, addend: 0x0, symName: __ZNSt3__122__compressed_pair_elemIRNS_9allocatorI15JobHistoryEntryEELi1ELb0EEC2B7v160006IS4_vEEOT_, symObjAddr: 0x48E8, symBinAddr: 0x100008F48, symSize: 0x20 }
  - { offsetInCU: 0x167E6, offset: 0x1F168, size: 0x8, addend: 0x0, symName: __ZNSt3__19allocatorI15JobHistoryEntryE8allocateB7v160006Em, symObjAddr: 0x4908, symBinAddr: 0x100008F68, symSize: 0x58 }
  - { offsetInCU: 0x16818, offset: 0x1F19A, size: 0x8, addend: 0x0, symName: __ZNSt3__117__compressed_pairIP15JobHistoryEntryRNS_9allocatorIS1_EEE6secondB7v160006Ev, symObjAddr: 0x4A44, symBinAddr: 0x1000090A4, symSize: 0x28 }
  - { offsetInCU: 0x1683C, offset: 0x1F1BE, size: 0x8, addend: 0x0, symName: __ZNSt3__122__compressed_pair_elemIRNS_9allocatorI15JobHistoryEntryEELi1ELb0EE5__getB7v160006Ev, symObjAddr: 0x4A6C, symBinAddr: 0x1000090CC, symSize: 0x18 }
  - { offsetInCU: 0x16860, offset: 0x1F1E2, size: 0x8, addend: 0x0, symName: __ZNSt3__117__compressed_pairIP15JobHistoryEntryRNS_9allocatorIS1_EEE5firstB7v160006Ev, symObjAddr: 0x4A84, symBinAddr: 0x1000090E4, symSize: 0x24 }
  - { offsetInCU: 0x16884, offset: 0x1F206, size: 0x8, addend: 0x0, symName: __ZNSt3__122__compressed_pair_elemIP15JobHistoryEntryLi0ELb0EE5__getB7v160006Ev, symObjAddr: 0x4AA8, symBinAddr: 0x100009108, symSize: 0x14 }
  - { offsetInCU: 0x168A8, offset: 0x1F22A, size: 0x8, addend: 0x0, symName: __ZNSt3__116reverse_iteratorIP15JobHistoryEntryEC1B7v160006ES2_, symObjAddr: 0x4B34, symBinAddr: 0x100009194, symSize: 0x34 }
  - { offsetInCU: 0x168DE, offset: 0x1F260, size: 0x8, addend: 0x0, symName: __ZNKSt3__116reverse_iteratorIP15JobHistoryEntryE4baseB7v160006Ev, symObjAddr: 0x4B68, symBinAddr: 0x1000091C8, symSize: 0x18 }
  - { offsetInCU: 0x16902, offset: 0x1F284, size: 0x8, addend: 0x0, symName: __ZNSt3__16vectorI15JobHistoryEntryNS_9allocatorIS1_EEE9__end_capB7v160006Ev, symObjAddr: 0x4BBC, symBinAddr: 0x10000921C, symSize: 0x28 }
  - { offsetInCU: 0x16926, offset: 0x1F2A8, size: 0x8, addend: 0x0, symName: __ZNKSt3__16vectorI15JobHistoryEntryNS_9allocatorIS1_EEE14__annotate_newB7v160006Em, symObjAddr: 0x4BE4, symBinAddr: 0x100009244, symSize: 0xAC }
  - { offsetInCU: 0x1697C, offset: 0x1F2FE, size: 0x8, addend: 0x0, symName: __ZNKSt3__111__move_loopINS_17_ClassicAlgPolicyEEclB7v160006INS_16reverse_iteratorIP15JobHistoryEntryEES7_S7_EENS_4pairIT_T1_EES9_T0_SA_, symObjAddr: 0x4F90, symBinAddr: 0x1000095F0, symSize: 0xA0 }
  - { offsetInCU: 0x169E5, offset: 0x1F367, size: 0x8, addend: 0x0, symName: __ZNSt3__18_IterOpsINS_17_ClassicAlgPolicyEE11__iter_moveB7v160006IRNS_16reverse_iteratorIP15JobHistoryEntryEEEENS_9enable_ifIXsr12is_referenceIDTdeclsr3stdE7declvalIRT_EEEEE5valueEDTclsr3stdE4movedeclsr3stdE7declvalISB_EEEEE4typeEOSA_, symObjAddr: 0x51C4, symBinAddr: 0x100009824, symSize: 0x28 }
  - { offsetInCU: 0x16A10, offset: 0x1F392, size: 0x8, addend: 0x0, symName: __ZNKSt3__116reverse_iteratorIP15JobHistoryEntryEdeB7v160006Ev, symObjAddr: 0x51EC, symBinAddr: 0x10000984C, symSize: 0x28 }
  - { offsetInCU: 0x16A42, offset: 0x1F3C4, size: 0x8, addend: 0x0, symName: __ZNSt3__116reverse_iteratorIP15JobHistoryEntryEppB7v160006Ev, symObjAddr: 0x5214, symBinAddr: 0x100009874, symSize: 0x20 }
  - { offsetInCU: 0x16A66, offset: 0x1F3E8, size: 0x8, addend: 0x0, symName: __ZNSt3__18_IterOpsINS_17_ClassicAlgPolicyEE25__validate_iter_referenceB7v160006IRNS_16reverse_iteratorIP15JobHistoryEntryEEEEvv, symObjAddr: 0x5234, symBinAddr: 0x100009894, symSize: 0x4 }
  - { offsetInCU: 0x16A83, offset: 0x1F405, size: 0x8, addend: 0x0, symName: __ZNSt3__118__unwrap_iter_implINS_16reverse_iteratorIP15JobHistoryEntryEELb0EE8__unwrapB7v160006ES4_, symObjAddr: 0x5238, symBinAddr: 0x100009898, symSize: 0x24 }
  - { offsetInCU: 0x16AAA, offset: 0x1F42C, size: 0x8, addend: 0x0, symName: __ZNSt3__14pairINS_16reverse_iteratorIP15JobHistoryEntryEES4_EC1B7v160006IS4_S4_LPv0EEEOT_OT0_, symObjAddr: 0x525C, symBinAddr: 0x1000098BC, symSize: 0x3C }
  - { offsetInCU: 0x16B07, offset: 0x1F489, size: 0x8, addend: 0x0, symName: __ZNSt3__14pairINS_16reverse_iteratorIP15JobHistoryEntryEES4_EC2B7v160006IS4_S4_LPv0EEEOT_OT0_, symObjAddr: 0x5298, symBinAddr: 0x1000098F8, symSize: 0x34 }
  - { offsetInCU: 0x16B64, offset: 0x1F4E6, size: 0x8, addend: 0x0, symName: __ZNSt3__118__unwrap_iter_implINS_16reverse_iteratorIP15JobHistoryEntryEELb0EE8__rewrapB7v160006ES4_S4_, symObjAddr: 0x52CC, symBinAddr: 0x10000992C, symSize: 0x2C }
  - { offsetInCU: 0x16B90, offset: 0x1F512, size: 0x8, addend: 0x0, symName: __ZNSt3__116reverse_iteratorIP15JobHistoryEntryEC2B7v160006ES2_, symObjAddr: 0x52F8, symBinAddr: 0x100009958, symSize: 0x28 }
  - { offsetInCU: 0x16BC6, offset: 0x1F548, size: 0x8, addend: 0x0, symName: __ZNSt3__117__compressed_pairIP15JobHistoryEntryNS_9allocatorIS1_EEE5firstB7v160006Ev, symObjAddr: 0x5320, symBinAddr: 0x100009980, symSize: 0x24 }
  - { offsetInCU: 0x16BEA, offset: 0x1F56C, size: 0x8, addend: 0x0, symName: __ZNSt3__114__split_bufferI15JobHistoryEntryRNS_9allocatorIS1_EEED2Ev, symObjAddr: 0x5344, symBinAddr: 0x1000099A4, symSize: 0x8C }
  - { offsetInCU: 0x16C15, offset: 0x1F597, size: 0x8, addend: 0x0, symName: __ZNSt3__114__split_bufferI15JobHistoryEntryRNS_9allocatorIS1_EEE5clearB7v160006Ev, symObjAddr: 0x53D0, symBinAddr: 0x100009A30, symSize: 0x28 }
  - { offsetInCU: 0x16C39, offset: 0x1F5BB, size: 0x8, addend: 0x0, symName: __ZNKSt3__114__split_bufferI15JobHistoryEntryRNS_9allocatorIS1_EEE8capacityB7v160006Ev, symObjAddr: 0x53F8, symBinAddr: 0x100009A58, symSize: 0x40 }
  - { offsetInCU: 0x16C5D, offset: 0x1F5DF, size: 0x8, addend: 0x0, symName: __ZNSt3__114__split_bufferI15JobHistoryEntryRNS_9allocatorIS1_EEE17__destruct_at_endB7v160006EPS1_, symObjAddr: 0x5438, symBinAddr: 0x100009A98, symSize: 0x2C }
  - { offsetInCU: 0x16C8F, offset: 0x1F611, size: 0x8, addend: 0x0, symName: __ZNSt3__114__split_bufferI15JobHistoryEntryRNS_9allocatorIS1_EEE17__destruct_at_endB7v160006EPS1_NS_17integral_constantIbLb0EEE, symObjAddr: 0x5464, symBinAddr: 0x100009AC4, symSize: 0x80 }
  - { offsetInCU: 0x16CCD, offset: 0x1F64F, size: 0x8, addend: 0x0, symName: __ZNKSt3__114__split_bufferI15JobHistoryEntryRNS_9allocatorIS1_EEE9__end_capB7v160006Ev, symObjAddr: 0x54E4, symBinAddr: 0x100009B44, symSize: 0x28 }
  - { offsetInCU: 0x16CF1, offset: 0x1F673, size: 0x8, addend: 0x0, symName: __ZNKSt3__117__compressed_pairIP15JobHistoryEntryRNS_9allocatorIS1_EEE5firstB7v160006Ev, symObjAddr: 0x550C, symBinAddr: 0x100009B6C, symSize: 0x24 }
  - { offsetInCU: 0x16D15, offset: 0x1F697, size: 0x8, addend: 0x0, symName: __ZNSt3__16vectorIP15JobWorkerThreadNS_9allocatorIS2_EEE17__destruct_at_endB7v160006EPS2_, symObjAddr: 0x5530, symBinAddr: 0x100009B90, symSize: 0x60 }
  - { offsetInCU: 0x16D57, offset: 0x1F6D9, size: 0x8, addend: 0x0, symName: __ZNSt3__16vectorIP15JobWorkerThreadNS_9allocatorIS2_EEE27__invalidate_iterators_pastB7v160006EPS2_, symObjAddr: 0x5590, symBinAddr: 0x100009BF0, symSize: 0x14 }
  - { offsetInCU: 0x16D8C, offset: 0x1F70E, size: 0x8, addend: 0x0, symName: __ZNKSt3__16vectorIP15JobWorkerThreadNS_9allocatorIS2_EEE17__annotate_shrinkB7v160006Em, symObjAddr: 0x55A4, symBinAddr: 0x100009C04, symSize: 0xB4 }
  - { offsetInCU: 0x16DBF, offset: 0x1F741, size: 0x8, addend: 0x0, symName: __ZNSt3__16vectorIP15JobWorkerThreadNS_9allocatorIS2_EEE9__end_capB7v160006Ev, symObjAddr: 0x5658, symBinAddr: 0x100009CB8, symSize: 0x28 }
  - { offsetInCU: 0x16DE3, offset: 0x1F765, size: 0x8, addend: 0x0, symName: __ZNSt3__16vectorIP15JobWorkerThreadNS_9allocatorIS2_EEE22__construct_one_at_endB7v160006IJRKS2_EEEvDpOT_, symObjAddr: 0x5680, symBinAddr: 0x100009CE0, symSize: 0x90 }
  - { offsetInCU: 0x16E31, offset: 0x1F7B3, size: 0x8, addend: 0x0, symName: __ZNSt3__16vectorIP15JobWorkerThreadNS_9allocatorIS2_EEE21__push_back_slow_pathIRKS2_EEvOT_, symObjAddr: 0x5710, symBinAddr: 0x100009D70, symSize: 0xD8 }
  - { offsetInCU: 0x16E8D, offset: 0x1F80F, size: 0x8, addend: 0x0, symName: __ZNSt3__117__compressed_pairIPP15JobWorkerThreadNS_9allocatorIS2_EEE5firstB7v160006Ev, symObjAddr: 0x57E8, symBinAddr: 0x100009E48, symSize: 0x24 }
  - { offsetInCU: 0x16EB1, offset: 0x1F833, size: 0x8, addend: 0x0, symName: __ZNSt3__122__compressed_pair_elemIPP15JobWorkerThreadLi0ELb0EE5__getB7v160006Ev, symObjAddr: 0x580C, symBinAddr: 0x100009E6C, symSize: 0x14 }
  - { offsetInCU: 0x16EEE, offset: 0x1F870, size: 0x8, addend: 0x0, symName: __ZNSt3__16vectorIP15JobWorkerThreadNS_9allocatorIS2_EEE21_ConstructTransactionC1B7v160006ERS5_m, symObjAddr: 0x5820, symBinAddr: 0x100009E80, symSize: 0x3C }
  - { offsetInCU: 0x16F34, offset: 0x1F8B6, size: 0x8, addend: 0x0, symName: __ZNSt3__116allocator_traitsINS_9allocatorIP15JobWorkerThreadEEE9constructB7v160006IS3_JRKS3_EvEEvRS4_PT_DpOT0_, symObjAddr: 0x585C, symBinAddr: 0x100009EBC, symSize: 0x34 }
  - { offsetInCU: 0x16F8C, offset: 0x1F90E, size: 0x8, addend: 0x0, symName: __ZNSt3__16vectorIP15JobWorkerThreadNS_9allocatorIS2_EEE21_ConstructTransactionD1B7v160006Ev, symObjAddr: 0x5890, symBinAddr: 0x100009EF0, symSize: 0x2C }
  - { offsetInCU: 0x16FB4, offset: 0x1F936, size: 0x8, addend: 0x0, symName: __ZNSt3__16vectorIP15JobWorkerThreadNS_9allocatorIS2_EEE21_ConstructTransactionC2B7v160006ERS5_m, symObjAddr: 0x58BC, symBinAddr: 0x100009F1C, symSize: 0x44 }
  - { offsetInCU: 0x16FFA, offset: 0x1F97C, size: 0x8, addend: 0x0, symName: __ZNSt3__19allocatorIP15JobWorkerThreadE9constructB7v160006IS2_JRKS2_EEEvPT_DpOT0_, symObjAddr: 0x5900, symBinAddr: 0x100009F60, symSize: 0x28 }
  - { offsetInCU: 0x1704F, offset: 0x1F9D1, size: 0x8, addend: 0x0, symName: __ZNSt3__16vectorIP15JobWorkerThreadNS_9allocatorIS2_EEE21_ConstructTransactionD2B7v160006Ev, symObjAddr: 0x5928, symBinAddr: 0x100009F88, symSize: 0x20 }
  - { offsetInCU: 0x17077, offset: 0x1F9F9, size: 0x8, addend: 0x0, symName: __ZNKSt3__16vectorIP15JobWorkerThreadNS_9allocatorIS2_EEE11__recommendB7v160006Em, symObjAddr: 0x5948, symBinAddr: 0x100009FA8, symSize: 0xB4 }
  - { offsetInCU: 0x170CA, offset: 0x1FA4C, size: 0x8, addend: 0x0, symName: __ZNSt3__114__split_bufferIP15JobWorkerThreadRNS_9allocatorIS2_EEEC1EmmS5_, symObjAddr: 0x59FC, symBinAddr: 0x10000A05C, symSize: 0x44 }
  - { offsetInCU: 0x1711F, offset: 0x1FAA1, size: 0x8, addend: 0x0, symName: __ZNSt3__114__split_bufferIP15JobWorkerThreadRNS_9allocatorIS2_EEED1Ev, symObjAddr: 0x5B58, symBinAddr: 0x10000A1B8, symSize: 0x2C }
  - { offsetInCU: 0x1714A, offset: 0x1FACC, size: 0x8, addend: 0x0, symName: __ZNKSt3__16vectorIP15JobWorkerThreadNS_9allocatorIS2_EEE8max_sizeEv, symObjAddr: 0x5B84, symBinAddr: 0x10000A1E4, symSize: 0x60 }
  - { offsetInCU: 0x17170, offset: 0x1FAF2, size: 0x8, addend: 0x0, symName: __ZNKSt3__16vectorIP15JobWorkerThreadNS_9allocatorIS2_EEE20__throw_length_errorB7v160006Ev, symObjAddr: 0x5BE4, symBinAddr: 0x10000A244, symSize: 0x1C }
  - { offsetInCU: 0x1719E, offset: 0x1FB20, size: 0x8, addend: 0x0, symName: __ZNSt3__116allocator_traitsINS_9allocatorIP15JobWorkerThreadEEE8max_sizeB7v160006IS4_vEEmRKS4_, symObjAddr: 0x5C2C, symBinAddr: 0x10000A28C, symSize: 0x24 }
  - { offsetInCU: 0x171CC, offset: 0x1FB4E, size: 0x8, addend: 0x0, symName: __ZNKSt3__16vectorIP15JobWorkerThreadNS_9allocatorIS2_EEE7__allocB7v160006Ev, symObjAddr: 0x5C50, symBinAddr: 0x10000A2B0, symSize: 0x28 }
  - { offsetInCU: 0x171F0, offset: 0x1FB72, size: 0x8, addend: 0x0, symName: __ZNKSt3__19allocatorIP15JobWorkerThreadE8max_sizeB7v160006Ev, symObjAddr: 0x5C78, symBinAddr: 0x10000A2D8, symSize: 0x14 }
  - { offsetInCU: 0x17214, offset: 0x1FB96, size: 0x8, addend: 0x0, symName: __ZNKSt3__117__compressed_pairIPP15JobWorkerThreadNS_9allocatorIS2_EEE6secondB7v160006Ev, symObjAddr: 0x5C8C, symBinAddr: 0x10000A2EC, symSize: 0x24 }
  - { offsetInCU: 0x17238, offset: 0x1FBBA, size: 0x8, addend: 0x0, symName: __ZNKSt3__122__compressed_pair_elemINS_9allocatorIP15JobWorkerThreadEELi1ELb1EE5__getB7v160006Ev, symObjAddr: 0x5CB0, symBinAddr: 0x10000A310, symSize: 0x14 }
  - { offsetInCU: 0x1725C, offset: 0x1FBDE, size: 0x8, addend: 0x0, symName: __ZNSt3__114__split_bufferIP15JobWorkerThreadRNS_9allocatorIS2_EEEC2EmmS5_, symObjAddr: 0x5D18, symBinAddr: 0x10000A378, symSize: 0xD4 }
  - { offsetInCU: 0x172CF, offset: 0x1FC51, size: 0x8, addend: 0x0, symName: __ZNSt3__117__compressed_pairIPP15JobWorkerThreadRNS_9allocatorIS2_EEEC1B7v160006IDnS6_EEOT_OT0_, symObjAddr: 0x5DEC, symBinAddr: 0x10000A44C, symSize: 0x3C }
  - { offsetInCU: 0x17325, offset: 0x1FCA7, size: 0x8, addend: 0x0, symName: __ZNSt3__114__split_bufferIP15JobWorkerThreadRNS_9allocatorIS2_EEE7__allocB7v160006Ev, symObjAddr: 0x5E68, symBinAddr: 0x10000A4C8, symSize: 0x28 }
  - { offsetInCU: 0x17349, offset: 0x1FCCB, size: 0x8, addend: 0x0, symName: __ZNSt3__114__split_bufferIP15JobWorkerThreadRNS_9allocatorIS2_EEE9__end_capB7v160006Ev, symObjAddr: 0x5E90, symBinAddr: 0x10000A4F0, symSize: 0x28 }
  - { offsetInCU: 0x1736D, offset: 0x1FCEF, size: 0x8, addend: 0x0, symName: __ZNSt3__117__compressed_pairIPP15JobWorkerThreadRNS_9allocatorIS2_EEEC2B7v160006IDnS6_EEOT_OT0_, symObjAddr: 0x5EB8, symBinAddr: 0x10000A518, symSize: 0x48 }
  - { offsetInCU: 0x173C3, offset: 0x1FD45, size: 0x8, addend: 0x0, symName: __ZNSt3__122__compressed_pair_elemIRNS_9allocatorIP15JobWorkerThreadEELi1ELb0EEC2B7v160006IS5_vEEOT_, symObjAddr: 0x5F00, symBinAddr: 0x10000A560, symSize: 0x20 }
  - { offsetInCU: 0x17404, offset: 0x1FD86, size: 0x8, addend: 0x0, symName: __ZNSt3__19allocatorIP15JobWorkerThreadE8allocateB7v160006Em, symObjAddr: 0x5F20, symBinAddr: 0x10000A580, symSize: 0x58 }
  - { offsetInCU: 0x17436, offset: 0x1FDB8, size: 0x8, addend: 0x0, symName: __ZNSt3__117__compressed_pairIPP15JobWorkerThreadRNS_9allocatorIS2_EEE6secondB7v160006Ev, symObjAddr: 0x5F78, symBinAddr: 0x10000A5D8, symSize: 0x28 }
  - { offsetInCU: 0x1745A, offset: 0x1FDDC, size: 0x8, addend: 0x0, symName: __ZNSt3__122__compressed_pair_elemIRNS_9allocatorIP15JobWorkerThreadEELi1ELb0EE5__getB7v160006Ev, symObjAddr: 0x5FA0, symBinAddr: 0x10000A600, symSize: 0x18 }
  - { offsetInCU: 0x1747E, offset: 0x1FE00, size: 0x8, addend: 0x0, symName: __ZNSt3__117__compressed_pairIPP15JobWorkerThreadRNS_9allocatorIS2_EEE5firstB7v160006Ev, symObjAddr: 0x5FB8, symBinAddr: 0x10000A618, symSize: 0x24 }
  - { offsetInCU: 0x174A2, offset: 0x1FE24, size: 0x8, addend: 0x0, symName: __ZNSt3__116reverse_iteratorIPP15JobWorkerThreadEC1B7v160006ES3_, symObjAddr: 0x6054, symBinAddr: 0x10000A6B4, symSize: 0x34 }
  - { offsetInCU: 0x174D8, offset: 0x1FE5A, size: 0x8, addend: 0x0, symName: __ZNKSt3__116reverse_iteratorIPP15JobWorkerThreadE4baseB7v160006Ev, symObjAddr: 0x6088, symBinAddr: 0x10000A6E8, symSize: 0x18 }
  - { offsetInCU: 0x174FC, offset: 0x1FE7E, size: 0x8, addend: 0x0, symName: __ZNKSt3__16vectorIP15JobWorkerThreadNS_9allocatorIS2_EEE14__annotate_newB7v160006Em, symObjAddr: 0x60DC, symBinAddr: 0x10000A73C, symSize: 0xAC }
  - { offsetInCU: 0x17548, offset: 0x1FECA, size: 0x8, addend: 0x0, symName: __ZNKSt3__111__move_loopINS_17_ClassicAlgPolicyEEclB7v160006INS_16reverse_iteratorIPP15JobWorkerThreadEES8_S8_EENS_4pairIT_T1_EESA_T0_SB_, symObjAddr: 0x6488, symBinAddr: 0x10000AAE8, symSize: 0xA0 }
  - { offsetInCU: 0x175B6, offset: 0x1FF38, size: 0x8, addend: 0x0, symName: __ZNSt3__18_IterOpsINS_17_ClassicAlgPolicyEE11__iter_moveB7v160006IRNS_16reverse_iteratorIPP15JobWorkerThreadEEEENS_9enable_ifIXsr12is_referenceIDTdeclsr3stdE7declvalIRT_EEEEE5valueEDTclsr3stdE4movedeclsr3stdE7declvalISC_EEEEE4typeEOSB_, symObjAddr: 0x66BC, symBinAddr: 0x10000AD1C, symSize: 0x28 }
  - { offsetInCU: 0x175E1, offset: 0x1FF63, size: 0x8, addend: 0x0, symName: __ZNKSt3__116reverse_iteratorIPP15JobWorkerThreadEdeB7v160006Ev, symObjAddr: 0x66E4, symBinAddr: 0x10000AD44, symSize: 0x28 }
  - { offsetInCU: 0x17613, offset: 0x1FF95, size: 0x8, addend: 0x0, symName: __ZNSt3__116reverse_iteratorIPP15JobWorkerThreadEppB7v160006Ev, symObjAddr: 0x670C, symBinAddr: 0x10000AD6C, symSize: 0x20 }
  - { offsetInCU: 0x17637, offset: 0x1FFB9, size: 0x8, addend: 0x0, symName: __ZNSt3__18_IterOpsINS_17_ClassicAlgPolicyEE25__validate_iter_referenceB7v160006IRNS_16reverse_iteratorIPP15JobWorkerThreadEEEEvv, symObjAddr: 0x672C, symBinAddr: 0x10000AD8C, symSize: 0x4 }
  - { offsetInCU: 0x17654, offset: 0x1FFD6, size: 0x8, addend: 0x0, symName: __ZNSt3__118__unwrap_iter_implINS_16reverse_iteratorIPP15JobWorkerThreadEELb0EE8__unwrapB7v160006ES5_, symObjAddr: 0x6730, symBinAddr: 0x10000AD90, symSize: 0x24 }
  - { offsetInCU: 0x1767B, offset: 0x1FFFD, size: 0x8, addend: 0x0, symName: __ZNSt3__14pairINS_16reverse_iteratorIPP15JobWorkerThreadEES5_EC1B7v160006IS5_S5_LPv0EEEOT_OT0_, symObjAddr: 0x6754, symBinAddr: 0x10000ADB4, symSize: 0x3C }
  - { offsetInCU: 0x176D8, offset: 0x2005A, size: 0x8, addend: 0x0, symName: __ZNSt3__14pairINS_16reverse_iteratorIPP15JobWorkerThreadEES5_EC2B7v160006IS5_S5_LPv0EEEOT_OT0_, symObjAddr: 0x6790, symBinAddr: 0x10000ADF0, symSize: 0x34 }
  - { offsetInCU: 0x17735, offset: 0x200B7, size: 0x8, addend: 0x0, symName: __ZNSt3__118__unwrap_iter_implINS_16reverse_iteratorIPP15JobWorkerThreadEELb0EE8__rewrapB7v160006ES5_S5_, symObjAddr: 0x67C4, symBinAddr: 0x10000AE24, symSize: 0x2C }
  - { offsetInCU: 0x17761, offset: 0x200E3, size: 0x8, addend: 0x0, symName: __ZNSt3__116reverse_iteratorIPP15JobWorkerThreadEC2B7v160006ES3_, symObjAddr: 0x67F0, symBinAddr: 0x10000AE50, symSize: 0x28 }
  - { offsetInCU: 0x17797, offset: 0x20119, size: 0x8, addend: 0x0, symName: __ZNSt3__114__split_bufferIP15JobWorkerThreadRNS_9allocatorIS2_EEED2Ev, symObjAddr: 0x6818, symBinAddr: 0x10000AE78, symSize: 0x8C }
  - { offsetInCU: 0x177C2, offset: 0x20144, size: 0x8, addend: 0x0, symName: __ZNSt3__114__split_bufferIP15JobWorkerThreadRNS_9allocatorIS2_EEE5clearB7v160006Ev, symObjAddr: 0x68A4, symBinAddr: 0x10000AF04, symSize: 0x28 }
  - { offsetInCU: 0x177E6, offset: 0x20168, size: 0x8, addend: 0x0, symName: __ZNKSt3__114__split_bufferIP15JobWorkerThreadRNS_9allocatorIS2_EEE8capacityB7v160006Ev, symObjAddr: 0x68CC, symBinAddr: 0x10000AF2C, symSize: 0x40 }
  - { offsetInCU: 0x1780A, offset: 0x2018C, size: 0x8, addend: 0x0, symName: __ZNSt3__114__split_bufferIP15JobWorkerThreadRNS_9allocatorIS2_EEE17__destruct_at_endB7v160006EPS2_, symObjAddr: 0x690C, symBinAddr: 0x10000AF6C, symSize: 0x2C }
  - { offsetInCU: 0x1783C, offset: 0x201BE, size: 0x8, addend: 0x0, symName: __ZNSt3__114__split_bufferIP15JobWorkerThreadRNS_9allocatorIS2_EEE17__destruct_at_endB7v160006EPS2_NS_17integral_constantIbLb0EEE, symObjAddr: 0x6938, symBinAddr: 0x10000AF98, symSize: 0x80 }
  - { offsetInCU: 0x1787A, offset: 0x201FC, size: 0x8, addend: 0x0, symName: __ZNKSt3__114__split_bufferIP15JobWorkerThreadRNS_9allocatorIS2_EEE9__end_capB7v160006Ev, symObjAddr: 0x69B8, symBinAddr: 0x10000B018, symSize: 0x28 }
  - { offsetInCU: 0x1789E, offset: 0x20220, size: 0x8, addend: 0x0, symName: __ZNKSt3__117__compressed_pairIPP15JobWorkerThreadRNS_9allocatorIS2_EEE5firstB7v160006Ev, symObjAddr: 0x69E0, symBinAddr: 0x10000B040, symSize: 0x24 }
  - { offsetInCU: 0x178C2, offset: 0x20244, size: 0x8, addend: 0x0, symName: __ZNSt3__16vectorIP15JobWorkerThreadNS_9allocatorIS2_EEE11__make_iterB7v160006EPS2_, symObjAddr: 0x6A04, symBinAddr: 0x10000B064, symSize: 0x34 }
  - { offsetInCU: 0x178F5, offset: 0x20277, size: 0x8, addend: 0x0, symName: __ZNSt3__111__wrap_iterIPP15JobWorkerThreadEC1B7v160006EPKvS3_, symObjAddr: 0x6A38, symBinAddr: 0x10000B098, symSize: 0x3C }
  - { offsetInCU: 0x17939, offset: 0x202BB, size: 0x8, addend: 0x0, symName: __ZNSt3__111__wrap_iterIPP15JobWorkerThreadEC2B7v160006EPKvS3_, symObjAddr: 0x6A74, symBinAddr: 0x10000B0D4, symSize: 0x24 }
  - { offsetInCU: 0x1797D, offset: 0x202FF, size: 0x8, addend: 0x0, symName: __ZNKSt3__16vectorIP15JobWorkerThreadNS_9allocatorIS2_EEE6cbeginB7v160006Ev, symObjAddr: 0x6AE0, symBinAddr: 0x10000B140, symSize: 0x2C }
  - { offsetInCU: 0x179A1, offset: 0x20323, size: 0x8, addend: 0x0, symName: __ZNKSt3__111__wrap_iterIPKP15JobWorkerThreadE4baseB7v160006Ev, symObjAddr: 0x6B4C, symBinAddr: 0x10000B1AC, symSize: 0x18 }
  - { offsetInCU: 0x179C5, offset: 0x20347, size: 0x8, addend: 0x0, symName: __ZNKSt3__16vectorIP15JobWorkerThreadNS_9allocatorIS2_EEE5beginB7v160006Ev, symObjAddr: 0x6B64, symBinAddr: 0x10000B1C4, symSize: 0x30 }
  - { offsetInCU: 0x179EB, offset: 0x2036D, size: 0x8, addend: 0x0, symName: __ZNKSt3__16vectorIP15JobWorkerThreadNS_9allocatorIS2_EEE11__make_iterB7v160006EPKS2_, symObjAddr: 0x6B94, symBinAddr: 0x10000B1F4, symSize: 0x34 }
  - { offsetInCU: 0x17A1E, offset: 0x203A0, size: 0x8, addend: 0x0, symName: __ZNSt3__111__wrap_iterIPKP15JobWorkerThreadEC1B7v160006EPKvS4_, symObjAddr: 0x6BC8, symBinAddr: 0x10000B228, symSize: 0x3C }
  - { offsetInCU: 0x17A62, offset: 0x203E4, size: 0x8, addend: 0x0, symName: __ZNSt3__111__wrap_iterIPKP15JobWorkerThreadEC2B7v160006EPKvS4_, symObjAddr: 0x6C04, symBinAddr: 0x10000B264, symSize: 0x24 }
  - { offsetInCU: 0x17AC9, offset: 0x2044B, size: 0x8, addend: 0x0, symName: __ZNKSt3__114__move_trivialclB7v160006IP15JobWorkerThreadS3_Li0EEENS_4pairIPT_PT0_EES6_S6_S8_, symObjAddr: 0x6DC4, symBinAddr: 0x10000B424, symSize: 0x48 }
  - { offsetInCU: 0x17B35, offset: 0x204B7, size: 0x8, addend: 0x0, symName: __ZNSt3__14pairIPP15JobWorkerThreadS3_EC1B7v160006IRS3_S3_LPv0EEEOT_OT0_, symObjAddr: 0x6F8C, symBinAddr: 0x10000B5EC, symSize: 0x3C }
  - { offsetInCU: 0x17B92, offset: 0x20514, size: 0x8, addend: 0x0, symName: __ZNSt3__14pairIPP15JobWorkerThreadS3_EC2B7v160006IRS3_S3_LPv0EEEOT_OT0_, symObjAddr: 0x6FC8, symBinAddr: 0x10000B628, symSize: 0x34 }
  - { offsetInCU: 0x17BEF, offset: 0x20571, size: 0x8, addend: 0x0, symName: __ZNSt3__118__unwrap_iter_implIPP15JobWorkerThreadLb1EE8__unwrapB7v160006ES3_, symObjAddr: 0x6FFC, symBinAddr: 0x10000B65C, symSize: 0x24 }
  - { offsetInCU: 0x17C11, offset: 0x20593, size: 0x8, addend: 0x0, symName: __ZNSt3__14pairIPP15JobWorkerThreadS3_EC1B7v160006IS3_S3_LPv0EEEOT_OT0_, symObjAddr: 0x7020, symBinAddr: 0x10000B680, symSize: 0x3C }
  - { offsetInCU: 0x17C6E, offset: 0x205F0, size: 0x8, addend: 0x0, symName: __ZNSt3__14pairIPP15JobWorkerThreadS3_EC2B7v160006IS3_S3_LPv0EEEOT_OT0_, symObjAddr: 0x705C, symBinAddr: 0x10000B6BC, symSize: 0x34 }
  - { offsetInCU: 0x17CCB, offset: 0x2064D, size: 0x8, addend: 0x0, symName: __ZNSt3__118__unwrap_iter_implIPP15JobWorkerThreadLb1EE8__rewrapB7v160006ES3_S3_, symObjAddr: 0x7090, symBinAddr: 0x10000B6F0, symSize: 0x50 }
  - { offsetInCU: 0x17CFB, offset: 0x2067D, size: 0x8, addend: 0x0, symName: __ZNSt3__16vectorI15JobHistoryEntryNS_9allocatorIS1_EEE22__construct_one_at_endB7v160006IJS1_EEEvDpOT_, symObjAddr: 0x70E0, symBinAddr: 0x10000B740, symSize: 0x90 }
  - { offsetInCU: 0x17D49, offset: 0x206CB, size: 0x8, addend: 0x0, symName: __ZNSt3__16vectorI15JobHistoryEntryNS_9allocatorIS1_EEE24__emplace_back_slow_pathIJS1_EEEvDpOT_, symObjAddr: 0x7170, symBinAddr: 0x10000B7D0, symSize: 0xD8 }
  - { offsetInCU: 0x17DA8, offset: 0x2072A, size: 0x8, addend: 0x0, symName: __ZNSt3__16vectorI15JobHistoryEntryNS_9allocatorIS1_EEE4backB7v160006Ev, symObjAddr: 0x7248, symBinAddr: 0x10000B8A8, symSize: 0x1C }
  - { offsetInCU: 0x17DE5, offset: 0x20767, size: 0x8, addend: 0x0, symName: __ZNSt3__16vectorI15JobHistoryEntryNS_9allocatorIS1_EEE21_ConstructTransactionC1B7v160006ERS4_m, symObjAddr: 0x7264, symBinAddr: 0x10000B8C4, symSize: 0x3C }
  - { offsetInCU: 0x17E2B, offset: 0x207AD, size: 0x8, addend: 0x0, symName: __ZNSt3__116allocator_traitsINS_9allocatorI15JobHistoryEntryEEE9constructB7v160006IS2_JS2_EvEEvRS3_PT_DpOT0_, symObjAddr: 0x72A0, symBinAddr: 0x10000B900, symSize: 0x34 }
  - { offsetInCU: 0x17E83, offset: 0x20805, size: 0x8, addend: 0x0, symName: __ZNSt3__16vectorI15JobHistoryEntryNS_9allocatorIS1_EEE21_ConstructTransactionD1B7v160006Ev, symObjAddr: 0x72D4, symBinAddr: 0x10000B934, symSize: 0x2C }
  - { offsetInCU: 0x17EAB, offset: 0x2082D, size: 0x8, addend: 0x0, symName: __ZNSt3__16vectorI15JobHistoryEntryNS_9allocatorIS1_EEE21_ConstructTransactionC2B7v160006ERS4_m, symObjAddr: 0x7300, symBinAddr: 0x10000B960, symSize: 0x44 }
  - { offsetInCU: 0x17EF1, offset: 0x20873, size: 0x8, addend: 0x0, symName: __ZNSt3__19allocatorI15JobHistoryEntryE9constructB7v160006IS1_JS1_EEEvPT_DpOT0_, symObjAddr: 0x7344, symBinAddr: 0x10000B9A4, symSize: 0x28 }
  - { offsetInCU: 0x17F46, offset: 0x208C8, size: 0x8, addend: 0x0, symName: __ZNSt3__16vectorI15JobHistoryEntryNS_9allocatorIS1_EEE21_ConstructTransactionD2B7v160006Ev, symObjAddr: 0x736C, symBinAddr: 0x10000B9CC, symSize: 0x20 }
  - { offsetInCU: 0x17F6E, offset: 0x208F0, size: 0x8, addend: 0x0, symName: __ZNKSt3__16vectorI15JobHistoryEntryNS_9allocatorIS1_EEE11__recommendB7v160006Em, symObjAddr: 0x738C, symBinAddr: 0x10000B9EC, symSize: 0xB4 }
  - { offsetInCU: 0x17FC1, offset: 0x20943, size: 0x8, addend: 0x0, symName: __ZNKSt3__15dequeIP3JobNS_9allocatorIS2_EEE12__back_spareB7v160006Ev, symObjAddr: 0x7440, symBinAddr: 0x10000BAA0, symSize: 0x54 }
  - { offsetInCU: 0x17FE5, offset: 0x20967, size: 0x8, addend: 0x0, symName: __ZNSt3__15dequeIP3JobNS_9allocatorIS2_EEE19__add_back_capacityEv, symObjAddr: 0x7494, symBinAddr: 0x10000BAF4, symSize: 0x314 }
  - { offsetInCU: 0x1809B, offset: 0x20A1D, size: 0x8, addend: 0x0, symName: __ZNSt3__116allocator_traitsINS_9allocatorIP3JobEEE9constructB7v160006IS3_JRKS3_EvEEvRS4_PT_DpOT0_, symObjAddr: 0x77A8, symBinAddr: 0x10000BE08, symSize: 0x34 }
  - { offsetInCU: 0x180F3, offset: 0x20A75, size: 0x8, addend: 0x0, symName: __ZNKSt3__15dequeIP3JobNS_9allocatorIS2_EEE10__capacityB7v160006Ev, symObjAddr: 0x77DC, symBinAddr: 0x10000BE3C, symSize: 0x60 }
  - { offsetInCU: 0x18117, offset: 0x20A99, size: 0x8, addend: 0x0, symName: __ZNKSt3__15dequeIP3JobNS_9allocatorIS2_EEE4sizeB7v160006Ev, symObjAddr: 0x783C, symBinAddr: 0x10000BE9C, symSize: 0x28 }
  - { offsetInCU: 0x1813B, offset: 0x20ABD, size: 0x8, addend: 0x0, symName: __ZNKSt3__15dequeIP3JobNS_9allocatorIS2_EEE6__sizeB7v160006Ev, symObjAddr: 0x7864, symBinAddr: 0x10000BEC4, symSize: 0x28 }
  - { offsetInCU: 0x1815F, offset: 0x20AE1, size: 0x8, addend: 0x0, symName: __ZNKSt3__117__compressed_pairImNS_9allocatorIP3JobEEE5firstB7v160006Ev, symObjAddr: 0x788C, symBinAddr: 0x10000BEEC, symSize: 0x24 }
  - { offsetInCU: 0x18183, offset: 0x20B05, size: 0x8, addend: 0x0, symName: __ZNKSt3__122__compressed_pair_elemImLi0ELb0EE5__getB7v160006Ev, symObjAddr: 0x78B0, symBinAddr: 0x10000BF10, symSize: 0x14 }
  - { offsetInCU: 0x181A7, offset: 0x20B29, size: 0x8, addend: 0x0, symName: __ZNKSt3__15dequeIP3JobNS_9allocatorIS2_EEE13__front_spareB7v160006Ev, symObjAddr: 0x78C4, symBinAddr: 0x10000BF24, symSize: 0x18 }
  - { offsetInCU: 0x181CB, offset: 0x20B4D, size: 0x8, addend: 0x0, symName: __ZNSt3__114__split_bufferIPP3JobNS_9allocatorIS3_EEE9push_backB7v160006ERKS3_, symObjAddr: 0x78DC, symBinAddr: 0x10000BF3C, symSize: 0x260 }
  - { offsetInCU: 0x18242, offset: 0x20BC4, size: 0x8, addend: 0x0, symName: __ZNKSt3__114__split_bufferIPP3JobNS_9allocatorIS3_EEE12__back_spareB7v160006Ev, symObjAddr: 0x7B3C, symBinAddr: 0x10000C19C, symSize: 0x40 }
  - { offsetInCU: 0x18266, offset: 0x20BE8, size: 0x8, addend: 0x0, symName: __ZNSt3__114__split_bufferIPP3JobNS_9allocatorIS3_EEE9push_backEOS3_, symObjAddr: 0x7B7C, symBinAddr: 0x10000C1DC, symSize: 0x260 }
  - { offsetInCU: 0x182DD, offset: 0x20C5F, size: 0x8, addend: 0x0, symName: __ZNSt3__116allocator_traitsINS_9allocatorIP3JobEEE8allocateB7v160006ERS4_m, symObjAddr: 0x7DDC, symBinAddr: 0x10000C43C, symSize: 0x2C }
  - { offsetInCU: 0x1830F, offset: 0x20C91, size: 0x8, addend: 0x0, symName: __ZNSt3__114__split_bufferIPP3JobNS_9allocatorIS3_EEE10push_frontEOS3_, symObjAddr: 0x7E08, symBinAddr: 0x10000C468, symSize: 0x25C }
  - { offsetInCU: 0x18386, offset: 0x20D08, size: 0x8, addend: 0x0, symName: __ZNSt3__114__split_bufferIPP3JobRNS_9allocatorIS3_EEEC1EmmS6_, symObjAddr: 0x8064, symBinAddr: 0x10000C6C4, symSize: 0x44 }
  - { offsetInCU: 0x183E0, offset: 0x20D62, size: 0x8, addend: 0x0, symName: __ZNSt3__122__allocator_destructorINS_9allocatorIP3JobEEEC1B7v160006ERS4_m, symObjAddr: 0x80A8, symBinAddr: 0x10000C708, symSize: 0x3C }
  - { offsetInCU: 0x184A1, offset: 0x20E23, size: 0x8, addend: 0x0, symName: __ZNSt3__110unique_ptrIPP3JobNS_22__allocator_destructorINS_9allocatorIS2_EEEEEC1B7v160006ILb1EvEES3_NS_16__dependent_typeINS_27__unique_ptr_deleter_sfinaeIS7_EEXT_EE20__good_rval_ref_typeE, symObjAddr: 0x80E4, symBinAddr: 0x10000C744, symSize: 0x3C }
  - { offsetInCU: 0x184F1, offset: 0x20E73, size: 0x8, addend: 0x0, symName: __ZNSt3__114__split_bufferIPP3JobRNS_9allocatorIS3_EEE9push_backEOS3_, symObjAddr: 0x8120, symBinAddr: 0x10000C780, symSize: 0x260 }
  - { offsetInCU: 0x18568, offset: 0x20EEA, size: 0x8, addend: 0x0, symName: __ZNKSt3__110unique_ptrIPP3JobNS_22__allocator_destructorINS_9allocatorIS2_EEEEE3getB7v160006Ev, symObjAddr: 0x8380, symBinAddr: 0x10000C9E0, symSize: 0x28 }
  - { offsetInCU: 0x1858C, offset: 0x20F0E, size: 0x8, addend: 0x0, symName: __ZNSt3__110unique_ptrIPP3JobNS_22__allocator_destructorINS_9allocatorIS2_EEEEE7releaseB7v160006Ev, symObjAddr: 0x83A8, symBinAddr: 0x10000CA08, symSize: 0x44 }
  - { offsetInCU: 0x185BF, offset: 0x20F41, size: 0x8, addend: 0x0, symName: __ZNSt3__114__split_bufferIPP3JobRNS_9allocatorIS3_EEE10push_frontERKS3_, symObjAddr: 0x83EC, symBinAddr: 0x10000CA4C, symSize: 0x25C }
  - { offsetInCU: 0x18636, offset: 0x20FB8, size: 0x8, addend: 0x0, symName: __ZNSt3__114__split_bufferIPP3JobNS_9allocatorIS3_EEE9__end_capB7v160006Ev, symObjAddr: 0x8684, symBinAddr: 0x10000CCE4, symSize: 0x28 }
  - { offsetInCU: 0x1865A, offset: 0x20FDC, size: 0x8, addend: 0x0, symName: __ZNSt3__114__split_bufferIPP3JobRNS_9allocatorIS3_EEE9__end_capB7v160006Ev, symObjAddr: 0x86AC, symBinAddr: 0x10000CD0C, symSize: 0x28 }
  - { offsetInCU: 0x1867E, offset: 0x21000, size: 0x8, addend: 0x0, symName: __ZNSt3__110unique_ptrIPP3JobNS_22__allocator_destructorINS_9allocatorIS2_EEEEED1B7v160006Ev, symObjAddr: 0x86D4, symBinAddr: 0x10000CD34, symSize: 0x2C }
  - { offsetInCU: 0x186A6, offset: 0x21028, size: 0x8, addend: 0x0, symName: __ZNSt3__114__split_bufferIPP3JobRNS_9allocatorIS3_EEED1Ev, symObjAddr: 0x8700, symBinAddr: 0x10000CD60, symSize: 0x2C }
  - { offsetInCU: 0x186D1, offset: 0x21053, size: 0x8, addend: 0x0, symName: __ZNSt3__114__split_bufferIPP3JobRNS_9allocatorIS3_EEE18__construct_at_endINS_13move_iteratorIPS3_EEEENS_9enable_ifIXsr27__is_cpp17_forward_iteratorIT_EE5valueEvE4typeESD_SD_, symObjAddr: 0x876C, symBinAddr: 0x10000CDCC, symSize: 0xFC }
  - { offsetInCU: 0x1872B, offset: 0x210AD, size: 0x8, addend: 0x0, symName: __ZNSt3__113move_iteratorIPPP3JobEC1B7v160006ES4_, symObjAddr: 0x8868, symBinAddr: 0x10000CEC8, symSize: 0x34 }
  - { offsetInCU: 0x18761, offset: 0x210E3, size: 0x8, addend: 0x0, symName: __ZNSt3__116allocator_traitsINS_9allocatorIPP3JobEEE9constructB7v160006IS4_JRKS4_EvEEvRS5_PT_DpOT0_, symObjAddr: 0x889C, symBinAddr: 0x10000CEFC, symSize: 0x34 }
  - { offsetInCU: 0x187D2, offset: 0x21154, size: 0x8, addend: 0x0, symName: __ZNKSt3__114__move_trivialclB7v160006IPP3JobS4_Li0EEENS_4pairIPT_PT0_EES7_S7_S9_, symObjAddr: 0x8A6C, symBinAddr: 0x10000D0CC, symSize: 0x48 }
  - { offsetInCU: 0x1883E, offset: 0x211C0, size: 0x8, addend: 0x0, symName: __ZNSt3__14pairIPPP3JobS4_EC1B7v160006IRS4_S4_LPv0EEEOT_OT0_, symObjAddr: 0x8C34, symBinAddr: 0x10000D294, symSize: 0x3C }
  - { offsetInCU: 0x1889B, offset: 0x2121D, size: 0x8, addend: 0x0, symName: __ZNSt3__14pairIPPP3JobS4_EC2B7v160006IRS4_S4_LPv0EEEOT_OT0_, symObjAddr: 0x8C70, symBinAddr: 0x10000D2D0, symSize: 0x34 }
  - { offsetInCU: 0x188F8, offset: 0x2127A, size: 0x8, addend: 0x0, symName: __ZNSt3__118__unwrap_iter_implIPPP3JobLb1EE8__unwrapB7v160006ES4_, symObjAddr: 0x8CA4, symBinAddr: 0x10000D304, symSize: 0x24 }
  - { offsetInCU: 0x1891A, offset: 0x2129C, size: 0x8, addend: 0x0, symName: __ZNSt3__14pairIPPP3JobS4_EC1B7v160006IS4_S4_LPv0EEEOT_OT0_, symObjAddr: 0x8CC8, symBinAddr: 0x10000D328, symSize: 0x3C }
  - { offsetInCU: 0x18977, offset: 0x212F9, size: 0x8, addend: 0x0, symName: __ZNSt3__14pairIPPP3JobS4_EC2B7v160006IS4_S4_LPv0EEEOT_OT0_, symObjAddr: 0x8D04, symBinAddr: 0x10000D364, symSize: 0x34 }
  - { offsetInCU: 0x189D4, offset: 0x21356, size: 0x8, addend: 0x0, symName: __ZNSt3__118__unwrap_iter_implIPPP3JobLb1EE8__rewrapB7v160006ES4_S4_, symObjAddr: 0x8D38, symBinAddr: 0x10000D398, symSize: 0x50 }
  - { offsetInCU: 0x18A0E, offset: 0x21390, size: 0x8, addend: 0x0, symName: __ZNSt3__114__split_bufferIPP3JobRNS_9allocatorIS3_EEE21_ConstructTransactionC1B7v160006EPPS3_m, symObjAddr: 0x8DC4, symBinAddr: 0x10000D424, symSize: 0x3C }
  - { offsetInCU: 0x18A52, offset: 0x213D4, size: 0x8, addend: 0x0, symName: __ZNSt3__116allocator_traitsINS_9allocatorIPP3JobEEE9constructB7v160006IS4_JS4_EvEEvRS5_PT_DpOT0_, symObjAddr: 0x8E00, symBinAddr: 0x10000D460, symSize: 0x34 }
  - { offsetInCU: 0x18AAA, offset: 0x2142C, size: 0x8, addend: 0x0, symName: __ZNSt3__114__split_bufferIPP3JobRNS_9allocatorIS3_EEE7__allocB7v160006Ev, symObjAddr: 0x8E34, symBinAddr: 0x10000D494, symSize: 0x28 }
  - { offsetInCU: 0x18ACE, offset: 0x21450, size: 0x8, addend: 0x0, symName: __ZNKSt3__113move_iteratorIPPP3JobEdeB7v160006Ev, symObjAddr: 0x8E5C, symBinAddr: 0x10000D4BC, symSize: 0x18 }
  - { offsetInCU: 0x18AF2, offset: 0x21474, size: 0x8, addend: 0x0, symName: __ZNSt3__113move_iteratorIPPP3JobEppB7v160006Ev, symObjAddr: 0x8E74, symBinAddr: 0x10000D4D4, symSize: 0x20 }
  - { offsetInCU: 0x18B16, offset: 0x21498, size: 0x8, addend: 0x0, symName: __ZNSt3__114__split_bufferIPP3JobRNS_9allocatorIS3_EEE21_ConstructTransactionD1B7v160006Ev, symObjAddr: 0x8E94, symBinAddr: 0x10000D4F4, symSize: 0x2C }
  - { offsetInCU: 0x18B3E, offset: 0x214C0, size: 0x8, addend: 0x0, symName: __ZNKSt3__113move_iteratorIPPP3JobE4baseB7v160006Ev, symObjAddr: 0x8F38, symBinAddr: 0x10000D598, symSize: 0x18 }
  - { offsetInCU: 0x18B62, offset: 0x214E4, size: 0x8, addend: 0x0, symName: __ZNSt3__114__split_bufferIPP3JobRNS_9allocatorIS3_EEE21_ConstructTransactionC2B7v160006EPPS3_m, symObjAddr: 0x8F50, symBinAddr: 0x10000D5B0, symSize: 0x44 }
  - { offsetInCU: 0x18BA6, offset: 0x21528, size: 0x8, addend: 0x0, symName: __ZNSt3__19allocatorIPP3JobE9constructB7v160006IS3_JS3_EEEvPT_DpOT0_, symObjAddr: 0x8F94, symBinAddr: 0x10000D5F4, symSize: 0x28 }
  - { offsetInCU: 0x18BFB, offset: 0x2157D, size: 0x8, addend: 0x0, symName: __ZNSt3__117__compressed_pairIPPP3JobRNS_9allocatorIS3_EEE6secondB7v160006Ev, symObjAddr: 0x8FBC, symBinAddr: 0x10000D61C, symSize: 0x28 }
  - { offsetInCU: 0x18C1F, offset: 0x215A1, size: 0x8, addend: 0x0, symName: __ZNSt3__122__compressed_pair_elemIRNS_9allocatorIPP3JobEELi1ELb0EE5__getB7v160006Ev, symObjAddr: 0x8FE4, symBinAddr: 0x10000D644, symSize: 0x18 }
  - { offsetInCU: 0x18C43, offset: 0x215C5, size: 0x8, addend: 0x0, symName: __ZNSt3__114__split_bufferIPP3JobRNS_9allocatorIS3_EEE21_ConstructTransactionD2B7v160006Ev, symObjAddr: 0x8FFC, symBinAddr: 0x10000D65C, symSize: 0x20 }
  - { offsetInCU: 0x18C6B, offset: 0x215ED, size: 0x8, addend: 0x0, symName: __ZNSt3__113move_iteratorIPPP3JobEC2B7v160006ES4_, symObjAddr: 0x901C, symBinAddr: 0x10000D67C, symSize: 0x20 }
  - { offsetInCU: 0x18CA1, offset: 0x21623, size: 0x8, addend: 0x0, symName: __ZNSt3__19allocatorIPP3JobE9constructB7v160006IS3_JRKS3_EEEvPT_DpOT0_, symObjAddr: 0x903C, symBinAddr: 0x10000D69C, symSize: 0x28 }
  - { offsetInCU: 0x18CF6, offset: 0x21678, size: 0x8, addend: 0x0, symName: __ZNSt3__19allocatorIP3JobE8allocateB7v160006Em, symObjAddr: 0x9064, symBinAddr: 0x10000D6C4, symSize: 0x58 }
  - { offsetInCU: 0x18D32, offset: 0x216B4, size: 0x8, addend: 0x0, symName: __ZNSt3__116allocator_traitsINS_9allocatorIP3JobEEE8max_sizeB7v160006IS4_vEEmRKS4_, symObjAddr: 0x90BC, symBinAddr: 0x10000D71C, symSize: 0x24 }
  - { offsetInCU: 0x18D60, offset: 0x216E2, size: 0x8, addend: 0x0, symName: __ZNKSt3__19allocatorIP3JobE8max_sizeB7v160006Ev, symObjAddr: 0x90E0, symBinAddr: 0x10000D740, symSize: 0x14 }
  - { offsetInCU: 0x18D8E, offset: 0x21710, size: 0x8, addend: 0x0, symName: __ZNKSt3__123__move_backward_trivialclB7v160006IPP3JobS4_Li0EEENS_4pairIPT_PT0_EES7_S7_S9_, symObjAddr: 0x9270, symBinAddr: 0x10000D8D0, symSize: 0x48 }
  - { offsetInCU: 0x18DF5, offset: 0x21777, size: 0x8, addend: 0x0, symName: __ZNSt3__14pairIPPP3JobS4_EC1B7v160006IRS4_S7_LPv0EEEOT_OT0_, symObjAddr: 0x9384, symBinAddr: 0x10000D9E4, symSize: 0x3C }
  - { offsetInCU: 0x18E52, offset: 0x217D4, size: 0x8, addend: 0x0, symName: __ZNSt3__14pairIPPP3JobS4_EC2B7v160006IRS4_S7_LPv0EEEOT_OT0_, symObjAddr: 0x93C0, symBinAddr: 0x10000DA20, symSize: 0x34 }
  - { offsetInCU: 0x18EAF, offset: 0x21831, size: 0x8, addend: 0x0, symName: __ZNSt3__114__split_bufferIPP3JobRNS_9allocatorIS3_EEEC2EmmS6_, symObjAddr: 0x93F4, symBinAddr: 0x10000DA54, symSize: 0xD4 }
  - { offsetInCU: 0x18F22, offset: 0x218A4, size: 0x8, addend: 0x0, symName: __ZNSt3__117__compressed_pairIPPP3JobRNS_9allocatorIS3_EEEC1B7v160006IDnS7_EEOT_OT0_, symObjAddr: 0x94C8, symBinAddr: 0x10000DB28, symSize: 0x3C }
  - { offsetInCU: 0x18F78, offset: 0x218FA, size: 0x8, addend: 0x0, symName: __ZNSt3__117__compressed_pairIPPP3JobRNS_9allocatorIS3_EEEC2B7v160006IDnS7_EEOT_OT0_, symObjAddr: 0x9544, symBinAddr: 0x10000DBA4, symSize: 0x48 }
  - { offsetInCU: 0x18FCE, offset: 0x21950, size: 0x8, addend: 0x0, symName: __ZNSt3__122__compressed_pair_elemIRNS_9allocatorIPP3JobEELi1ELb0EEC2B7v160006IS6_vEEOT_, symObjAddr: 0x958C, symBinAddr: 0x10000DBEC, symSize: 0x20 }
  - { offsetInCU: 0x1900F, offset: 0x21991, size: 0x8, addend: 0x0, symName: __ZNSt3__19allocatorIPP3JobE8allocateB7v160006Em, symObjAddr: 0x95AC, symBinAddr: 0x10000DC0C, symSize: 0x58 }
  - { offsetInCU: 0x1904B, offset: 0x219CD, size: 0x8, addend: 0x0, symName: __ZNSt3__116allocator_traitsINS_9allocatorIPP3JobEEE8max_sizeB7v160006IS5_vEEmRKS5_, symObjAddr: 0x9604, symBinAddr: 0x10000DC64, symSize: 0x24 }
  - { offsetInCU: 0x19079, offset: 0x219FB, size: 0x8, addend: 0x0, symName: __ZNKSt3__19allocatorIPP3JobE8max_sizeB7v160006Ev, symObjAddr: 0x9628, symBinAddr: 0x10000DC88, symSize: 0x14 }
  - { offsetInCU: 0x1909D, offset: 0x21A1F, size: 0x8, addend: 0x0, symName: __ZNSt3__122__allocator_destructorINS_9allocatorIP3JobEEEC2B7v160006ERS4_m, symObjAddr: 0x963C, symBinAddr: 0x10000DC9C, symSize: 0x2C }
  - { offsetInCU: 0x190E1, offset: 0x21A63, size: 0x8, addend: 0x0, symName: __ZNSt3__110unique_ptrIPP3JobNS_22__allocator_destructorINS_9allocatorIS2_EEEEEC2B7v160006ILb1EvEES3_NS_16__dependent_typeINS_27__unique_ptr_deleter_sfinaeIS7_EEXT_EE20__good_rval_ref_typeE, symObjAddr: 0x9668, symBinAddr: 0x10000DCC8, symSize: 0x48 }
  - { offsetInCU: 0x19131, offset: 0x21AB3, size: 0x8, addend: 0x0, symName: __ZNSt3__117__compressed_pairIPP3JobNS_22__allocator_destructorINS_9allocatorIS2_EEEEEC1B7v160006IRS3_S7_EEOT_OT0_, symObjAddr: 0x96B0, symBinAddr: 0x10000DD10, symSize: 0x3C }
  - { offsetInCU: 0x19187, offset: 0x21B09, size: 0x8, addend: 0x0, symName: __ZNSt3__117__compressed_pairIPP3JobNS_22__allocator_destructorINS_9allocatorIS2_EEEEEC2B7v160006IRS3_S7_EEOT_OT0_, symObjAddr: 0x96EC, symBinAddr: 0x10000DD4C, symSize: 0x48 }
  - { offsetInCU: 0x191DD, offset: 0x21B5F, size: 0x8, addend: 0x0, symName: __ZNSt3__122__compressed_pair_elemIPP3JobLi0ELb0EEC2B7v160006IRS3_vEEOT_, symObjAddr: 0x9734, symBinAddr: 0x10000DD94, symSize: 0x24 }
  - { offsetInCU: 0x1921E, offset: 0x21BA0, size: 0x8, addend: 0x0, symName: __ZNSt3__122__compressed_pair_elemINS_22__allocator_destructorINS_9allocatorIP3JobEEEELi1ELb0EEC2B7v160006IS6_vEEOT_, symObjAddr: 0x9758, symBinAddr: 0x10000DDB8, symSize: 0x24 }
  - { offsetInCU: 0x1925F, offset: 0x21BE1, size: 0x8, addend: 0x0, symName: __ZNKSt3__117__compressed_pairIPP3JobNS_22__allocator_destructorINS_9allocatorIS2_EEEEE5firstB7v160006Ev, symObjAddr: 0x977C, symBinAddr: 0x10000DDDC, symSize: 0x24 }
  - { offsetInCU: 0x19283, offset: 0x21C05, size: 0x8, addend: 0x0, symName: __ZNKSt3__122__compressed_pair_elemIPP3JobLi0ELb0EE5__getB7v160006Ev, symObjAddr: 0x97A0, symBinAddr: 0x10000DE00, symSize: 0x14 }
  - { offsetInCU: 0x192A7, offset: 0x21C29, size: 0x8, addend: 0x0, symName: __ZNSt3__117__compressed_pairIPP3JobNS_22__allocator_destructorINS_9allocatorIS2_EEEEE5firstB7v160006Ev, symObjAddr: 0x97B4, symBinAddr: 0x10000DE14, symSize: 0x24 }
  - { offsetInCU: 0x192CB, offset: 0x21C4D, size: 0x8, addend: 0x0, symName: __ZNSt3__122__compressed_pair_elemIPP3JobLi0ELb0EE5__getB7v160006Ev, symObjAddr: 0x97D8, symBinAddr: 0x10000DE38, symSize: 0x14 }
  - { offsetInCU: 0x192EF, offset: 0x21C71, size: 0x8, addend: 0x0, symName: __ZNSt3__117__compressed_pairIPPP3JobNS_9allocatorIS3_EEE5firstB7v160006Ev, symObjAddr: 0x97EC, symBinAddr: 0x10000DE4C, symSize: 0x24 }
  - { offsetInCU: 0x19313, offset: 0x21C95, size: 0x8, addend: 0x0, symName: __ZNSt3__122__compressed_pair_elemIPPP3JobLi0ELb0EE5__getB7v160006Ev, symObjAddr: 0x9810, symBinAddr: 0x10000DE70, symSize: 0x14 }
  - { offsetInCU: 0x19337, offset: 0x21CB9, size: 0x8, addend: 0x0, symName: __ZNSt3__117__compressed_pairIPPP3JobRNS_9allocatorIS3_EEE5firstB7v160006Ev, symObjAddr: 0x9824, symBinAddr: 0x10000DE84, symSize: 0x24 }
  - { offsetInCU: 0x1935B, offset: 0x21CDD, size: 0x8, addend: 0x0, symName: __ZNSt3__110unique_ptrIPP3JobNS_22__allocator_destructorINS_9allocatorIS2_EEEEED2B7v160006Ev, symObjAddr: 0x9848, symBinAddr: 0x10000DEA8, symSize: 0x30 }
  - { offsetInCU: 0x19383, offset: 0x21D05, size: 0x8, addend: 0x0, symName: __ZNSt3__110unique_ptrIPP3JobNS_22__allocator_destructorINS_9allocatorIS2_EEEEE5resetB7v160006ES3_, symObjAddr: 0x9878, symBinAddr: 0x10000DED8, symSize: 0x78 }
  - { offsetInCU: 0x193C5, offset: 0x21D47, size: 0x8, addend: 0x0, symName: __ZNSt3__117__compressed_pairIPP3JobNS_22__allocator_destructorINS_9allocatorIS2_EEEEE6secondB7v160006Ev, symObjAddr: 0x98F0, symBinAddr: 0x10000DF50, symSize: 0x28 }
  - { offsetInCU: 0x193E9, offset: 0x21D6B, size: 0x8, addend: 0x0, symName: __ZNSt3__122__allocator_destructorINS_9allocatorIP3JobEEEclB7v160006EPS3_, symObjAddr: 0x9918, symBinAddr: 0x10000DF78, symSize: 0x34 }
  - { offsetInCU: 0x1941B, offset: 0x21D9D, size: 0x8, addend: 0x0, symName: __ZNSt3__122__compressed_pair_elemINS_22__allocator_destructorINS_9allocatorIP3JobEEEELi1ELb0EE5__getB7v160006Ev, symObjAddr: 0x994C, symBinAddr: 0x10000DFAC, symSize: 0x14 }
  - { offsetInCU: 0x1943F, offset: 0x21DC1, size: 0x8, addend: 0x0, symName: __ZNSt3__114__split_bufferIPP3JobRNS_9allocatorIS3_EEED2Ev, symObjAddr: 0x9960, symBinAddr: 0x10000DFC0, symSize: 0x8C }
  - { offsetInCU: 0x1946A, offset: 0x21DEC, size: 0x8, addend: 0x0, symName: __ZNSt3__114__split_bufferIPP3JobRNS_9allocatorIS3_EEE5clearB7v160006Ev, symObjAddr: 0x99EC, symBinAddr: 0x10000E04C, symSize: 0x28 }
  - { offsetInCU: 0x1948E, offset: 0x21E10, size: 0x8, addend: 0x0, symName: __ZNKSt3__114__split_bufferIPP3JobRNS_9allocatorIS3_EEE8capacityB7v160006Ev, symObjAddr: 0x9A14, symBinAddr: 0x10000E074, symSize: 0x40 }
  - { offsetInCU: 0x194B2, offset: 0x21E34, size: 0x8, addend: 0x0, symName: __ZNSt3__114__split_bufferIPP3JobRNS_9allocatorIS3_EEE17__destruct_at_endB7v160006EPS3_, symObjAddr: 0x9A54, symBinAddr: 0x10000E0B4, symSize: 0x2C }
  - { offsetInCU: 0x194E4, offset: 0x21E66, size: 0x8, addend: 0x0, symName: __ZNSt3__114__split_bufferIPP3JobRNS_9allocatorIS3_EEE17__destruct_at_endB7v160006EPS3_NS_17integral_constantIbLb0EEE, symObjAddr: 0x9A80, symBinAddr: 0x10000E0E0, symSize: 0x80 }
  - { offsetInCU: 0x19522, offset: 0x21EA4, size: 0x8, addend: 0x0, symName: __ZNKSt3__114__split_bufferIPP3JobRNS_9allocatorIS3_EEE9__end_capB7v160006Ev, symObjAddr: 0x9B00, symBinAddr: 0x10000E160, symSize: 0x28 }
  - { offsetInCU: 0x19546, offset: 0x21EC8, size: 0x8, addend: 0x0, symName: __ZNKSt3__117__compressed_pairIPPP3JobRNS_9allocatorIS3_EEE5firstB7v160006Ev, symObjAddr: 0x9B28, symBinAddr: 0x10000E188, symSize: 0x24 }
  - { offsetInCU: 0x1956A, offset: 0x21EEC, size: 0x8, addend: 0x0, symName: __ZNSt3__19allocatorIP3JobE9constructB7v160006IS2_JRKS2_EEEvPT_DpOT0_, symObjAddr: 0x9B4C, symBinAddr: 0x10000E1AC, symSize: 0x28 }
  - { offsetInCU: 0x195BF, offset: 0x21F41, size: 0x8, addend: 0x0, symName: __ZNSt3__114__split_bufferIPP3JobNS_9allocatorIS3_EEE4swapERS6_, symObjAddr: 0x9B74, symBinAddr: 0x10000E1D4, symSize: 0x98 }
  - { offsetInCU: 0x195F3, offset: 0x21F75, size: 0x8, addend: 0x0, symName: __ZNKSt3__114__split_bufferIPP3JobNS_9allocatorIS3_EEE5emptyB7v160006Ev, symObjAddr: 0x9CC8, symBinAddr: 0x10000E328, symSize: 0x28 }
  - { offsetInCU: 0x19617, offset: 0x21F99, size: 0x8, addend: 0x0, symName: __ZNSt3__116__deque_iteratorIP3JobPS2_RS2_PS3_lLl512EEC1B7v160006ES5_S3_, symObjAddr: 0x9CF0, symBinAddr: 0x10000E350, symSize: 0x3C }
  - { offsetInCU: 0x1965D, offset: 0x21FDF, size: 0x8, addend: 0x0, symName: __ZNSt3__116__deque_iteratorIP3JobPS2_RS2_PS3_lLl512EEC2B7v160006ES5_S3_, symObjAddr: 0x9D2C, symBinAddr: 0x10000E38C, symSize: 0x2C }
  - { offsetInCU: 0x196A8, offset: 0x2202A, size: 0x8, addend: 0x0, symName: __ZNKSt3__116__deque_iteratorIP3JobPS2_RS2_PS3_lLl512EEplB7v160006El, symObjAddr: 0xA81C, symBinAddr: 0x10000E48C, symSize: 0x40 }
  - { offsetInCU: 0x196EA, offset: 0x2206C, size: 0x8, addend: 0x0, symName: __ZNSt3__15dequeIP3JobNS_9allocatorIS2_EEE26__maybe_remove_front_spareB7v160006Eb, symObjAddr: 0xA92C, symBinAddr: 0x10000E59C, symSize: 0xDC }
  - { offsetInCU: 0x1971D, offset: 0x2209F, size: 0x8, addend: 0x0, symName: __ZNSt3__15dequeIP3JobNS_9allocatorIS2_EEE25__maybe_remove_back_spareB7v160006Eb, symObjAddr: 0xAA80, symBinAddr: 0x10000E6F0, symSize: 0xCC }
  - { offsetInCU: 0x19750, offset: 0x220D2, size: 0x8, addend: 0x0, symName: __ZNSt3__116__deque_iteratorIP3JobPS2_RS2_PS3_lLl512EEpLB7v160006El, symObjAddr: 0xABB0, symBinAddr: 0x10000E820, symSize: 0x110 }
  - { offsetInCU: 0x197C4, offset: 0x22146, size: 0x8, addend: 0x0, symName: __ZNKSt3__120__move_backward_loopINS_17_ClassicAlgPolicyEEclB7v160006INS_16__deque_iteratorIP3JobPS6_RS6_PS7_lLl512EEESA_Li0EEENS_4pairIT_T0_EESC_SC_SD_, symObjAddr: 0xAF38, symBinAddr: 0x10000EBA8, symSize: 0x230 }
  - { offsetInCU: 0x19868, offset: 0x221EA, size: 0x8, addend: 0x0, symName: __ZNSt3__127__segmented_iterator_traitsINS_16__deque_iteratorIP3JobPS3_RS3_PS4_lLl512EEEE9__segmentB7v160006ES7_, symObjAddr: 0xB2B4, symBinAddr: 0x10000EF24, symSize: 0x18 }
  - { offsetInCU: 0x1988B, offset: 0x2220D, size: 0x8, addend: 0x0, symName: __ZNSt3__127__segmented_iterator_traitsINS_16__deque_iteratorIP3JobPS3_RS3_PS4_lLl512EEEE7__localB7v160006ES7_, symObjAddr: 0xB310, symBinAddr: 0x10000EF80, symSize: 0x18 }
  - { offsetInCU: 0x198AE, offset: 0x22230, size: 0x8, addend: 0x0, symName: __ZNSt3__127__segmented_iterator_traitsINS_16__deque_iteratorIP3JobPS3_RS3_PS4_lLl512EEEE7__beginB7v160006ES6_, symObjAddr: 0xB360, symBinAddr: 0x10000EFD0, symSize: 0x18 }
  - { offsetInCU: 0x198D1, offset: 0x22253, size: 0x8, addend: 0x0, symName: __ZNSt3__127__segmented_iterator_traitsINS_16__deque_iteratorIP3JobPS3_RS3_PS4_lLl512EEEE5__endB7v160006ES6_, symObjAddr: 0xB378, symBinAddr: 0x10000EFE8, symSize: 0x1C }
  - { offsetInCU: 0x19912, offset: 0x22294, size: 0x8, addend: 0x0, symName: __ZNSt3__120__move_backward_loopINS_17_ClassicAlgPolicyEEclB7v160006IPP3JobNS_16__deque_iteratorIS5_S6_RS5_PS6_lLl512EEELi0EEENS_4pairIT_T0_EESC_SC_SD_, symObjAddr: 0xB560, symBinAddr: 0x10000F1D0, symSize: 0x19C }
  - { offsetInCU: 0x199F8, offset: 0x2237A, size: 0x8, addend: 0x0, symName: __ZNSt3__14pairIPP3JobS3_EC1B7v160006IS3_S3_LPv0EEEOT_OT0_, symObjAddr: 0xB7BC, symBinAddr: 0x10000F42C, symSize: 0x3C }
  - { offsetInCU: 0x19A55, offset: 0x223D7, size: 0x8, addend: 0x0, symName: __ZNSt3__14pairIPP3JobS3_EC2B7v160006IS3_S3_LPv0EEEOT_OT0_, symObjAddr: 0xB7F8, symBinAddr: 0x10000F468, symSize: 0x34 }
  - { offsetInCU: 0x19AB2, offset: 0x22434, size: 0x8, addend: 0x0, symName: __ZNSt3__118__unwrap_iter_implIPP3JobLb1EE8__unwrapB7v160006ES3_, symObjAddr: 0xB82C, symBinAddr: 0x10000F49C, symSize: 0x24 }
  - { offsetInCU: 0x19AD4, offset: 0x22456, size: 0x8, addend: 0x0, symName: __ZNSt3__127__segmented_iterator_traitsINS_16__deque_iteratorIP3JobPS3_RS3_PS4_lLl512EEEE9__composeB7v160006ES6_S4_, symObjAddr: 0xB90C, symBinAddr: 0x10000F57C, symSize: 0x84 }
  - { offsetInCU: 0x19B06, offset: 0x22488, size: 0x8, addend: 0x0, symName: __ZNSt3__14pairIPP3JobNS_16__deque_iteratorIS2_S3_RS2_PS3_lLl512EEEEC1B7v160006IRS3_RS7_LPv0EEEOT_OT0_, symObjAddr: 0xB990, symBinAddr: 0x10000F600, symSize: 0x3C }
  - { offsetInCU: 0x19B63, offset: 0x224E5, size: 0x8, addend: 0x0, symName: __ZNSt3__14pairIPP3JobNS_16__deque_iteratorIS2_S3_RS2_PS3_lLl512EEEEC2B7v160006IRS3_RS7_LPv0EEEOT_OT0_, symObjAddr: 0xB9CC, symBinAddr: 0x10000F63C, symSize: 0x34 }
  - { offsetInCU: 0x19BD4, offset: 0x22556, size: 0x8, addend: 0x0, symName: __ZNKSt3__16__lessIllEclB7v160006ERKlS3_, symObjAddr: 0xBA54, symBinAddr: 0x10000F6C4, symSize: 0x34 }
  - { offsetInCU: 0x19C14, offset: 0x22596, size: 0x8, addend: 0x0, symName: __ZNKSt3__123__move_backward_trivialclB7v160006IP3JobS3_Li0EEENS_4pairIPT_PT0_EES6_S6_S8_, symObjAddr: 0xBB80, symBinAddr: 0x10000F7F0, symSize: 0x48 }
  - { offsetInCU: 0x19C7B, offset: 0x225FD, size: 0x8, addend: 0x0, symName: __ZNSt3__14pairIPP3JobS3_EC1B7v160006IRS3_S6_LPv0EEEOT_OT0_, symObjAddr: 0xBCD0, symBinAddr: 0x10000F940, symSize: 0x3C }
  - { offsetInCU: 0x19CD8, offset: 0x2265A, size: 0x8, addend: 0x0, symName: __ZNSt3__14pairIPP3JobS3_EC2B7v160006IRS3_S6_LPv0EEEOT_OT0_, symObjAddr: 0xBD0C, symBinAddr: 0x10000F97C, symSize: 0x34 }
  - { offsetInCU: 0x19D35, offset: 0x226B7, size: 0x8, addend: 0x0, symName: __ZNSt3__118__unwrap_iter_implIPP3JobLb1EE8__rewrapB7v160006ES3_S3_, symObjAddr: 0xBD40, symBinAddr: 0x10000F9B0, symSize: 0x50 }
  - { offsetInCU: 0x19D6A, offset: 0x226EC, size: 0x8, addend: 0x0, symName: __ZNSt3__14pairIPP3JobNS_16__deque_iteratorIS2_S3_RS2_PS3_lLl512EEEEC1B7v160006IS3_S7_LPv0EEEOT_OT0_, symObjAddr: 0xBD90, symBinAddr: 0x10000FA00, symSize: 0x3C }
  - { offsetInCU: 0x19DC7, offset: 0x22749, size: 0x8, addend: 0x0, symName: __ZNSt3__14pairIPP3JobNS_16__deque_iteratorIS2_S3_RS2_PS3_lLl512EEEEC2B7v160006IS3_S7_LPv0EEEOT_OT0_, symObjAddr: 0xBDCC, symBinAddr: 0x10000FA3C, symSize: 0x34 }
  - { offsetInCU: 0x19E24, offset: 0x227A6, size: 0x8, addend: 0x0, symName: __ZNSt3__14pairINS_16__deque_iteratorIP3JobPS3_RS3_PS4_lLl512EEES7_EC1B7v160006IRS7_SA_LPv0EEEOT_OT0_, symObjAddr: 0xBE00, symBinAddr: 0x10000FA70, symSize: 0x3C }
  - { offsetInCU: 0x19E81, offset: 0x22803, size: 0x8, addend: 0x0, symName: __ZNSt3__14pairINS_16__deque_iteratorIP3JobPS3_RS3_PS4_lLl512EEES7_EC2B7v160006IRS7_SA_LPv0EEEOT_OT0_, symObjAddr: 0xBE3C, symBinAddr: 0x10000FAAC, symSize: 0x34 }
  - { offsetInCU: 0x19EDE, offset: 0x22860, size: 0x8, addend: 0x0, symName: __ZNSt3__14pairINS_16__deque_iteratorIP3JobPS3_RS3_PS4_lLl512EEES7_EC1B7v160006IRS7_S7_LPv0EEEOT_OT0_, symObjAddr: 0xBE70, symBinAddr: 0x10000FAE0, symSize: 0x3C }
  - { offsetInCU: 0x19F3B, offset: 0x228BD, size: 0x8, addend: 0x0, symName: __ZNSt3__14pairINS_16__deque_iteratorIP3JobPS3_RS3_PS4_lLl512EEES7_EC2B7v160006IRS7_S7_LPv0EEEOT_OT0_, symObjAddr: 0xBEAC, symBinAddr: 0x10000FB1C, symSize: 0x34 }
  - { offsetInCU: 0x19F98, offset: 0x2291A, size: 0x8, addend: 0x0, symName: __ZNSt3__118__unwrap_iter_implINS_16__deque_iteratorIP3JobPS3_RS3_PS4_lLl512EEELb0EE8__unwrapB7v160006ES7_, symObjAddr: 0xBEE0, symBinAddr: 0x10000FB50, symSize: 0x24 }
  - { offsetInCU: 0x19FBA, offset: 0x2293C, size: 0x8, addend: 0x0, symName: __ZNSt3__14pairINS_16__deque_iteratorIP3JobPS3_RS3_PS4_lLl512EEES7_EC1B7v160006IS7_S7_LPv0EEEOT_OT0_, symObjAddr: 0xBF04, symBinAddr: 0x10000FB74, symSize: 0x3C }
  - { offsetInCU: 0x1A017, offset: 0x22999, size: 0x8, addend: 0x0, symName: __ZNSt3__14pairINS_16__deque_iteratorIP3JobPS3_RS3_PS4_lLl512EEES7_EC2B7v160006IS7_S7_LPv0EEEOT_OT0_, symObjAddr: 0xBF40, symBinAddr: 0x10000FBB0, symSize: 0x34 }
  - { offsetInCU: 0x1A074, offset: 0x229F6, size: 0x8, addend: 0x0, symName: __ZNSt3__118__unwrap_iter_implINS_16__deque_iteratorIP3JobPS3_RS3_PS4_lLl512EEELb0EE8__rewrapB7v160006ES7_S7_, symObjAddr: 0xBF74, symBinAddr: 0x10000FBE4, symSize: 0x2C }
  - { offsetInCU: 0x1A0A0, offset: 0x22A22, size: 0x8, addend: 0x0, symName: __ZNKSt3__15dequeIP3JobNS_9allocatorIS2_EEE20__front_spare_blocksB7v160006Ev, symObjAddr: 0xC030, symBinAddr: 0x10000FCA0, symSize: 0x2C }
  - { offsetInCU: 0x1A0C4, offset: 0x22A46, size: 0x8, addend: 0x0, symName: __ZNKSt3__111__move_loopINS_17_ClassicAlgPolicyEEclB7v160006INS_16__deque_iteratorIP3JobPS6_RS6_PS7_lLl512EEESA_Li0EEENS_4pairIT_T0_EESC_SC_SD_, symObjAddr: 0xC250, symBinAddr: 0x10000FEC0, symSize: 0x238 }
  - { offsetInCU: 0x1A16D, offset: 0x22AEF, size: 0x8, addend: 0x0, symName: __ZNSt3__111__move_loopINS_17_ClassicAlgPolicyEEclB7v160006IPP3JobNS_16__deque_iteratorIS5_S6_RS5_PS6_lLl512EEELi0EEENS_4pairIT_T0_EESC_SC_SD_, symObjAddr: 0xC600, symBinAddr: 0x100010270, symSize: 0x164 }
  - { offsetInCU: 0x1A22C, offset: 0x22BAE, size: 0x8, addend: 0x0, symName: __ZNKSt3__114__move_trivialclB7v160006IP3JobS3_Li0EEENS_4pairIPT_PT0_EES6_S6_S8_, symObjAddr: 0xC8A0, symBinAddr: 0x100010510, symSize: 0x48 }
  - { offsetInCU: 0x1A293, offset: 0x22C15, size: 0x8, addend: 0x0, symName: __ZNSt3__14pairIPP3JobS3_EC1B7v160006IRS3_S3_LPv0EEEOT_OT0_, symObjAddr: 0xC9A4, symBinAddr: 0x100010614, symSize: 0x3C }
  - { offsetInCU: 0x1A2F0, offset: 0x22C72, size: 0x8, addend: 0x0, symName: __ZNSt3__14pairIPP3JobS3_EC2B7v160006IRS3_S3_LPv0EEEOT_OT0_, symObjAddr: 0xC9E0, symBinAddr: 0x100010650, symSize: 0x34 }
  - { offsetInCU: 0x1A34D, offset: 0x22CCF, size: 0x8, addend: 0x0, symName: __ZNKSt3__15dequeIP3JobNS_9allocatorIS2_EEE19__back_spare_blocksB7v160006Ev, symObjAddr: 0xCA14, symBinAddr: 0x100010684, symSize: 0x2C }
  - { offsetInCU: 0x1A371, offset: 0x22CF3, size: 0x8, addend: 0x0, symName: __ZNSt3__114__split_bufferIPP3JobNS_9allocatorIS3_EEE4backB7v160006Ev, symObjAddr: 0xCA40, symBinAddr: 0x1000106B0, symSize: 0x1C }
  - { offsetInCU: 0x1A395, offset: 0x22D17, size: 0x8, addend: 0x0, symName: __ZNSt3__114__split_bufferIPP3JobNS_9allocatorIS3_EEE8pop_backB7v160006Ev, symObjAddr: 0xCA5C, symBinAddr: 0x1000106CC, symSize: 0x2C }
  - { offsetInCU: 0x1A3B9, offset: 0x22D3B, size: 0x8, addend: 0x0, symName: __ZNSt3__116__deque_iteratorIP3JobPKS2_RS3_PKS4_lLl512EEC2B7v160006IPS2_RS2_PSA_EERKNS0_IS2_T_T0_T1_lLl512EEEPNS_9enable_ifIXsr14is_convertibleISD_S4_EE5valueEvE4typeE, symObjAddr: 0xCA88, symBinAddr: 0x1000106F8, symSize: 0x34 }
  - { offsetInCU: 0x5163, offset: 0x280EA, size: 0x8, addend: 0x0, symName: __ZNSt3__16chronogtB7v160006IxNS_5ratioILl1ELl1000000EEExS3_EEbRKNS0_8durationIT_T0_EERKNS4_IT1_T2_EE, symObjAddr: 0x135C, symBinAddr: 0x100011A0C, symSize: 0x30 }
  - { offsetInCU: 0x51C4, offset: 0x2814B, size: 0x8, addend: 0x0, symName: __ZNSt3__16chronoltB7v160006IxNS_5ratioILl1ELl1000000EEEeNS2_ILl1ELl1EEEEEbRKNS0_8durationIT_T0_EERKNS5_IT1_T2_EE, symObjAddr: 0x13C8, symBinAddr: 0x100011A78, symSize: 0x34 }
  - { offsetInCU: 0x5225, offset: 0x281AC, size: 0x8, addend: 0x0, symName: __ZNSt3__16chrono13duration_castB7v160006INS0_8durationIxNS_5ratioILl1ELl1000000000EEEEExNS3_ILl1ELl1000000EEEEENS_9enable_ifIXsr13__is_durationIT_EE5valueES8_E4typeERKNS2_IT0_T1_EE, symObjAddr: 0x13FC, symBinAddr: 0x100011AAC, symSize: 0x30 }
  - { offsetInCU: 0x526C, offset: 0x281F3, size: 0x8, addend: 0x0, symName: __ZNSt3__16chronoltB7v160006IxNS_5ratioILl1ELl1000000000EEExNS2_ILl1ELl1000000EEEEEbRKNS0_8durationIT_T0_EERKNS5_IT1_T2_EE, symObjAddr: 0x142C, symBinAddr: 0x100011ADC, symSize: 0x34 }
  - { offsetInCU: 0x52CD, offset: 0x28254, size: 0x8, addend: 0x0, symName: __ZNSt3__16chronoltB7v160006IxNS_5ratioILl1ELl1000000EEExS3_EEbRKNS0_8durationIT_T0_EERKNS4_IT1_T2_EE, symObjAddr: 0x14BC, symBinAddr: 0x100011B6C, symSize: 0x34 }
  - { offsetInCU: 0x53AB, offset: 0x28332, size: 0x8, addend: 0x0, symName: __ZNSt3__16chrono13duration_castB7v160006INS0_8durationIeNS_5ratioILl1ELl1000000EEEEExS4_EENS_9enable_ifIXsr13__is_durationIT_EE5valueES7_E4typeERKNS2_IT0_T1_EE, symObjAddr: 0x1710, symBinAddr: 0x100011DC0, symSize: 0x30 }
  - { offsetInCU: 0x543F, offset: 0x283C6, size: 0x8, addend: 0x0, symName: __ZNSt3__16chrono13duration_castB7v160006INS0_8durationIeNS_5ratioILl1ELl1000000EEEEEeNS3_ILl1ELl1EEEEENS_9enable_ifIXsr13__is_durationIT_EE5valueES8_E4typeERKNS2_IT0_T1_EE, symObjAddr: 0x1830, symBinAddr: 0x100011EE0, symSize: 0x30 }
  - { offsetInCU: 0x7269, offset: 0x2A1F0, size: 0x8, addend: 0x0, symName: __ZNSt3__111this_thread9sleep_forB7v160006IxNS_5ratioILl1ELl1000000EEEEEvRKNS_6chrono8durationIT_T0_EE, symObjAddr: 0x3D0, symBinAddr: 0x100010AC4, symSize: 0xBC }
  - { offsetInCU: 0x76D3, offset: 0x2A65A, size: 0x8, addend: 0x0, symName: __ZNSt3__122__libcpp_thread_createB7v160006EPP17_opaque_pthread_tPFPvS3_ES3_, symObjAddr: 0x774, symBinAddr: 0x100010E24, symSize: 0x38 }
  - { offsetInCU: 0x771F, offset: 0x2A6A6, size: 0x8, addend: 0x0, symName: __ZNSt3__114__thread_proxyB7v160006INS_5tupleIJNS_10unique_ptrINS_15__thread_structENS_14default_deleteIS3_EEEEPFvPvEP15JobWorkerThreadEEEEES7_S7_, symObjAddr: 0x7AC, symBinAddr: 0x100010E5C, symSize: 0x90 }
  - { offsetInCU: 0x7888, offset: 0x2A80F, size: 0x8, addend: 0x0, symName: __ZNSt3__13getB7v160006ILm0EJNS_10unique_ptrINS_15__thread_structENS_14default_deleteIS2_EEEEPFvPvEP15JobWorkerThreadEEERNS_13tuple_elementIXT_ENS_5tupleIJDpT0_EEEE4typeERSF_, symObjAddr: 0xEA4, symBinAddr: 0x100011554, symSize: 0x24 }
  - { offsetInCU: 0x78D6, offset: 0x2A85D, size: 0x8, addend: 0x0, symName: __ZNSt3__116__thread_executeB7v160006INS_10unique_ptrINS_15__thread_structENS_14default_deleteIS2_EEEEPFvPvEJP15JobWorkerThreadEJLm2EEEEvRNS_5tupleIJT_T0_DpT1_EEENS_15__tuple_indicesIJXspT2_EEEE, symObjAddr: 0xEC8, symBinAddr: 0x100011578, symSize: 0x3C }
  - { offsetInCU: 0x7939, offset: 0x2A8C0, size: 0x8, addend: 0x0, symName: __ZNSt3__116__libcpp_tls_setB7v160006EmPv, symObjAddr: 0xF04, symBinAddr: 0x1000115B4, symSize: 0x2C }
  - { offsetInCU: 0x7976, offset: 0x2A8FD, size: 0x8, addend: 0x0, symName: __ZNSt3__18__invokeB7v160006IPFvPvEJP15JobWorkerThreadEEEDTclclsr3stdE7declvalIT_EEspclsr3stdE7declvalIT0_EEEEOS6_DpOS7_, symObjAddr: 0xF44, symBinAddr: 0x1000115F4, symSize: 0x34 }
  - { offsetInCU: 0x79C5, offset: 0x2A94C, size: 0x8, addend: 0x0, symName: __ZNSt3__13getB7v160006ILm1EJNS_10unique_ptrINS_15__thread_structENS_14default_deleteIS2_EEEEPFvPvEP15JobWorkerThreadEEERNS_13tuple_elementIXT_ENS_5tupleIJDpT0_EEEE4typeERSF_, symObjAddr: 0xF78, symBinAddr: 0x100011628, symSize: 0x28 }
  - { offsetInCU: 0x7A13, offset: 0x2A99A, size: 0x8, addend: 0x0, symName: __ZNSt3__13getB7v160006ILm2EJNS_10unique_ptrINS_15__thread_structENS_14default_deleteIS2_EEEEPFvPvEP15JobWorkerThreadEEERNS_13tuple_elementIXT_ENS_5tupleIJDpT0_EEEE4typeERSF_, symObjAddr: 0xFA0, symBinAddr: 0x100011650, symSize: 0x28 }
  - { offsetInCU: 0x85B4, offset: 0x2B53B, size: 0x8, addend: 0x0, symName: __ZNKSt3__16chrono13__duration_ltINS0_8durationIxNS_5ratioILl1ELl1000000EEEEENS2_IeNS3_ILl1ELl1EEEEEEclB7v160006ERKS5_RKS7_, symObjAddr: 0x15C0, symBinAddr: 0x100011C70, symSize: 0x78 }
  - { offsetInCU: 0x862F, offset: 0x2B5B6, size: 0x8, addend: 0x0, symName: __ZNKSt3__16chrono15__duration_castINS0_8durationIeNS_5ratioILl1ELl1EEEEENS2_IeNS3_ILl1ELl1000000EEEEENS3_ILl1000000ELl1EEELb0ELb1EEclB7v160006ERKS5_, symObjAddr: 0x1860, symBinAddr: 0x100011F10, symSize: 0x4C }
  - { offsetInCU: 0x8676, offset: 0x2B5FD, size: 0x8, addend: 0x0, symName: __ZNKSt3__16chrono15__duration_castINS0_8durationIxNS_5ratioILl1ELl1000000EEEEENS2_IxNS3_ILl1ELl1000000000EEEEENS3_ILl1000ELl1EEELb0ELb1EEclB7v160006ERKS5_, symObjAddr: 0x18C4, symBinAddr: 0x100011F74, symSize: 0x48 }
  - { offsetInCU: 0x86BD, offset: 0x2B644, size: 0x8, addend: 0x0, symName: __ZNKSt3__16chrono13__duration_ltINS0_8durationIxNS_5ratioILl1ELl1000000000EEEEENS2_IxNS3_ILl1ELl1000000EEEEEEclB7v160006ERKS5_RKS7_, symObjAddr: 0x1970, symBinAddr: 0x100012020, symSize: 0x6C }
  - { offsetInCU: 0xA48B, offset: 0x2D412, size: 0x8, addend: 0x0, symName: __ZN15JobWorkerThreadC2EPKcmP9JobSystem, symObjAddr: 0x0, symBinAddr: 0x10001072C, symSize: 0x5C }
  - { offsetInCU: 0xA4E0, offset: 0x2D467, size: 0x8, addend: 0x0, symName: __ZN15JobWorkerThreadC1EPKcmP9JobSystem, symObjAddr: 0x88, symBinAddr: 0x100010788, symSize: 0x44 }
  - { offsetInCU: 0xA535, offset: 0x2D4BC, size: 0x8, addend: 0x0, symName: __ZN15JobWorkerThreadD2Ev, symObjAddr: 0xCC, symBinAddr: 0x1000107CC, symSize: 0x8C }
  - { offsetInCU: 0xA560, offset: 0x2D4E7, size: 0x8, addend: 0x0, symName: __ZN15JobWorkerThread8shutDownEv, symObjAddr: 0x158, symBinAddr: 0x100010858, symSize: 0x40 }
  - { offsetInCU: 0xA586, offset: 0x2D50D, size: 0x8, addend: 0x0, symName: __ZN15JobWorkerThreadD1Ev, symObjAddr: 0x1A4, symBinAddr: 0x100010898, symSize: 0x2C }
  - { offsetInCU: 0xA5B1, offset: 0x2D538, size: 0x8, addend: 0x0, symName: __ZN15JobWorkerThread16workerThreadMainEPv, symObjAddr: 0x1D0, symBinAddr: 0x1000108C4, symSize: 0x2C }
  - { offsetInCU: 0xA5E4, offset: 0x2D56B, size: 0x8, addend: 0x0, symName: __ZN15JobWorkerThread4workEv, symObjAddr: 0x1FC, symBinAddr: 0x1000108F0, symSize: 0xCC }
  - { offsetInCU: 0xA635, offset: 0x2D5BC, size: 0x8, addend: 0x0, symName: __ZN15JobWorkerThread7startUpEv, symObjAddr: 0x2C8, symBinAddr: 0x1000109BC, symSize: 0x7C }
  - { offsetInCU: 0xA665, offset: 0x2D5EC, size: 0x8, addend: 0x0, symName: __ZNSt3__16threadC1IRFvPvEJP15JobWorkerThreadEvEEOT_DpOT0_, symObjAddr: 0x344, symBinAddr: 0x100010A38, symSize: 0x3C }
  - { offsetInCU: 0xA6C2, offset: 0x2D649, size: 0x8, addend: 0x0, symName: __ZNK15JobWorkerThread10isStoppingEv, symObjAddr: 0x380, symBinAddr: 0x100010A74, symSize: 0x50 }
  - { offsetInCU: 0xA700, offset: 0x2D687, size: 0x8, addend: 0x0, symName: __ZNSt3__16chrono8durationIxNS_5ratioILl1ELl1000000EEEEC1B7v160006IiEERKT_PNS_9enable_ifIXaasr14is_convertibleIS8_xEE5valueooL_ZNS_17integral_constantIbLb0EE5valueEEntsr23treat_as_floating_pointIS6_EE5valueEvE4typeE, symObjAddr: 0x48C, symBinAddr: 0x100010B80, symSize: 0x3C }
  - { offsetInCU: 0xA74B, offset: 0x2D6D2, size: 0x8, addend: 0x0, symName: __ZN15JobWorkerThread20setWorkerJobChannelsEm, symObjAddr: 0x4C8, symBinAddr: 0x100010BBC, symSize: 0x44 }
  - { offsetInCU: 0xA77F, offset: 0x2D706, size: 0x8, addend: 0x0, symName: __ZNSt3__16chrono8durationIxNS_5ratioILl1ELl1000000EEEEC2B7v160006IiEERKT_PNS_9enable_ifIXaasr14is_convertibleIS8_xEE5valueooL_ZNS_17integral_constantIbLb0EE5valueEEntsr23treat_as_floating_pointIS6_EE5valueEvE4typeE, symObjAddr: 0x550, symBinAddr: 0x100010C00, symSize: 0x28 }
  - { offsetInCU: 0xA7CA, offset: 0x2D751, size: 0x8, addend: 0x0, symName: __ZNSt3__16threadC2IRFvPvEJP15JobWorkerThreadEvEEOT_DpOT0_, symObjAddr: 0x578, symBinAddr: 0x100010C28, symSize: 0x150 }
  - { offsetInCU: 0xA85A, offset: 0x2D7E1, size: 0x8, addend: 0x0, symName: __ZNSt3__110unique_ptrINS_15__thread_structENS_14default_deleteIS1_EEEC1B7v160006ILb1EvEEPS1_, symObjAddr: 0x6C8, symBinAddr: 0x100010D78, symSize: 0x34 }
  - { offsetInCU: 0xA89C, offset: 0x2D823, size: 0x8, addend: 0x0, symName: __ZNSt3__15tupleIJNS_10unique_ptrINS_15__thread_structENS_14default_deleteIS2_EEEEPFvPvEP15JobWorkerThreadEEC1B7v160006IJS5_RS7_SA_ELi0EEEDpOT_, symObjAddr: 0x6FC, symBinAddr: 0x100010DAC, symSize: 0x44 }
  - { offsetInCU: 0xA99F, offset: 0x2D926, size: 0x8, addend: 0x0, symName: __ZNSt3__110unique_ptrINS_5tupleIJNS0_INS_15__thread_structENS_14default_deleteIS2_EEEEPFvPvEP15JobWorkerThreadEEENS3_ISB_EEEC1B7v160006ILb1EvEEPSB_, symObjAddr: 0x740, symBinAddr: 0x100010DF0, symSize: 0x34 }
  - { offsetInCU: 0xA9E0, offset: 0x2D967, size: 0x8, addend: 0x0, symName: __ZNKSt3__110unique_ptrINS_5tupleIJNS0_INS_15__thread_structENS_14default_deleteIS2_EEEEPFvPvEP15JobWorkerThreadEEENS3_ISB_EEE3getB7v160006Ev, symObjAddr: 0x83C, symBinAddr: 0x100010EEC, symSize: 0x28 }
  - { offsetInCU: 0xAA04, offset: 0x2D98B, size: 0x8, addend: 0x0, symName: __ZNSt3__110unique_ptrINS_5tupleIJNS0_INS_15__thread_structENS_14default_deleteIS2_EEEEPFvPvEP15JobWorkerThreadEEENS3_ISB_EEE7releaseB7v160006Ev, symObjAddr: 0x864, symBinAddr: 0x100010F14, symSize: 0x44 }
  - { offsetInCU: 0xAA38, offset: 0x2D9BF, size: 0x8, addend: 0x0, symName: __ZNSt3__110unique_ptrINS_5tupleIJNS0_INS_15__thread_structENS_14default_deleteIS2_EEEEPFvPvEP15JobWorkerThreadEEENS3_ISB_EEED1B7v160006Ev, symObjAddr: 0x8A8, symBinAddr: 0x100010F58, symSize: 0x2C }
  - { offsetInCU: 0xAA60, offset: 0x2D9E7, size: 0x8, addend: 0x0, symName: __ZNSt3__110unique_ptrINS_15__thread_structENS_14default_deleteIS1_EEED1B7v160006Ev, symObjAddr: 0x8D4, symBinAddr: 0x100010F84, symSize: 0x2C }
  - { offsetInCU: 0xAA88, offset: 0x2DA0F, size: 0x8, addend: 0x0, symName: __ZNSt3__110unique_ptrINS_15__thread_structENS_14default_deleteIS1_EEEC2B7v160006ILb1EvEEPS1_, symObjAddr: 0x900, symBinAddr: 0x100010FB0, symSize: 0x44 }
  - { offsetInCU: 0xAACF, offset: 0x2DA56, size: 0x8, addend: 0x0, symName: __ZNSt3__117__compressed_pairIPNS_15__thread_structENS_14default_deleteIS1_EEEC1B7v160006IRS2_NS_16__value_init_tagEEEOT_OT0_, symObjAddr: 0x944, symBinAddr: 0x100010FF4, symSize: 0x3C }
  - { offsetInCU: 0xAB25, offset: 0x2DAAC, size: 0x8, addend: 0x0, symName: __ZNSt3__117__compressed_pairIPNS_15__thread_structENS_14default_deleteIS1_EEEC2B7v160006IRS2_NS_16__value_init_tagEEEOT_OT0_, symObjAddr: 0x980, symBinAddr: 0x100011030, symSize: 0x40 }
  - { offsetInCU: 0xAB7B, offset: 0x2DB02, size: 0x8, addend: 0x0, symName: __ZNSt3__122__compressed_pair_elemIPNS_15__thread_structELi0ELb0EEC2B7v160006IRS2_vEEOT_, symObjAddr: 0x9C0, symBinAddr: 0x100011070, symSize: 0x24 }
  - { offsetInCU: 0xABBC, offset: 0x2DB43, size: 0x8, addend: 0x0, symName: __ZNSt3__122__compressed_pair_elemINS_14default_deleteINS_15__thread_structEEELi1ELb1EEC2B7v160006ENS_16__value_init_tagE, symObjAddr: 0x9E4, symBinAddr: 0x100011094, symSize: 0x14 }
  - { offsetInCU: 0xABEE, offset: 0x2DB75, size: 0x8, addend: 0x0, symName: __ZNSt3__15tupleIJNS_10unique_ptrINS_15__thread_structENS_14default_deleteIS2_EEEEPFvPvEP15JobWorkerThreadEEC2B7v160006IJS5_RS7_SA_ELi0EEEDpOT_, symObjAddr: 0x9F8, symBinAddr: 0x1000110A8, symSize: 0x44 }
  - { offsetInCU: 0xAC60, offset: 0x2DBE7, size: 0x8, addend: 0x0, symName: __ZNSt3__112__tuple_implINS_15__tuple_indicesIJLm0ELm1ELm2EEEEJNS_10unique_ptrINS_15__thread_structENS_14default_deleteIS4_EEEEPFvPvEP15JobWorkerThreadEEC1B7v160006IJLm0ELm1ELm2EEJS7_SA_SC_EJEJEJS7_RS9_SC_EEENS1_IJXspT_EEEENS_13__tuple_typesIJDpT0_EEENS1_IJXspT1_EEEENSH_IJDpT2_EEEDpOT3_, symObjAddr: 0xA3C, symBinAddr: 0x1000110EC, symSize: 0x44 }
  - { offsetInCU: 0xAD39, offset: 0x2DCC0, size: 0x8, addend: 0x0, symName: __ZNSt3__112__tuple_implINS_15__tuple_indicesIJLm0ELm1ELm2EEEEJNS_10unique_ptrINS_15__thread_structENS_14default_deleteIS4_EEEEPFvPvEP15JobWorkerThreadEEC2B7v160006IJLm0ELm1ELm2EEJS7_SA_SC_EJEJEJS7_RS9_SC_EEENS1_IJXspT_EEEENS_13__tuple_typesIJDpT0_EEENS1_IJXspT1_EEEENSH_IJDpT2_EEEDpOT3_, symObjAddr: 0xA80, symBinAddr: 0x100011130, symSize: 0x5C }
  - { offsetInCU: 0xAE12, offset: 0x2DD99, size: 0x8, addend: 0x0, symName: __ZNSt3__112__tuple_leafILm0ENS_10unique_ptrINS_15__thread_structENS_14default_deleteIS2_EEEELb0EEC2B7v160006IS5_vEEOT_, symObjAddr: 0xADC, symBinAddr: 0x10001118C, symSize: 0x34 }
  - { offsetInCU: 0xAE54, offset: 0x2DDDB, size: 0x8, addend: 0x0, symName: __ZNSt3__112__tuple_leafILm1EPFvPvELb0EEC2B7v160006IRS2_vEEOT_, symObjAddr: 0xB10, symBinAddr: 0x1000111C0, symSize: 0x20 }
  - { offsetInCU: 0xAE96, offset: 0x2DE1D, size: 0x8, addend: 0x0, symName: __ZNSt3__112__tuple_leafILm2EP15JobWorkerThreadLb0EEC2B7v160006IS2_vEEOT_, symObjAddr: 0xB30, symBinAddr: 0x1000111E0, symSize: 0x24 }
  - { offsetInCU: 0xAED8, offset: 0x2DE5F, size: 0x8, addend: 0x0, symName: __ZNSt3__110unique_ptrINS_15__thread_structENS_14default_deleteIS1_EEEC1B7v160006EOS4_, symObjAddr: 0xB54, symBinAddr: 0x100011204, symSize: 0x34 }
  - { offsetInCU: 0xAF0E, offset: 0x2DE95, size: 0x8, addend: 0x0, symName: __ZNSt3__110unique_ptrINS_15__thread_structENS_14default_deleteIS1_EEEC2B7v160006EOS4_, symObjAddr: 0xB88, symBinAddr: 0x100011238, symSize: 0x60 }
  - { offsetInCU: 0xAF43, offset: 0x2DECA, size: 0x8, addend: 0x0, symName: __ZNSt3__110unique_ptrINS_15__thread_structENS_14default_deleteIS1_EEE7releaseB7v160006Ev, symObjAddr: 0xBE8, symBinAddr: 0x100011298, symSize: 0x44 }
  - { offsetInCU: 0xAF76, offset: 0x2DEFD, size: 0x8, addend: 0x0, symName: __ZNSt3__110unique_ptrINS_15__thread_structENS_14default_deleteIS1_EEE11get_deleterB7v160006Ev, symObjAddr: 0xC2C, symBinAddr: 0x1000112DC, symSize: 0x24 }
  - { offsetInCU: 0xAFA5, offset: 0x2DF2C, size: 0x8, addend: 0x0, symName: __ZNSt3__117__compressed_pairIPNS_15__thread_structENS_14default_deleteIS1_EEEC1B7v160006IS2_S4_EEOT_OT0_, symObjAddr: 0xC50, symBinAddr: 0x100011300, symSize: 0x3C }
  - { offsetInCU: 0xAFFA, offset: 0x2DF81, size: 0x8, addend: 0x0, symName: __ZNSt3__117__compressed_pairIPNS_15__thread_structENS_14default_deleteIS1_EEE5firstB7v160006Ev, symObjAddr: 0xC8C, symBinAddr: 0x10001133C, symSize: 0x24 }
  - { offsetInCU: 0xB01F, offset: 0x2DFA6, size: 0x8, addend: 0x0, symName: __ZNSt3__122__compressed_pair_elemIPNS_15__thread_structELi0ELb0EE5__getB7v160006Ev, symObjAddr: 0xCB0, symBinAddr: 0x100011360, symSize: 0x14 }
  - { offsetInCU: 0xB042, offset: 0x2DFC9, size: 0x8, addend: 0x0, symName: __ZNSt3__117__compressed_pairIPNS_15__thread_structENS_14default_deleteIS1_EEE6secondB7v160006Ev, symObjAddr: 0xCC4, symBinAddr: 0x100011374, symSize: 0x24 }
  - { offsetInCU: 0xB067, offset: 0x2DFEE, size: 0x8, addend: 0x0, symName: __ZNSt3__122__compressed_pair_elemINS_14default_deleteINS_15__thread_structEEELi1ELb1EE5__getB7v160006Ev, symObjAddr: 0xCE8, symBinAddr: 0x100011398, symSize: 0x14 }
  - { offsetInCU: 0xB08B, offset: 0x2E012, size: 0x8, addend: 0x0, symName: __ZNSt3__117__compressed_pairIPNS_15__thread_structENS_14default_deleteIS1_EEEC2B7v160006IS2_S4_EEOT_OT0_, symObjAddr: 0xCFC, symBinAddr: 0x1000113AC, symSize: 0x44 }
  - { offsetInCU: 0xB0E1, offset: 0x2E068, size: 0x8, addend: 0x0, symName: __ZNSt3__122__compressed_pair_elemIPNS_15__thread_structELi0ELb0EEC2B7v160006IS2_vEEOT_, symObjAddr: 0xD40, symBinAddr: 0x1000113F0, symSize: 0x24 }
  - { offsetInCU: 0xB122, offset: 0x2E0A9, size: 0x8, addend: 0x0, symName: __ZNSt3__122__compressed_pair_elemINS_14default_deleteINS_15__thread_structEEELi1ELb1EEC2B7v160006IS3_vEEOT_, symObjAddr: 0xD64, symBinAddr: 0x100011414, symSize: 0x18 }
  - { offsetInCU: 0xB163, offset: 0x2E0EA, size: 0x8, addend: 0x0, symName: __ZNSt3__110unique_ptrINS_5tupleIJNS0_INS_15__thread_structENS_14default_deleteIS2_EEEEPFvPvEP15JobWorkerThreadEEENS3_ISB_EEEC2B7v160006ILb1EvEEPSB_, symObjAddr: 0xD7C, symBinAddr: 0x10001142C, symSize: 0x44 }
  - { offsetInCU: 0xB1A5, offset: 0x2E12C, size: 0x8, addend: 0x0, symName: __ZNSt3__117__compressed_pairIPNS_5tupleIJNS_10unique_ptrINS_15__thread_structENS_14default_deleteIS3_EEEEPFvPvEP15JobWorkerThreadEEENS4_ISC_EEEC1B7v160006IRSD_NS_16__value_init_tagEEEOT_OT0_, symObjAddr: 0xDC0, symBinAddr: 0x100011470, symSize: 0x3C }
  - { offsetInCU: 0xB1FB, offset: 0x2E182, size: 0x8, addend: 0x0, symName: __ZNSt3__117__compressed_pairIPNS_5tupleIJNS_10unique_ptrINS_15__thread_structENS_14default_deleteIS3_EEEEPFvPvEP15JobWorkerThreadEEENS4_ISC_EEEC2B7v160006IRSD_NS_16__value_init_tagEEEOT_OT0_, symObjAddr: 0xDFC, symBinAddr: 0x1000114AC, symSize: 0x40 }
  - { offsetInCU: 0xB251, offset: 0x2E1D8, size: 0x8, addend: 0x0, symName: __ZNSt3__122__compressed_pair_elemIPNS_5tupleIJNS_10unique_ptrINS_15__thread_structENS_14default_deleteIS3_EEEEPFvPvEP15JobWorkerThreadEEELi0ELb0EEC2B7v160006IRSD_vEEOT_, symObjAddr: 0xE3C, symBinAddr: 0x1000114EC, symSize: 0x24 }
  - { offsetInCU: 0xB292, offset: 0x2E219, size: 0x8, addend: 0x0, symName: __ZNSt3__122__compressed_pair_elemINS_14default_deleteINS_5tupleIJNS_10unique_ptrINS_15__thread_structENS1_IS4_EEEEPFvPvEP15JobWorkerThreadEEEEELi1ELb1EEC2B7v160006ENS_16__value_init_tagE, symObjAddr: 0xE60, symBinAddr: 0x100011510, symSize: 0x14 }
  - { offsetInCU: 0xB2F3, offset: 0x2E27A, size: 0x8, addend: 0x0, symName: __ZNSt3__121__thread_specific_ptrINS_15__thread_structEE11set_pointerEPS1_, symObjAddr: 0xE74, symBinAddr: 0x100011524, symSize: 0x30 }
  - { offsetInCU: 0xB327, offset: 0x2E2AE, size: 0x8, addend: 0x0, symName: __ZNSt3__112__tuple_leafILm0ENS_10unique_ptrINS_15__thread_structENS_14default_deleteIS2_EEEELb0EE3getB7v160006Ev, symObjAddr: 0xF30, symBinAddr: 0x1000115E0, symSize: 0x14 }
  - { offsetInCU: 0xB34B, offset: 0x2E2D2, size: 0x8, addend: 0x0, symName: __ZNSt3__112__tuple_leafILm1EPFvPvELb0EE3getB7v160006Ev, symObjAddr: 0xFC8, symBinAddr: 0x100011678, symSize: 0x14 }
  - { offsetInCU: 0xB36F, offset: 0x2E2F6, size: 0x8, addend: 0x0, symName: __ZNSt3__112__tuple_leafILm2EP15JobWorkerThreadLb0EE3getB7v160006Ev, symObjAddr: 0xFDC, symBinAddr: 0x10001168C, symSize: 0x14 }
  - { offsetInCU: 0xB392, offset: 0x2E319, size: 0x8, addend: 0x0, symName: __ZNKSt3__117__compressed_pairIPNS_5tupleIJNS_10unique_ptrINS_15__thread_structENS_14default_deleteIS3_EEEEPFvPvEP15JobWorkerThreadEEENS4_ISC_EEE5firstB7v160006Ev, symObjAddr: 0xFF0, symBinAddr: 0x1000116A0, symSize: 0x24 }
  - { offsetInCU: 0xB3B7, offset: 0x2E33E, size: 0x8, addend: 0x0, symName: __ZNKSt3__122__compressed_pair_elemIPNS_5tupleIJNS_10unique_ptrINS_15__thread_structENS_14default_deleteIS3_EEEEPFvPvEP15JobWorkerThreadEEELi0ELb0EE5__getB7v160006Ev, symObjAddr: 0x1014, symBinAddr: 0x1000116C4, symSize: 0x14 }
  - { offsetInCU: 0xB3DA, offset: 0x2E361, size: 0x8, addend: 0x0, symName: __ZNSt3__117__compressed_pairIPNS_5tupleIJNS_10unique_ptrINS_15__thread_structENS_14default_deleteIS3_EEEEPFvPvEP15JobWorkerThreadEEENS4_ISC_EEE5firstB7v160006Ev, symObjAddr: 0x1028, symBinAddr: 0x1000116D8, symSize: 0x24 }
  - { offsetInCU: 0xB3FF, offset: 0x2E386, size: 0x8, addend: 0x0, symName: __ZNSt3__122__compressed_pair_elemIPNS_5tupleIJNS_10unique_ptrINS_15__thread_structENS_14default_deleteIS3_EEEEPFvPvEP15JobWorkerThreadEEELi0ELb0EE5__getB7v160006Ev, symObjAddr: 0x104C, symBinAddr: 0x1000116FC, symSize: 0x14 }
  - { offsetInCU: 0xB423, offset: 0x2E3AA, size: 0x8, addend: 0x0, symName: __ZNSt3__110unique_ptrINS_5tupleIJNS0_INS_15__thread_structENS_14default_deleteIS2_EEEEPFvPvEP15JobWorkerThreadEEENS3_ISB_EEED2B7v160006Ev, symObjAddr: 0x1060, symBinAddr: 0x100011710, symSize: 0x30 }
  - { offsetInCU: 0xB44A, offset: 0x2E3D1, size: 0x8, addend: 0x0, symName: __ZNSt3__110unique_ptrINS_5tupleIJNS0_INS_15__thread_structENS_14default_deleteIS2_EEEEPFvPvEP15JobWorkerThreadEEENS3_ISB_EEE5resetB7v160006EPSB_, symObjAddr: 0x1090, symBinAddr: 0x100011740, symSize: 0x78 }
  - { offsetInCU: 0xB48C, offset: 0x2E413, size: 0x8, addend: 0x0, symName: __ZNSt3__117__compressed_pairIPNS_5tupleIJNS_10unique_ptrINS_15__thread_structENS_14default_deleteIS3_EEEEPFvPvEP15JobWorkerThreadEEENS4_ISC_EEE6secondB7v160006Ev, symObjAddr: 0x1108, symBinAddr: 0x1000117B8, symSize: 0x24 }
  - { offsetInCU: 0xB4B0, offset: 0x2E437, size: 0x8, addend: 0x0, symName: __ZNKSt3__114default_deleteINS_5tupleIJNS_10unique_ptrINS_15__thread_structENS0_IS3_EEEEPFvPvEP15JobWorkerThreadEEEEclB7v160006EPSB_, symObjAddr: 0x112C, symBinAddr: 0x1000117DC, symSize: 0x4C }
  - { offsetInCU: 0xB4E3, offset: 0x2E46A, size: 0x8, addend: 0x0, symName: __ZNSt3__122__compressed_pair_elemINS_14default_deleteINS_5tupleIJNS_10unique_ptrINS_15__thread_structENS1_IS4_EEEEPFvPvEP15JobWorkerThreadEEEEELi1ELb1EE5__getB7v160006Ev, symObjAddr: 0x1178, symBinAddr: 0x100011828, symSize: 0x14 }
  - { offsetInCU: 0xB507, offset: 0x2E48E, size: 0x8, addend: 0x0, symName: __ZNSt3__15tupleIJNS_10unique_ptrINS_15__thread_structENS_14default_deleteIS2_EEEEPFvPvEP15JobWorkerThreadEED1Ev, symObjAddr: 0x118C, symBinAddr: 0x10001183C, symSize: 0x2C }
  - { offsetInCU: 0xB533, offset: 0x2E4BA, size: 0x8, addend: 0x0, symName: __ZNSt3__15tupleIJNS_10unique_ptrINS_15__thread_structENS_14default_deleteIS2_EEEEPFvPvEP15JobWorkerThreadEED2Ev, symObjAddr: 0x11B8, symBinAddr: 0x100011868, symSize: 0x2C }
  - { offsetInCU: 0xB55F, offset: 0x2E4E6, size: 0x8, addend: 0x0, symName: __ZNSt3__112__tuple_implINS_15__tuple_indicesIJLm0ELm1ELm2EEEEJNS_10unique_ptrINS_15__thread_structENS_14default_deleteIS4_EEEEPFvPvEP15JobWorkerThreadEED1Ev, symObjAddr: 0x11E4, symBinAddr: 0x100011894, symSize: 0x2C }
  - { offsetInCU: 0xB58B, offset: 0x2E512, size: 0x8, addend: 0x0, symName: __ZNSt3__112__tuple_implINS_15__tuple_indicesIJLm0ELm1ELm2EEEEJNS_10unique_ptrINS_15__thread_structENS_14default_deleteIS4_EEEEPFvPvEP15JobWorkerThreadEED2Ev, symObjAddr: 0x1210, symBinAddr: 0x1000118C0, symSize: 0x2C }
  - { offsetInCU: 0xB5B7, offset: 0x2E53E, size: 0x8, addend: 0x0, symName: __ZNSt3__112__tuple_leafILm0ENS_10unique_ptrINS_15__thread_structENS_14default_deleteIS2_EEEELb0EED2Ev, symObjAddr: 0x123C, symBinAddr: 0x1000118EC, symSize: 0x2C }
  - { offsetInCU: 0xB5E3, offset: 0x2E56A, size: 0x8, addend: 0x0, symName: __ZNSt3__110unique_ptrINS_15__thread_structENS_14default_deleteIS1_EEED2B7v160006Ev, symObjAddr: 0x1268, symBinAddr: 0x100011918, symSize: 0x30 }
  - { offsetInCU: 0xB60A, offset: 0x2E591, size: 0x8, addend: 0x0, symName: __ZNSt3__110unique_ptrINS_15__thread_structENS_14default_deleteIS1_EEE5resetB7v160006EPS1_, symObjAddr: 0x1298, symBinAddr: 0x100011948, symSize: 0x78 }
  - { offsetInCU: 0xB64C, offset: 0x2E5D3, size: 0x8, addend: 0x0, symName: __ZNKSt3__114default_deleteINS_15__thread_structEEclB7v160006EPS1_, symObjAddr: 0x1310, symBinAddr: 0x1000119C0, symSize: 0x4C }
  - { offsetInCU: 0xB67F, offset: 0x2E606, size: 0x8, addend: 0x0, symName: __ZNSt3__16chrono8durationIxNS_5ratioILl1ELl1000000EEEE4zeroB7v160006Ev, symObjAddr: 0x138C, symBinAddr: 0x100011A3C, symSize: 0x3C }
  - { offsetInCU: 0xB693, offset: 0x2E61A, size: 0x8, addend: 0x0, symName: __ZNSt3__16chrono8durationIxNS_5ratioILl1ELl1000000000EEEEppB7v160006Ev, symObjAddr: 0x1460, symBinAddr: 0x100011B10, symSize: 0x20 }
  - { offsetInCU: 0xB6B7, offset: 0x2E63E, size: 0x8, addend: 0x0, symName: __ZNSt3__16chrono8durationIxNS_5ratioILl1ELl1000000000EEEE3maxB7v160006Ev, symObjAddr: 0x1480, symBinAddr: 0x100011B30, symSize: 0x3C }
  - { offsetInCU: 0xB6D4, offset: 0x2E65B, size: 0x8, addend: 0x0, symName: __ZNKSt3__16chrono13__duration_ltINS0_8durationIxNS_5ratioILl1ELl1000000EEEEES5_EclB7v160006ERKS5_S8_, symObjAddr: 0x14F0, symBinAddr: 0x100011BA0, symSize: 0x4C }
  - { offsetInCU: 0xB717, offset: 0x2E69E, size: 0x8, addend: 0x0, symName: __ZNKSt3__16chrono8durationIxNS_5ratioILl1ELl1000000EEEE5countB7v160006Ev, symObjAddr: 0x153C, symBinAddr: 0x100011BEC, symSize: 0x18 }
  - { offsetInCU: 0xB73B, offset: 0x2E6C2, size: 0x8, addend: 0x0, symName: __ZNSt3__16chrono15duration_valuesIxE4zeroB7v160006Ev, symObjAddr: 0x1554, symBinAddr: 0x100011C04, symSize: 0x8 }
  - { offsetInCU: 0xB758, offset: 0x2E6DF, size: 0x8, addend: 0x0, symName: __ZNSt3__16chrono8durationIxNS_5ratioILl1ELl1000000EEEEC1B7v160006IxEERKT_PNS_9enable_ifIXaasr14is_convertibleIS8_xEE5valueooL_ZNS_17integral_constantIbLb0EE5valueEEntsr23treat_as_floating_pointIS6_EE5valueEvE4typeE, symObjAddr: 0x155C, symBinAddr: 0x100011C0C, symSize: 0x3C }
  - { offsetInCU: 0xB7A3, offset: 0x2E72A, size: 0x8, addend: 0x0, symName: __ZNSt3__16chrono8durationIxNS_5ratioILl1ELl1000000EEEEC2B7v160006IxEERKT_PNS_9enable_ifIXaasr14is_convertibleIS8_xEE5valueooL_ZNS_17integral_constantIbLb0EE5valueEEntsr23treat_as_floating_pointIS6_EE5valueEvE4typeE, symObjAddr: 0x1598, symBinAddr: 0x100011C48, symSize: 0x28 }
  - { offsetInCU: 0xB7EE, offset: 0x2E775, size: 0x8, addend: 0x0, symName: __ZNSt3__16chrono8durationIeNS_5ratioILl1ELl1000000EEEEC1B7v160006IxS3_EERKNS1_IT_T0_EEPNS_9enable_ifIXaasr13__no_overflowIS7_S3_EE5valueooL_ZNS_17integral_constantIbLb1EE5valueEEaaeqsr13__no_overflowIS7_S3_E4typeE3denLi1Entsr23treat_as_floating_pointIS6_EE5valueEvE4typeE, symObjAddr: 0x1638, symBinAddr: 0x100011CE8, symSize: 0x3C }
  - { offsetInCU: 0xB843, offset: 0x2E7CA, size: 0x8, addend: 0x0, symName: __ZNKSt3__16chrono8durationIeNS_5ratioILl1ELl1000000EEEE5countB7v160006Ev, symObjAddr: 0x1674, symBinAddr: 0x100011D24, symSize: 0x18 }
  - { offsetInCU: 0xB867, offset: 0x2E7EE, size: 0x8, addend: 0x0, symName: __ZNSt3__16chrono8durationIeNS_5ratioILl1ELl1000000EEEEC1B7v160006IeNS2_ILl1ELl1EEEEERKNS1_IT_T0_EEPNS_9enable_ifIXaasr13__no_overflowIS8_S3_EE5valueooL_ZNS_17integral_constantIbLb1EE5valueEEaaeqsr13__no_overflowIS8_S3_E4typeE3denLi1Entsr23treat_as_floating_pointIS7_EE5valueEvE4typeE, symObjAddr: 0x168C, symBinAddr: 0x100011D3C, symSize: 0x3C }
  - { offsetInCU: 0xB8BC, offset: 0x2E843, size: 0x8, addend: 0x0, symName: __ZNSt3__16chrono8durationIeNS_5ratioILl1ELl1000000EEEEC2B7v160006IxS3_EERKNS1_IT_T0_EEPNS_9enable_ifIXaasr13__no_overflowIS7_S3_EE5valueooL_ZNS_17integral_constantIbLb1EE5valueEEaaeqsr13__no_overflowIS7_S3_E4typeE3denLi1Entsr23treat_as_floating_pointIS6_EE5valueEvE4typeE, symObjAddr: 0x16C8, symBinAddr: 0x100011D78, symSize: 0x48 }
  - { offsetInCU: 0xB91A, offset: 0x2E8A1, size: 0x8, addend: 0x0, symName: __ZNKSt3__16chrono15__duration_castINS0_8durationIxNS_5ratioILl1ELl1000000EEEEENS2_IeS4_EENS3_ILl1ELl1EEELb1ELb1EEclB7v160006ERKS5_, symObjAddr: 0x1740, symBinAddr: 0x100011DF0, symSize: 0x44 }
  - { offsetInCU: 0xB957, offset: 0x2E8DE, size: 0x8, addend: 0x0, symName: __ZNSt3__16chrono8durationIeNS_5ratioILl1ELl1000000EEEEC1B7v160006IeEERKT_PNS_9enable_ifIXaasr14is_convertibleIS8_eEE5valueooL_ZNS_17integral_constantIbLb1EE5valueEEntsr23treat_as_floating_pointIS6_EE5valueEvE4typeE, symObjAddr: 0x1784, symBinAddr: 0x100011E34, symSize: 0x3C }
  - { offsetInCU: 0xB9A2, offset: 0x2E929, size: 0x8, addend: 0x0, symName: __ZNSt3__16chrono8durationIeNS_5ratioILl1ELl1000000EEEEC2B7v160006IeEERKT_PNS_9enable_ifIXaasr14is_convertibleIS8_eEE5valueooL_ZNS_17integral_constantIbLb1EE5valueEEntsr23treat_as_floating_pointIS6_EE5valueEvE4typeE, symObjAddr: 0x17C0, symBinAddr: 0x100011E70, symSize: 0x28 }
  - { offsetInCU: 0xB9ED, offset: 0x2E974, size: 0x8, addend: 0x0, symName: __ZNSt3__16chrono8durationIeNS_5ratioILl1ELl1000000EEEEC2B7v160006IeNS2_ILl1ELl1EEEEERKNS1_IT_T0_EEPNS_9enable_ifIXaasr13__no_overflowIS8_S3_EE5valueooL_ZNS_17integral_constantIbLb1EE5valueEEaaeqsr13__no_overflowIS8_S3_E4typeE3denLi1Entsr23treat_as_floating_pointIS7_EE5valueEvE4typeE, symObjAddr: 0x17E8, symBinAddr: 0x100011E98, symSize: 0x48 }
  - { offsetInCU: 0xBA42, offset: 0x2E9C9, size: 0x8, addend: 0x0, symName: __ZNKSt3__16chrono8durationIeNS_5ratioILl1ELl1EEEE5countB7v160006Ev, symObjAddr: 0x18AC, symBinAddr: 0x100011F5C, symSize: 0x18 }
  - { offsetInCU: 0xBA66, offset: 0x2E9ED, size: 0x8, addend: 0x0, symName: __ZNSt3__16chrono8durationIxNS_5ratioILl1ELl1000000000EEEEC1B7v160006IxEERKT_PNS_9enable_ifIXaasr14is_convertibleIS8_xEE5valueooL_ZNS_17integral_constantIbLb0EE5valueEEntsr23treat_as_floating_pointIS6_EE5valueEvE4typeE, symObjAddr: 0x190C, symBinAddr: 0x100011FBC, symSize: 0x3C }
  - { offsetInCU: 0xBAB1, offset: 0x2EA38, size: 0x8, addend: 0x0, symName: __ZNSt3__16chrono8durationIxNS_5ratioILl1ELl1000000000EEEEC2B7v160006IxEERKT_PNS_9enable_ifIXaasr14is_convertibleIS8_xEE5valueooL_ZNS_17integral_constantIbLb0EE5valueEEntsr23treat_as_floating_pointIS6_EE5valueEvE4typeE, symObjAddr: 0x1948, symBinAddr: 0x100011FF8, symSize: 0x28 }
  - { offsetInCU: 0xBAFC, offset: 0x2EA83, size: 0x8, addend: 0x0, symName: __ZNKSt3__16chrono8durationIxNS_5ratioILl1ELl1000000000EEEE5countB7v160006Ev, symObjAddr: 0x19DC, symBinAddr: 0x10001208C, symSize: 0x18 }
  - { offsetInCU: 0xBB20, offset: 0x2EAA7, size: 0x8, addend: 0x0, symName: __ZNSt3__16chrono8durationIxNS_5ratioILl1ELl1000000000EEEEC1B7v160006IxNS2_ILl1ELl1000000EEEEERKNS1_IT_T0_EEPNS_9enable_ifIXaasr13__no_overflowIS8_S3_EE5valueooL_ZNS_17integral_constantIbLb0EE5valueEEaaeqsr13__no_overflowIS8_S3_E4typeE3denLi1Entsr23treat_as_floating_pointIS7_EE5valueEvE4typeE, symObjAddr: 0x19F4, symBinAddr: 0x1000120A4, symSize: 0x3C }
  - { offsetInCU: 0xBB75, offset: 0x2EAFC, size: 0x8, addend: 0x0, symName: __ZNSt3__16chrono8durationIxNS_5ratioILl1ELl1000000000EEEEC2B7v160006IxNS2_ILl1ELl1000000EEEEERKNS1_IT_T0_EEPNS_9enable_ifIXaasr13__no_overflowIS8_S3_EE5valueooL_ZNS_17integral_constantIbLb0EE5valueEEaaeqsr13__no_overflowIS8_S3_E4typeE3denLi1Entsr23treat_as_floating_pointIS7_EE5valueEvE4typeE, symObjAddr: 0x1A30, symBinAddr: 0x1000120E0, symSize: 0x50 }
  - { offsetInCU: 0xBBCA, offset: 0x2EB51, size: 0x8, addend: 0x0, symName: __ZNSt3__16chrono15duration_valuesIxE3maxB7v160006Ev, symObjAddr: 0x1A80, symBinAddr: 0x100012130, symSize: 0x14 }
  - { offsetInCU: 0xBBDE, offset: 0x2EB65, size: 0x8, addend: 0x0, symName: __ZNSt3__114numeric_limitsIxE3maxB7v160006Ev, symObjAddr: 0x1A94, symBinAddr: 0x100012144, symSize: 0x14 }
  - { offsetInCU: 0xBBF2, offset: 0x2EB79, size: 0x8, addend: 0x0, symName: __ZNSt3__123__libcpp_numeric_limitsIxLb1EE3maxB7v160006Ev, symObjAddr: 0x1AA8, symBinAddr: 0x100012158, symSize: 0x8 }
  - { offsetInCU: 0x3056, offset: 0x31C89, size: 0x8, addend: 0x0, symName: __ZNSt3__115regex_constants13__get_grammarB7v160006ENS0_18syntax_option_typeE, symObjAddr: 0x4200, symBinAddr: 0x100015064, symSize: 0x18 }
  - { offsetInCU: 0x3085, offset: 0x31CB8, size: 0x8, addend: 0x0, symName: __ZNSt3__115regex_constantsoRB7v160006ERNS0_18syntax_option_typeES1_, symObjAddr: 0x4218, symBinAddr: 0x10001507C, symSize: 0x3C }
  - { offsetInCU: 0x30C2, offset: 0x31CF5, size: 0x8, addend: 0x0, symName: __ZNSt3__115regex_constantsorB7v160006ENS0_18syntax_option_typeES1_, symObjAddr: 0x44D0, symBinAddr: 0x100015334, symSize: 0x20 }
  - { offsetInCU: 0x3100, offset: 0x31D33, size: 0x8, addend: 0x0, symName: __ZNSt3__115regex_constantsanB7v160006ENS0_18syntax_option_typeES1_, symObjAddr: 0x7728, symBinAddr: 0x10001858C, symSize: 0x20 }
  - { offsetInCU: 0x313E, offset: 0x31D71, size: 0x8, addend: 0x0, symName: __ZNSt3__115regex_constantsanB7v160006ENS0_15match_flag_typeES1_, symObjAddr: 0x7948, symBinAddr: 0x1000187AC, symSize: 0x20 }
  - { offsetInCU: 0x317C, offset: 0x31DAF, size: 0x8, addend: 0x0, symName: __ZNSt3__115regex_constantsorB7v160006ENS0_15match_flag_typeES1_, symObjAddr: 0x8F64, symBinAddr: 0x100019DB4, symSize: 0x20 }
  - { offsetInCU: 0x31BA, offset: 0x31DED, size: 0x8, addend: 0x0, symName: __ZNSt3__115regex_constantscoB7v160006ENS0_15match_flag_typeE, symObjAddr: 0x8F84, symBinAddr: 0x100019DD4, symSize: 0x1C }
  - { offsetInCU: 0x8E45, offset: 0x37A78, size: 0x8, addend: 0x0, symName: __ZNSt3__17advanceB7v160006IPKcllvEEvRT_T0_, symObjAddr: 0x7A00, symBinAddr: 0x100018864, symSize: 0x50 }
  - { offsetInCU: 0x17FAB, offset: 0x46BDE, size: 0x8, addend: 0x0, symName: __ZNSt3__17getlineB7v160006IcNS_11char_traitsIcEENS_9allocatorIcEEEERNS_13basic_istreamIT_T0_EES9_RNS_12basic_stringIS6_S7_T1_EES6_, symObjAddr: 0x658, symBinAddr: 0x100012674, symSize: 0x238 }
  - { offsetInCU: 0x18069, offset: 0x46C9C, size: 0x8, addend: 0x0, symName: __ZNSt3__17getlineB7v160006IcNS_11char_traitsIcEENS_9allocatorIcEEEERNS_13basic_istreamIT_T0_EES9_RNS_12basic_stringIS6_S7_T1_EE, symObjAddr: 0x890, symBinAddr: 0x1000128AC, symSize: 0x5C }
  - { offsetInCU: 0x180C1, offset: 0x46CF4, size: 0x8, addend: 0x0, symName: __ZNSt3__1eqB7v160006ERKNS_19__hash_map_iteratorINS_15__hash_iteratorIPNS_11__hash_nodeINS_17__hash_value_typeINS_12basic_stringIcNS_11char_traitsIcEENS_9allocatorIcEEEENS_6vectorI5ErrorNS7_ISB_EEEEEEPvEEEEEESL_, symObjAddr: 0x92C, symBinAddr: 0x100012948, symSize: 0x30 }
  - { offsetInCU: 0x18109, offset: 0x46D3C, size: 0x8, addend: 0x0, symName: __ZNSt3__122__make_exception_guardB7v160006INS_6vectorI5ErrorNS_9allocatorIS2_EEE16__destroy_vectorEEENS_28__exception_guard_exceptionsIT_EES8_, symObjAddr: 0xEA0, symBinAddr: 0x100012EAC, symSize: 0x40 }
  - { offsetInCU: 0x1813E, offset: 0x46D71, size: 0x8, addend: 0x0, symName: __ZNSt3__119__debug_db_insert_cB7v160006INS_6vectorI5ErrorNS_9allocatorIS2_EEEEEEvPT_, symObjAddr: 0xF14, symBinAddr: 0x100012F20, symSize: 0x10 }
  - { offsetInCU: 0x1816F, offset: 0x46DA2, size: 0x8, addend: 0x0, symName: __ZNSt3__119__allocate_at_leastB7v160006INS_9allocatorI5ErrorEEEENS_19__allocation_resultINS_16allocator_traitsIT_E7pointerEEERS6_m, symObjAddr: 0x1278, symBinAddr: 0x100013284, symSize: 0x40 }
  - { offsetInCU: 0x181B2, offset: 0x46DE5, size: 0x8, addend: 0x0, symName: __ZNSt3__112__to_addressB7v160006I5ErrorEEPT_S3_, symObjAddr: 0x182C, symBinAddr: 0x100013574, symSize: 0x14 }
  - { offsetInCU: 0x181E7, offset: 0x46E1A, size: 0x8, addend: 0x0, symName: __ZNSt3__130__uninitialized_allocator_copyB7v160006INS_9allocatorI5ErrorEEPS2_S4_S4_EET2_RT_T0_T1_S5_, symObjAddr: 0x18DC, symBinAddr: 0x100013624, symSize: 0xF4 }
  - { offsetInCU: 0x18285, offset: 0x46EB8, size: 0x8, addend: 0x0, symName: __ZNSt3__122__make_exception_guardB7v160006INS_29_AllocatorDestroyRangeReverseINS_9allocatorI5ErrorEEPS3_EEEENS_28__exception_guard_exceptionsIT_EES8_, symObjAddr: 0x1A48, symBinAddr: 0x100013790, symSize: 0x4C }
  - { offsetInCU: 0x182BB, offset: 0x46EEE, size: 0x8, addend: 0x0, symName: __ZNSt3__119__allocator_destroyB7v160006INS_9allocatorI5ErrorEENS_16reverse_iteratorIPS2_EES6_EEvRT_T0_T1_, symObjAddr: 0x1D88, symBinAddr: 0x100013AD0, symSize: 0x70 }
  - { offsetInCU: 0x1831F, offset: 0x46F52, size: 0x8, addend: 0x0, symName: __ZNSt3__1neB7v160006IP5ErrorS2_EEbRKNS_16reverse_iteratorIT_EERKNS3_IT0_EE, symObjAddr: 0x1E2C, symBinAddr: 0x100013B74, symSize: 0x48 }
  - { offsetInCU: 0x1836B, offset: 0x46F9E, size: 0x8, addend: 0x0, symName: __ZNSt3__112__to_addressB7v160006INS_16reverse_iteratorIP5ErrorEEvEENS_5decayIDTclsr19__to_address_helperIT_EE6__callclsr3stdE7declvalIRKS6_EEEEE4typeES8_, symObjAddr: 0x1EA0, symBinAddr: 0x100013BE8, symSize: 0x24 }
  - { offsetInCU: 0x183CC, offset: 0x46FFF, size: 0x8, addend: 0x0, symName: __ZNSt3__118__debug_db_erase_cB7v160006INS_6vectorI5ErrorNS_9allocatorIS2_EEEEEEvPT_, symObjAddr: 0x21B0, symBinAddr: 0x100013EF8, symSize: 0x10 }
  - { offsetInCU: 0x183FD, offset: 0x47030, size: 0x8, addend: 0x0, symName: __ZNSt3__134__libcpp_atomic_refcount_decrementB7v160006IlEET_RS1_, symObjAddr: 0x2600, symBinAddr: 0x100014240, symSize: 0x30 }
  - { offsetInCU: 0x18432, offset: 0x47065, size: 0x8, addend: 0x0, symName: __ZNSt3__118__debug_db_erase_cB7v160006INS_12__hash_tableINS_17__hash_value_typeINS_12basic_stringIcNS_11char_traitsIcEENS_9allocatorIcEEEENS_6vectorI5ErrorNS6_ISA_EEEEEENS_22__unordered_map_hasherIS8_SD_NS_4hashIS8_EENS_8equal_toIS8_EELb1EEENS_21__unordered_map_equalIS8_SD_SI_SG_Lb1EEENS6_ISD_EEEEEEvPT_, symObjAddr: 0x2998, symBinAddr: 0x100014598, symSize: 0x10 }
  - { offsetInCU: 0x18496, offset: 0x470C9, size: 0x8, addend: 0x0, symName: __ZNSt3__17launderB7v160006INS_4pairIKNS_12basic_stringIcNS_11char_traitsIcEENS_9allocatorIcEEEENS_6vectorI5ErrorNS5_ISA_EEEEEEEEPT_SF_, symObjAddr: 0x2B10, symBinAddr: 0x100014710, symSize: 0x24 }
  - { offsetInCU: 0x184CD, offset: 0x47100, size: 0x8, addend: 0x0, symName: __ZNSt3__19__launderB7v160006INS_4pairIKNS_12basic_stringIcNS_11char_traitsIcEENS_9allocatorIcEEEENS_6vectorI5ErrorNS5_ISA_EEEEEEEEPT_SF_, symObjAddr: 0x2B34, symBinAddr: 0x100014734, symSize: 0x14 }
  - { offsetInCU: 0x18505, offset: 0x47138, size: 0x8, addend: 0x0, symName: __ZNSt3__19use_facetB7v160006INS_7collateIcEEEERKT_RKNS_6localeE, symObjAddr: 0x41B8, symBinAddr: 0x10001501C, symSize: 0x2C }
  - { offsetInCU: 0x1853D, offset: 0x47170, size: 0x8, addend: 0x0, symName: __ZNSt3__119__throw_regex_errorB7v160006ILNS_15regex_constants10error_typeE17EEEvv, symObjAddr: 0x4470, symBinAddr: 0x1000152D4, symSize: 0x60 }
  - { offsetInCU: 0x189D2, offset: 0x47605, size: 0x8, addend: 0x0, symName: __ZNSt3__119__throw_regex_errorB7v160006ILNS_15regex_constants10error_typeE14EEEvv, symObjAddr: 0x4CEC, symBinAddr: 0x100015B50, symSize: 0x60 }
  - { offsetInCU: 0x195A4, offset: 0x481D7, size: 0x8, addend: 0x0, symName: __ZNSt3__14swapB7v160006IPNS_13__empty_stateIcEEEENS_9enable_ifIXaasr21is_move_constructibleIT_EE5valuesr18is_move_assignableIS5_EE5valueEvE4typeERS5_S8_, symObjAddr: 0x5C40, symBinAddr: 0x100016AA4, symSize: 0x3C }
  - { offsetInCU: 0x195F5, offset: 0x48228, size: 0x8, addend: 0x0, symName: __ZNSt3__14swapB7v160006IPNS_19__shared_weak_countEEENS_9enable_ifIXaasr21is_move_constructibleIT_EE5valuesr18is_move_assignableIS4_EE5valueEvE4typeERS4_S7_, symObjAddr: 0x5C7C, symBinAddr: 0x100016AE0, symSize: 0x3C }
  - { offsetInCU: 0x19646, offset: 0x48279, size: 0x8, addend: 0x0, symName: __ZNSt3__14nextB7v160006IPKcEENS_9enable_ifIXsr25__is_cpp17_input_iteratorIT_EE5valueES4_E4typeES4_NS_15iterator_traitsIS4_E15difference_typeE, symObjAddr: 0x740C, symBinAddr: 0x100018270, symSize: 0x48 }
  - { offsetInCU: 0x1968A, offset: 0x482BD, size: 0x8, addend: 0x0, symName: __ZNSt3__119__throw_regex_errorB7v160006ILNS_15regex_constants10error_typeE6EEEvv, symObjAddr: 0x7614, symBinAddr: 0x100018478, symSize: 0x60 }
  - { offsetInCU: 0x19736, offset: 0x48369, size: 0x8, addend: 0x0, symName: __ZNSt3__18__is_eolB7v160006IcEEbT_, symObjAddr: 0x7968, symBinAddr: 0x1000187CC, symSize: 0x48 }
  - { offsetInCU: 0x1976E, offset: 0x483A1, size: 0x8, addend: 0x0, symName: __ZNSt3__14prevB7v160006IPKcEENS_9enable_ifIXsr25__is_cpp17_input_iteratorIT_EE5valueES4_E4typeES4_NS_15iterator_traitsIS4_E15difference_typeE, symObjAddr: 0x79B0, symBinAddr: 0x100018814, symSize: 0x50 }
  - { offsetInCU: 0x197B1, offset: 0x483E4, size: 0x8, addend: 0x0, symName: __ZNSt3__19__advanceB7v160006IPKcEEvRT_NS_15iterator_traitsIS3_E15difference_typeENS_26random_access_iterator_tagE, symObjAddr: 0x7A64, symBinAddr: 0x1000188B4, symSize: 0x28 }
  - { offsetInCU: 0x19A05, offset: 0x48638, size: 0x8, addend: 0x0, symName: __ZNSt3__134__libcpp_atomic_refcount_incrementB7v160006IlEET_RS1_, symObjAddr: 0x882C, symBinAddr: 0x10001967C, symSize: 0x30 }
  - { offsetInCU: 0x19D22, offset: 0x48955, size: 0x8, addend: 0x0, symName: __ZNSt3__119__debug_db_insert_cB7v160006INS_6vectorINS_9sub_matchIPKcEENS_9allocatorIS5_EEEEEEvPT_, symObjAddr: 0x92B4, symBinAddr: 0x10001A104, symSize: 0x10 }
  - { offsetInCU: 0x19D53, offset: 0x48986, size: 0x8, addend: 0x0, symName: __ZNSt3__118__debug_db_erase_cB7v160006INS_6vectorINS_9sub_matchIPKcEENS_9allocatorIS5_EEEEEEvPT_, symObjAddr: 0x9590, symBinAddr: 0x10001A3E0, symSize: 0x10 }
  - { offsetInCU: 0x19D84, offset: 0x489B7, size: 0x8, addend: 0x0, symName: __ZNSt3__112__to_addressB7v160006INS_9sub_matchIPKcEEEEPT_S6_, symObjAddr: 0x96D4, symBinAddr: 0x10001A524, symSize: 0x14 }
  - { offsetInCU: 0x19DB9, offset: 0x489EC, size: 0x8, addend: 0x0, symName: __ZNSt3__16fill_nB7v160006IPNS_9sub_matchIPKcEEmS4_EET_S6_T0_RKT1_, symObjAddr: 0x99A8, symBinAddr: 0x10001A7F8, symSize: 0x44 }
  - { offsetInCU: 0x19E1C, offset: 0x48A4F, size: 0x8, addend: 0x0, symName: __ZNSt3__125__debug_db_invalidate_allB7v160006INS_6vectorINS_9sub_matchIPKcEENS_9allocatorIS5_EEEEEEvPT_, symObjAddr: 0x9D10, symBinAddr: 0x10001AB60, symSize: 0x10 }
  - { offsetInCU: 0x19E4D, offset: 0x48A80, size: 0x8, addend: 0x0, symName: __ZNSt3__18__fill_nB7v160006IPNS_9sub_matchIPKcEEmS4_EET_S6_T0_RKT1_, symObjAddr: 0x9D20, symBinAddr: 0x10001AB70, symSize: 0x6C }
  - { offsetInCU: 0x19EB0, offset: 0x48AE3, size: 0x8, addend: 0x0, symName: __ZNSt3__121__convert_to_integralB7v160006Em, symObjAddr: 0x9D8C, symBinAddr: 0x10001ABDC, symSize: 0x14 }
  - { offsetInCU: 0x19EDC, offset: 0x48B0F, size: 0x8, addend: 0x0, symName: __ZNSt3__119__allocate_at_leastB7v160006INS_9allocatorINS_9sub_matchIPKcEEEEEENS_19__allocation_resultINS_16allocator_traitsIT_E7pointerEEERS9_m, symObjAddr: 0xA0EC, symBinAddr: 0x10001AF3C, symSize: 0x40 }
  - { offsetInCU: 0x19F20, offset: 0x48B53, size: 0x8, addend: 0x0, symName: __ZNSt3__119__throw_regex_errorB7v160006ILNS_15regex_constants10error_typeE12EEEvv, symObjAddr: 0xA5C8, symBinAddr: 0x10001B398, symSize: 0x60 }
  - { offsetInCU: 0x19F46, offset: 0x48B79, size: 0x8, addend: 0x0, symName: __ZNSt3__119__throw_regex_errorB7v160006ILNS_15regex_constants10error_typeE16EEEvv, symObjAddr: 0xA688, symBinAddr: 0x10001B458, symSize: 0x60 }
  - { offsetInCU: 0x19F6B, offset: 0x48B9E, size: 0x8, addend: 0x0, symName: __ZNSt3__119__debug_db_insert_cB7v160006INS_6vectorINS_7__stateIcEENS_9allocatorIS3_EEEEEEvPT_, symObjAddr: 0xA7D0, symBinAddr: 0x10001B5A0, symSize: 0x10 }
  - { offsetInCU: 0x19F9C, offset: 0x48BCF, size: 0x8, addend: 0x0, symName: __ZNSt3__112__to_addressB7v160006INS_7__stateIcEEEEPT_S4_, symObjAddr: 0xAB08, symBinAddr: 0x10001B8D8, symSize: 0x14 }
  - { offsetInCU: 0x19FD1, offset: 0x48C04, size: 0x8, addend: 0x0, symName: __ZNSt3__115__debug_db_swapB7v160006INS_6vectorINS_9sub_matchIPKcEENS_9allocatorIS5_EEEEEEvPT_SA_, symObjAddr: 0xADF0, symBinAddr: 0x10001BBC0, symSize: 0x14 }
  - { offsetInCU: 0x1A010, offset: 0x48C43, size: 0x8, addend: 0x0, symName: __ZNSt3__119__debug_db_insert_cB7v160006INS_6vectorINS_4pairImPKcEENS_9allocatorIS5_EEEEEEvPT_, symObjAddr: 0xAFA4, symBinAddr: 0x10001BD74, symSize: 0x10 }
  - { offsetInCU: 0x1A041, offset: 0x48C74, size: 0x8, addend: 0x0, symName: __ZNSt3__115__debug_db_swapB7v160006INS_6vectorINS_4pairImPKcEENS_9allocatorIS5_EEEEEEvPT_SA_, symObjAddr: 0xAFB4, symBinAddr: 0x10001BD84, symSize: 0x14 }
  - { offsetInCU: 0x1A080, offset: 0x48CB3, size: 0x8, addend: 0x0, symName: __ZNSt3__119__allocate_at_leastB7v160006INS_9allocatorINS_7__stateIcEEEEEENS_19__allocation_resultINS_16allocator_traitsIT_E7pointerEEERS7_m, symObjAddr: 0xB668, symBinAddr: 0x10001C438, symSize: 0x40 }
  - { offsetInCU: 0x1A0C3, offset: 0x48CF6, size: 0x8, addend: 0x0, symName: __ZNSt3__142__uninitialized_allocator_move_if_noexceptB7v160006INS_9allocatorINS_7__stateIcEEEENS_16reverse_iteratorIPS3_EES7_S7_EET2_RT_T0_T1_S8_, symObjAddr: 0xB8F4, symBinAddr: 0x10001C6C4, symSize: 0x12C }
  - { offsetInCU: 0x1A163, offset: 0x48D96, size: 0x8, addend: 0x0, symName: __ZNSt3__14swapB7v160006IPNS_7__stateIcEEEENS_9enable_ifIXaasr21is_move_constructibleIT_EE5valuesr18is_move_assignableIS5_EE5valueEvE4typeERS5_S8_, symObjAddr: 0xBA6C, symBinAddr: 0x10001C83C, symSize: 0x3C }
  - { offsetInCU: 0x1A1B4, offset: 0x48DE7, size: 0x8, addend: 0x0, symName: __ZNSt3__125__debug_db_invalidate_allB7v160006INS_6vectorINS_7__stateIcEENS_9allocatorIS3_EEEEEEvPT_, symObjAddr: 0xBB70, symBinAddr: 0x10001C940, symSize: 0x10 }
  - { offsetInCU: 0x1A1E5, offset: 0x48E18, size: 0x8, addend: 0x0, symName: __ZNSt3__122__make_exception_guardB7v160006INS_29_AllocatorDestroyRangeReverseINS_9allocatorINS_7__stateIcEEEENS_16reverse_iteratorIPS4_EEEEEENS_28__exception_guard_exceptionsIT_EESB_, symObjAddr: 0xBBC8, symBinAddr: 0x10001C998, symSize: 0x4C }
  - { offsetInCU: 0x1A21B, offset: 0x48E4E, size: 0x8, addend: 0x0, symName: __ZNSt3__1neB7v160006IPNS_7__stateIcEES3_EEbRKNS_16reverse_iteratorIT_EERKNS4_IT0_EE, symObjAddr: 0xBC58, symBinAddr: 0x10001CA28, symSize: 0x48 }
  - { offsetInCU: 0x1A267, offset: 0x48E9A, size: 0x8, addend: 0x0, symName: __ZNSt3__112__to_addressB7v160006INS_16reverse_iteratorIPNS_7__stateIcEEEEvEENS_5decayIDTclsr19__to_address_helperIT_EE6__callclsr3stdE7declvalIRKS7_EEEEE4typeES9_, symObjAddr: 0xBCA0, symBinAddr: 0x10001CA70, symSize: 0x24 }
  - { offsetInCU: 0x1A2C8, offset: 0x48EFB, size: 0x8, addend: 0x0, symName: __ZNSt3__119__allocator_destroyB7v160006INS_9allocatorINS_7__stateIcEEEENS_16reverse_iteratorINS5_IPS3_EEEES8_EEvRT_T0_T1_, symObjAddr: 0xBF50, symBinAddr: 0x10001CD20, symSize: 0x70 }
  - { offsetInCU: 0x1A32E, offset: 0x48F61, size: 0x8, addend: 0x0, symName: __ZNSt3__1neB7v160006INS_16reverse_iteratorIPNS_7__stateIcEEEES5_EEbRKNS1_IT_EERKNS1_IT0_EE, symObjAddr: 0xBFFC, symBinAddr: 0x10001CDCC, symSize: 0x60 }
  - { offsetInCU: 0x1A37A, offset: 0x48FAD, size: 0x8, addend: 0x0, symName: __ZNSt3__112__to_addressB7v160006INS_16reverse_iteratorINS1_IPNS_7__stateIcEEEEEEvEENS_5decayIDTclsr19__to_address_helperIT_EE6__callclsr3stdE7declvalIRKS8_EEEEE4typeESA_, symObjAddr: 0xC088, symBinAddr: 0x10001CE58, symSize: 0x24 }
  - { offsetInCU: 0x1A3DB, offset: 0x4900E, size: 0x8, addend: 0x0, symName: __ZNSt3__118__debug_db_erase_cB7v160006INS_6vectorINS_4pairImPKcEENS_9allocatorIS5_EEEEEEvPT_, symObjAddr: 0xC9C8, symBinAddr: 0x10001D798, symSize: 0x10 }
  - { offsetInCU: 0x1A40C, offset: 0x4903F, size: 0x8, addend: 0x0, symName: __ZNSt3__112__to_addressB7v160006INS_4pairImPKcEEEEPT_S6_, symObjAddr: 0xCAE4, symBinAddr: 0x10001D8B4, symSize: 0x14 }
  - { offsetInCU: 0x1A441, offset: 0x49074, size: 0x8, addend: 0x0, symName: __ZNSt3__142__uninitialized_allocator_move_if_noexceptB7v160006INS_9allocatorINS_9sub_matchIPKcEEEENS_16reverse_iteratorIPS5_EES9_S9_EET2_RT_T0_T1_SA_, symObjAddr: 0xD2C8, symBinAddr: 0x10001E098, symSize: 0x12C }
  - { offsetInCU: 0x1A4E1, offset: 0x49114, size: 0x8, addend: 0x0, symName: __ZNSt3__14swapB7v160006IPNS_9sub_matchIPKcEEEENS_9enable_ifIXaasr21is_move_constructibleIT_EE5valuesr18is_move_assignableIS7_EE5valueEvE4typeERS7_SA_, symObjAddr: 0xD440, symBinAddr: 0x10001E210, symSize: 0x3C }
  - { offsetInCU: 0x1A532, offset: 0x49165, size: 0x8, addend: 0x0, symName: __ZNSt3__122__make_exception_guardB7v160006INS_29_AllocatorDestroyRangeReverseINS_9allocatorINS_9sub_matchIPKcEEEENS_16reverse_iteratorIPS6_EEEEEENS_28__exception_guard_exceptionsIT_EESD_, symObjAddr: 0xD47C, symBinAddr: 0x10001E24C, symSize: 0x4C }
  - { offsetInCU: 0x1A568, offset: 0x4919B, size: 0x8, addend: 0x0, symName: __ZNSt3__1neB7v160006IPNS_9sub_matchIPKcEES5_EEbRKNS_16reverse_iteratorIT_EERKNS6_IT0_EE, symObjAddr: 0xD50C, symBinAddr: 0x10001E2DC, symSize: 0x48 }
  - { offsetInCU: 0x1A5B4, offset: 0x491E7, size: 0x8, addend: 0x0, symName: __ZNSt3__112__to_addressB7v160006INS_16reverse_iteratorIPNS_9sub_matchIPKcEEEEvEENS_5decayIDTclsr19__to_address_helperIT_EE6__callclsr3stdE7declvalIRKS9_EEEEE4typeESB_, symObjAddr: 0xD588, symBinAddr: 0x10001E358, symSize: 0x24 }
  - { offsetInCU: 0x1A615, offset: 0x49248, size: 0x8, addend: 0x0, symName: __ZNSt3__119__allocator_destroyB7v160006INS_9allocatorINS_9sub_matchIPKcEEEENS_16reverse_iteratorINS7_IPS5_EEEESA_EEvRT_T0_T1_, symObjAddr: 0xD868, symBinAddr: 0x10001E638, symSize: 0x70 }
  - { offsetInCU: 0x1A67B, offset: 0x492AE, size: 0x8, addend: 0x0, symName: __ZNSt3__1neB7v160006INS_16reverse_iteratorIPNS_9sub_matchIPKcEEEES7_EEbRKNS1_IT_EERKNS1_IT0_EE, symObjAddr: 0xD914, symBinAddr: 0x10001E6E4, symSize: 0x60 }
  - { offsetInCU: 0x1A6C7, offset: 0x492FA, size: 0x8, addend: 0x0, symName: __ZNSt3__112__to_addressB7v160006INS_16reverse_iteratorINS1_IPNS_9sub_matchIPKcEEEEEEvEENS_5decayIDTclsr19__to_address_helperIT_EE6__callclsr3stdE7declvalIRKSA_EEEEE4typeESC_, symObjAddr: 0xD974, symBinAddr: 0x10001E744, symSize: 0x24 }
  - { offsetInCU: 0x1A728, offset: 0x4935B, size: 0x8, addend: 0x0, symName: __ZNSt3__119__allocate_at_leastB7v160006INS_9allocatorINS_4pairImPKcEEEEEENS_19__allocation_resultINS_16allocator_traitsIT_E7pointerEEERS9_m, symObjAddr: 0xE588, symBinAddr: 0x10001F358, symSize: 0x40 }
  - { offsetInCU: 0x1A76B, offset: 0x4939E, size: 0x8, addend: 0x0, symName: __ZNSt3__142__uninitialized_allocator_move_if_noexceptB7v160006INS_9allocatorINS_4pairImPKcEEEENS_16reverse_iteratorIPS5_EES9_S9_EET2_RT_T0_T1_SA_, symObjAddr: 0xE808, symBinAddr: 0x10001F5D8, symSize: 0x12C }
  - { offsetInCU: 0x1A80B, offset: 0x4943E, size: 0x8, addend: 0x0, symName: __ZNSt3__14swapB7v160006IPNS_4pairImPKcEEEENS_9enable_ifIXaasr21is_move_constructibleIT_EE5valuesr18is_move_assignableIS7_EE5valueEvE4typeERS7_SA_, symObjAddr: 0xE980, symBinAddr: 0x10001F750, symSize: 0x3C }
  - { offsetInCU: 0x1A85C, offset: 0x4948F, size: 0x8, addend: 0x0, symName: __ZNSt3__125__debug_db_invalidate_allB7v160006INS_6vectorINS_4pairImPKcEENS_9allocatorIS5_EEEEEEvPT_, symObjAddr: 0xEA68, symBinAddr: 0x10001F838, symSize: 0x10 }
  - { offsetInCU: 0x1A88D, offset: 0x494C0, size: 0x8, addend: 0x0, symName: __ZNSt3__122__make_exception_guardB7v160006INS_29_AllocatorDestroyRangeReverseINS_9allocatorINS_4pairImPKcEEEENS_16reverse_iteratorIPS6_EEEEEENS_28__exception_guard_exceptionsIT_EESD_, symObjAddr: 0xEA78, symBinAddr: 0x10001F848, symSize: 0x4C }
  - { offsetInCU: 0x1A8C3, offset: 0x494F6, size: 0x8, addend: 0x0, symName: __ZNSt3__1neB7v160006IPNS_4pairImPKcEES5_EEbRKNS_16reverse_iteratorIT_EERKNS6_IT0_EE, symObjAddr: 0xEB08, symBinAddr: 0x10001F8D8, symSize: 0x48 }
  - { offsetInCU: 0x1A90F, offset: 0x49542, size: 0x8, addend: 0x0, symName: __ZNSt3__112__to_addressB7v160006INS_16reverse_iteratorIPNS_4pairImPKcEEEEvEENS_5decayIDTclsr19__to_address_helperIT_EE6__callclsr3stdE7declvalIRKS9_EEEEE4typeESB_, symObjAddr: 0xEB84, symBinAddr: 0x10001F954, symSize: 0x24 }
  - { offsetInCU: 0x1A970, offset: 0x495A3, size: 0x8, addend: 0x0, symName: __ZNSt3__119__allocator_destroyB7v160006INS_9allocatorINS_4pairImPKcEEEENS_16reverse_iteratorINS7_IPS5_EEEESA_EEvRT_T0_T1_, symObjAddr: 0xEE5C, symBinAddr: 0x10001FC2C, symSize: 0x70 }
  - { offsetInCU: 0x1A9D6, offset: 0x49609, size: 0x8, addend: 0x0, symName: __ZNSt3__1neB7v160006INS_16reverse_iteratorIPNS_4pairImPKcEEEES7_EEbRKNS1_IT_EERKNS1_IT0_EE, symObjAddr: 0xEF08, symBinAddr: 0x10001FCD8, symSize: 0x60 }
  - { offsetInCU: 0x1AA22, offset: 0x49655, size: 0x8, addend: 0x0, symName: __ZNSt3__112__to_addressB7v160006INS_16reverse_iteratorINS1_IPNS_4pairImPKcEEEEEEvEENS_5decayIDTclsr19__to_address_helperIT_EE6__callclsr3stdE7declvalIRKSA_EEEEE4typeESC_, symObjAddr: 0xEF68, symBinAddr: 0x10001FD38, symSize: 0x24 }
  - { offsetInCU: 0x1AA83, offset: 0x496B6, size: 0x8, addend: 0x0, symName: __ZNSt3__122__make_exception_guardB7v160006INS_6vectorINS_9sub_matchIPKcEENS_9allocatorIS5_EEE16__destroy_vectorEEENS_28__exception_guard_exceptionsIT_EESB_, symObjAddr: 0xF794, symBinAddr: 0x100020564, symSize: 0x40 }
  - { offsetInCU: 0x1AAB8, offset: 0x496EB, size: 0x8, addend: 0x0, symName: __ZNSt3__130__uninitialized_allocator_copyB7v160006INS_9allocatorINS_9sub_matchIPKcEEEEPS5_S7_S7_EET2_RT_T0_T1_S8_, symObjAddr: 0xF900, symBinAddr: 0x1000206D0, symSize: 0xF4 }
  - { offsetInCU: 0x1AB56, offset: 0x49789, size: 0x8, addend: 0x0, symName: __ZNSt3__122__make_exception_guardB7v160006INS_29_AllocatorDestroyRangeReverseINS_9allocatorINS_9sub_matchIPKcEEEEPS6_EEEENS_28__exception_guard_exceptionsIT_EESB_, symObjAddr: 0xF9F4, symBinAddr: 0x1000207C4, symSize: 0x4C }
  - { offsetInCU: 0x1AB8C, offset: 0x497BF, size: 0x8, addend: 0x0, symName: __ZNSt3__119__allocator_destroyB7v160006INS_9allocatorINS_9sub_matchIPKcEEEENS_16reverse_iteratorIPS5_EES9_EEvRT_T0_T1_, symObjAddr: 0xFC84, symBinAddr: 0x100020A54, symSize: 0x70 }
  - { offsetInCU: 0x1ABF0, offset: 0x49823, size: 0x8, addend: 0x0, symName: __ZNSt3__122__make_exception_guardB7v160006INS_6vectorINS_4pairImPKcEENS_9allocatorIS5_EEE16__destroy_vectorEEENS_28__exception_guard_exceptionsIT_EESB_, symObjAddr: 0xFE64, symBinAddr: 0x100020C34, symSize: 0x40 }
  - { offsetInCU: 0x1AC25, offset: 0x49858, size: 0x8, addend: 0x0, symName: __ZNSt3__130__uninitialized_allocator_copyB7v160006INS_9allocatorINS_4pairImPKcEEEEPS5_S7_S7_EET2_RT_T0_T1_S8_, symObjAddr: 0x1007C, symBinAddr: 0x100020E4C, symSize: 0xF4 }
  - { offsetInCU: 0x1ACC3, offset: 0x498F6, size: 0x8, addend: 0x0, symName: __ZNSt3__122__make_exception_guardB7v160006INS_29_AllocatorDestroyRangeReverseINS_9allocatorINS_4pairImPKcEEEEPS6_EEEENS_28__exception_guard_exceptionsIT_EESB_, symObjAddr: 0x10170, symBinAddr: 0x100020F40, symSize: 0x4C }
  - { offsetInCU: 0x1ACF9, offset: 0x4992C, size: 0x8, addend: 0x0, symName: __ZNSt3__119__allocator_destroyB7v160006INS_9allocatorINS_4pairImPKcEEEENS_16reverse_iteratorIPS5_EES9_EEvRT_T0_T1_, symObjAddr: 0x103F8, symBinAddr: 0x1000211C8, symSize: 0x70 }
  - { offsetInCU: 0x1AD5D, offset: 0x49990, size: 0x8, addend: 0x0, symName: __ZNSt3__118__debug_db_erase_cB7v160006INS_6vectorINS_7__stateIcEENS_9allocatorIS3_EEEEEEvPT_, symObjAddr: 0x105EC, symBinAddr: 0x1000213BC, symSize: 0x10 }
  - { offsetInCU: 0x1AD8F, offset: 0x499C2, size: 0x8, addend: 0x0, symName: __ZNSt3__119__throw_regex_errorB7v160006ILNS_15regex_constants10error_typeE11EEEvv, symObjAddr: 0x10BF0, symBinAddr: 0x1000219C0, symSize: 0x60 }
  - { offsetInCU: 0x1AE2A, offset: 0x49A5D, size: 0x8, addend: 0x0, symName: __ZNSt3__119__throw_regex_errorB7v160006ILNS_15regex_constants10error_typeE3EEEvv, symObjAddr: 0x10F68, symBinAddr: 0x100021D38, symSize: 0x60 }
  - { offsetInCU: 0x1B03C, offset: 0x49C6F, size: 0x8, addend: 0x0, symName: __ZNSt3__119__throw_regex_errorB7v160006ILNS_15regex_constants10error_typeE4EEEvv, symObjAddr: 0x11D20, symBinAddr: 0x100022AF0, symSize: 0x60 }
  - { offsetInCU: 0x1B481, offset: 0x4A0B4, size: 0x8, addend: 0x0, symName: __ZNSt3__15equalB7v160006IPKcS2_EEbT_S3_T0_, symObjAddr: 0x12EA4, symBinAddr: 0x100023C74, symSize: 0x38 }
  - { offsetInCU: 0x1B4DB, offset: 0x4A10E, size: 0x8, addend: 0x0, symName: __ZNSt3__15equalB7v160006IPKcS2_NS_10__equal_toEEEbT_S4_T0_T1_, symObjAddr: 0x12EDC, symBinAddr: 0x100023CAC, symSize: 0xA8 }
  - { offsetInCU: 0x1B587, offset: 0x4A1BA, size: 0x8, addend: 0x0, symName: __ZNSt3__119__debug_db_insert_cB7v160006INS_6vectorIcNS_9allocatorIcEEEEEEvPT_, symObjAddr: 0x13F7C, symBinAddr: 0x100024D18, symSize: 0x10 }
  - { offsetInCU: 0x1B5B8, offset: 0x4A1EB, size: 0x8, addend: 0x0, symName: __ZNSt3__119__debug_db_insert_cB7v160006INS_6vectorINS_4pairINS_12basic_stringIcNS_11char_traitsIcEENS_9allocatorIcEEEES8_EENS6_IS9_EEEEEEvPT_, symObjAddr: 0x1407C, symBinAddr: 0x100024E18, symSize: 0x10 }
  - { offsetInCU: 0x1B5E9, offset: 0x4A21C, size: 0x8, addend: 0x0, symName: __ZNSt3__119__debug_db_insert_cB7v160006INS_6vectorINS_4pairIccEENS_9allocatorIS3_EEEEEEvPT_, symObjAddr: 0x141E8, symBinAddr: 0x100024F84, symSize: 0x10 }
  - { offsetInCU: 0x1B61A, offset: 0x4A24D, size: 0x8, addend: 0x0, symName: __ZNSt3__119__debug_db_insert_cB7v160006INS_6vectorINS_12basic_stringIcNS_11char_traitsIcEENS_9allocatorIcEEEENS5_IS7_EEEEEEvPT_, symObjAddr: 0x14354, symBinAddr: 0x1000250F0, symSize: 0x10 }
  - { offsetInCU: 0x1B64B, offset: 0x4A27E, size: 0x8, addend: 0x0, symName: __ZNSt3__118__debug_db_erase_cB7v160006INS_6vectorINS_12basic_stringIcNS_11char_traitsIcEENS_9allocatorIcEEEENS5_IS7_EEEEEEvPT_, symObjAddr: 0x146E0, symBinAddr: 0x1000253D0, symSize: 0x10 }
  - { offsetInCU: 0x1B67C, offset: 0x4A2AF, size: 0x8, addend: 0x0, symName: __ZNSt3__112__to_addressB7v160006INS_12basic_stringIcNS_11char_traitsIcEENS_9allocatorIcEEEEEEPT_S8_, symObjAddr: 0x14824, symBinAddr: 0x100025514, symSize: 0x14 }
  - { offsetInCU: 0x1B6B1, offset: 0x4A2E4, size: 0x8, addend: 0x0, symName: __ZNSt3__118__debug_db_erase_cB7v160006INS_6vectorINS_4pairIccEENS_9allocatorIS3_EEEEEEvPT_, symObjAddr: 0x14BE0, symBinAddr: 0x1000258D0, symSize: 0x10 }
  - { offsetInCU: 0x1B6E2, offset: 0x4A315, size: 0x8, addend: 0x0, symName: __ZNSt3__112__to_addressB7v160006INS_4pairIccEEEEPT_S4_, symObjAddr: 0x14D24, symBinAddr: 0x100025A14, symSize: 0x14 }
  - { offsetInCU: 0x1B717, offset: 0x4A34A, size: 0x8, addend: 0x0, symName: __ZNSt3__118__debug_db_erase_cB7v160006INS_6vectorINS_4pairINS_12basic_stringIcNS_11char_traitsIcEENS_9allocatorIcEEEES8_EENS6_IS9_EEEEEEvPT_, symObjAddr: 0x150E4, symBinAddr: 0x100025DD4, symSize: 0x10 }
  - { offsetInCU: 0x1B748, offset: 0x4A37B, size: 0x8, addend: 0x0, symName: __ZNSt3__112__to_addressB7v160006INS_4pairINS_12basic_stringIcNS_11char_traitsIcEENS_9allocatorIcEEEES7_EEEEPT_SA_, symObjAddr: 0x15228, symBinAddr: 0x100025F18, symSize: 0x14 }
  - { offsetInCU: 0x1B77D, offset: 0x4A3B0, size: 0x8, addend: 0x0, symName: __ZNSt3__118__debug_db_erase_cB7v160006INS_6vectorIcNS_9allocatorIcEEEEEEvPT_, symObjAddr: 0x15648, symBinAddr: 0x100026338, symSize: 0x10 }
  - { offsetInCU: 0x1B7AE, offset: 0x4A3E1, size: 0x8, addend: 0x0, symName: __ZNSt3__1eqB7v160006IccEEbRKNS_4pairIT_T0_EES6_, symObjAddr: 0x15A50, symBinAddr: 0x100026740, symSize: 0x64 }
  - { offsetInCU: 0x1B7FE, offset: 0x4A431, size: 0x8, addend: 0x0, symName: __ZNSt3__1leB7v160006IcNS_11char_traitsIcEENS_9allocatorIcEEEEbRKNS_12basic_stringIT_T0_T1_EESB_, symObjAddr: 0x15BF0, symBinAddr: 0x1000268E0, symSize: 0x34 }
  - { offsetInCU: 0x1B856, offset: 0x4A489, size: 0x8, addend: 0x0, symName: __ZNSt3__1eqB7v160006INS_9allocatorIcEEEEbRKNS_12basic_stringIcNS_11char_traitsIcEET_EES9_, symObjAddr: 0x15CB8, symBinAddr: 0x1000269A8, symSize: 0x148 }
  - { offsetInCU: 0x1B8C9, offset: 0x4A4FC, size: 0x8, addend: 0x0, symName: __ZNSt3__1neB7v160006IPKcEEbRKNS_11__wrap_iterIT_EES7_, symObjAddr: 0x15E78, symBinAddr: 0x100026B68, symSize: 0x34 }
  - { offsetInCU: 0x1B90C, offset: 0x4A53F, size: 0x8, addend: 0x0, symName: __ZNSt3__14findB7v160006INS_11__wrap_iterIPKcEEcEET_S5_S5_RKT0_, symObjAddr: 0x15EAC, symBinAddr: 0x100026B9C, symSize: 0x80 }
  - { offsetInCU: 0x1B966, offset: 0x4A599, size: 0x8, addend: 0x0, symName: __ZNSt3__18distanceB7v160006IPcEENS_15iterator_traitsIT_E15difference_typeES3_S3_, symObjAddr: 0x164A8, symBinAddr: 0x100027174, symSize: 0x2C }
  - { offsetInCU: 0x1B9A9, offset: 0x4A5DC, size: 0x8, addend: 0x0, symName: __ZNSt3__119__allocate_at_leastB7v160006INS_9allocatorIcEEEENS_19__allocation_resultINS_16allocator_traitsIT_E7pointerEEERS5_m, symObjAddr: 0x16634, symBinAddr: 0x100027300, symSize: 0x40 }
  - { offsetInCU: 0x1B9EC, offset: 0x4A61F, size: 0x8, addend: 0x0, symName: __ZNSt3__110__distanceB7v160006IPcEENS_15iterator_traitsIT_E15difference_typeES3_S3_NS_26random_access_iterator_tagE, symObjAddr: 0x16834, symBinAddr: 0x100027500, symSize: 0x20 }
  - { offsetInCU: 0x1BA39, offset: 0x4A66C, size: 0x8, addend: 0x0, symName: __ZNSt3__125__debug_db_invalidate_allB7v160006INS_12basic_stringIcNS_11char_traitsIcEENS_9allocatorIcEEEEEEvPT_, symObjAddr: 0x16A9C, symBinAddr: 0x100027768, symSize: 0x10 }
  - { offsetInCU: 0x1BA6A, offset: 0x4A69D, size: 0x8, addend: 0x0, symName: __ZNSt3__1ltB7v160006IcNS_11char_traitsIcEENS_9allocatorIcEEEEbRKNS_12basic_stringIT_T0_T1_EESB_, symObjAddr: 0x16AAC, symBinAddr: 0x100027778, symSize: 0x38 }
  - { offsetInCU: 0x1BAE7, offset: 0x4A71A, size: 0x8, addend: 0x0, symName: __ZNSt3__118__constexpr_memcmpB7v160006IcEEiPKT_S3_m, symObjAddr: 0x16D48, symBinAddr: 0x100027A14, symSize: 0x34 }
  - { offsetInCU: 0x1BB38, offset: 0x4A76B, size: 0x8, addend: 0x0, symName: __ZNSt3__1eqB7v160006IPKcEEbRKNS_11__wrap_iterIT_EES7_, symObjAddr: 0x16FD4, symBinAddr: 0x100027CA0, symSize: 0x48 }
  - { offsetInCU: 0x1BB7B, offset: 0x4A7AE, size: 0x8, addend: 0x0, symName: __ZNSt3__142__uninitialized_allocator_move_if_noexceptB7v160006INS_9allocatorIcEENS_16reverse_iteratorIPcEES5_cvEET1_RT_T0_S9_S6_, symObjAddr: 0x179F8, symBinAddr: 0x1000286C4, symSize: 0x78 }
  - { offsetInCU: 0x1BBFA, offset: 0x4A82D, size: 0x8, addend: 0x0, symName: __ZNSt3__14swapB7v160006IPcEENS_9enable_ifIXaasr21is_move_constructibleIT_EE5valuesr18is_move_assignableIS3_EE5valueEvE4typeERS3_S6_, symObjAddr: 0x17ABC, symBinAddr: 0x100028788, symSize: 0x3C }
  - { offsetInCU: 0x1BC4B, offset: 0x4A87E, size: 0x8, addend: 0x0, symName: __ZNSt3__125__debug_db_invalidate_allB7v160006INS_6vectorIcNS_9allocatorIcEEEEEEvPT_, symObjAddr: 0x17BA4, symBinAddr: 0x100028870, symSize: 0x10 }
  - { offsetInCU: 0x1BC7C, offset: 0x4A8AF, size: 0x8, addend: 0x0, symName: __ZNSt3__14moveB7v160006INS_16reverse_iteratorIPcEES3_EET0_T_S5_S4_, symObjAddr: 0x17BB4, symBinAddr: 0x100028880, symSize: 0x78 }
  - { offsetInCU: 0x1BCD6, offset: 0x4A909, size: 0x8, addend: 0x0, symName: __ZNSt3__16__moveB7v160006INS_17_ClassicAlgPolicyENS_16reverse_iteratorIPcEES4_S4_EENS_4pairIT0_T2_EES6_T1_S7_, symObjAddr: 0x17C2C, symBinAddr: 0x1000288F8, symSize: 0x64 }
  - { offsetInCU: 0x1BD42, offset: 0x4A975, size: 0x8, addend: 0x0, symName: __ZNSt3__123__dispatch_copy_or_moveB7v160006INS_17_ClassicAlgPolicyENS_11__move_loopIS1_EENS_14__move_trivialENS_16reverse_iteratorIPcEES7_S7_EENS_4pairIT2_T4_EES9_T3_SA_, symObjAddr: 0x17C90, symBinAddr: 0x10002895C, symSize: 0x64 }
  - { offsetInCU: 0x1BDC0, offset: 0x4A9F3, size: 0x8, addend: 0x0, symName: __ZNSt3__121__unwrap_and_dispatchB7v160006INS_10__overloadINS_11__move_loopINS_17_ClassicAlgPolicyEEENS_14__move_trivialEEENS_16reverse_iteratorIPcEES9_S9_Li0EEENS_4pairIT0_T2_EESB_T1_SC_, symObjAddr: 0x17CF4, symBinAddr: 0x1000289C0, symSize: 0x12C }
  - { offsetInCU: 0x1BE51, offset: 0x4AA84, size: 0x8, addend: 0x0, symName: __ZNSt3__114__unwrap_rangeB7v160006INS_16reverse_iteratorIPcEES3_EENS_4pairIT0_S5_EET_S7_, symObjAddr: 0x17E20, symBinAddr: 0x100028AEC, symSize: 0x84 }
  - { offsetInCU: 0x1BFC4, offset: 0x4ABF7, size: 0x8, addend: 0x0, symName: __ZNSt3__113__unwrap_iterB7v160006INS_16reverse_iteratorIPcEENS_18__unwrap_iter_implIS3_Lb0EEELi0EEEDTclsrT0_8__unwrapclsr3stdE7declvalIT_EEEES7_, symObjAddr: 0x17F44, symBinAddr: 0x100028C10, symSize: 0x44 }
  - { offsetInCU: 0x1C009, offset: 0x4AC3C, size: 0x8, addend: 0x0, symName: __ZNSt3__19make_pairB7v160006INS_16reverse_iteratorIPcEES3_EENS_4pairINS_18__unwrap_ref_decayIT_E4typeENS5_IT0_E4typeEEEOS6_OS9_, symObjAddr: 0x17F88, symBinAddr: 0x100028C54, symSize: 0x38 }
  - { offsetInCU: 0x1C058, offset: 0x4AC8B, size: 0x8, addend: 0x0, symName: __ZNSt3__114__rewrap_rangeB7v160006INS_16reverse_iteratorIPcEES3_EET_S4_T0_, symObjAddr: 0x17FC0, symBinAddr: 0x100028C8C, symSize: 0x5C }
  - { offsetInCU: 0x1C0A4, offset: 0x4ACD7, size: 0x8, addend: 0x0, symName: __ZNSt3__113__rewrap_iterB7v160006INS_16reverse_iteratorIPcEES3_NS_18__unwrap_iter_implIS3_Lb0EEEEET_S6_T0_, symObjAddr: 0x1801C, symBinAddr: 0x100028CE8, symSize: 0x74 }
  - { offsetInCU: 0x1C0F9, offset: 0x4AD2C, size: 0x8, addend: 0x0, symName: __ZNSt3__1neB7v160006IPcS1_EEbRKNS_16reverse_iteratorIT_EERKNS2_IT0_EE, symObjAddr: 0x18090, symBinAddr: 0x100028D5C, symSize: 0x48 }
  - { offsetInCU: 0x1C218, offset: 0x4AE4B, size: 0x8, addend: 0x0, symName: __ZNSt3__17__is_07B7v160006Eh, symObjAddr: 0x18728, symBinAddr: 0x1000293F4, symSize: 0x24 }
  - { offsetInCU: 0x1C247, offset: 0x4AE7A, size: 0x8, addend: 0x0, symName: __ZNSt3__17__is_89B7v160006Eh, symObjAddr: 0x1874C, symBinAddr: 0x100029418, symSize: 0x24 }
  - { offsetInCU: 0x1C276, offset: 0x4AEA9, size: 0x8, addend: 0x0, symName: __ZNSt3__110__to_lowerB7v160006Eh, symObjAddr: 0x18770, symBinAddr: 0x10002943C, symSize: 0x1C }
  - { offsetInCU: 0x1C2A6, offset: 0x4AED9, size: 0x8, addend: 0x0, symName: __ZNSt3__119__throw_regex_errorB7v160006ILNS_15regex_constants10error_typeE5EEEvv, symObjAddr: 0x1878C, symBinAddr: 0x100029458, symSize: 0x60 }
  - { offsetInCU: 0x1C2CB, offset: 0x4AEFE, size: 0x8, addend: 0x0, symName: __ZNSt3__16searchB7v160006IPKcPcEET_S4_S4_T0_S5_, symObjAddr: 0x1A21C, symBinAddr: 0x10002AEE8, symSize: 0x3C }
  - { offsetInCU: 0x1C334, offset: 0x4AF67, size: 0x8, addend: 0x0, symName: __ZNSt3__119__throw_regex_errorB7v160006ILNS_15regex_constants10error_typeE1EEEvv, symObjAddr: 0x1A298, symBinAddr: 0x10002AF64, symSize: 0x60 }
  - { offsetInCU: 0x1C359, offset: 0x4AF8C, size: 0x8, addend: 0x0, symName: __ZNSt3__16searchB7v160006IPKcPcNS_10__equal_toEEET_S5_S5_T0_S6_T1_, symObjAddr: 0x1A418, symBinAddr: 0x10002B0E4, symSize: 0x64 }
  - { offsetInCU: 0x1C3E6, offset: 0x4B019, size: 0x8, addend: 0x0, symName: __ZNSt3__113__search_implB7v160006IPKcS2_PcS3_NS_10__equal_toENS_10__identityES5_EENS_4pairIT_S7_EES7_T0_T1_T2_RT3_RT4_RT5_PNS_9enable_ifIXaasr33__is_cpp17_random_access_iteratorIS7_EE5valuesr33__is_cpp17_random_access_iteratorISA_EE5valueEvE4typeE, symObjAddr: 0x1A47C, symBinAddr: 0x10002B148, symSize: 0xF8 }
  - { offsetInCU: 0x1C4CB, offset: 0x4B0FE, size: 0x8, addend: 0x0, symName: __ZNSt3__19make_pairB7v160006IRPKcS3_EENS_4pairINS_18__unwrap_ref_decayIT_E4typeENS5_IT0_E4typeEEEOS6_OS9_, symObjAddr: 0x1A574, symBinAddr: 0x10002B240, symSize: 0x38 }
  - { offsetInCU: 0x1C51A, offset: 0x4B14D, size: 0x8, addend: 0x0, symName: __ZNSt3__127__search_random_access_implB7v160006INS_17_ClassicAlgPolicyEPKcS3_PcS4_NS_10__equal_toENS_10__identityES6_llEENS_4pairIT0_S8_EES8_T1_T2_T3_RT4_RT5_RT6_T7_T8_, symObjAddr: 0x1A5AC, symBinAddr: 0x10002B278, symSize: 0x1BC }
  - { offsetInCU: 0x1C64D, offset: 0x4B280, size: 0x8, addend: 0x0, symName: __ZNSt3__18__invokeB7v160006IRNS_10__equal_toEJRKcRcEEEDTclclsr3stdE7declvalIT_EEspclsr3stdE7declvalIT0_EEEEOS6_DpOS7_, symObjAddr: 0x1A7F8, symBinAddr: 0x10002B4C4, symSize: 0x38 }
  - { offsetInCU: 0x1C6B3, offset: 0x4B2E6, size: 0x8, addend: 0x0, symName: __ZNSt3__18__invokeB7v160006IRNS_10__identityEJRKcEEEDTclclsr3stdE7declvalIT_EEspclsr3stdE7declvalIT0_EEEEOS5_DpOS6_, symObjAddr: 0x1A830, symBinAddr: 0x10002B4FC, symSize: 0x2C }
  - { offsetInCU: 0x1C705, offset: 0x4B338, size: 0x8, addend: 0x0, symName: __ZNSt3__18__invokeB7v160006IRNS_10__identityEJRcEEEDTclclsr3stdE7declvalIT_EEspclsr3stdE7declvalIT0_EEEEOS4_DpOS5_, symObjAddr: 0x1A85C, symBinAddr: 0x10002B528, symSize: 0x2C }
  - { offsetInCU: 0x1C757, offset: 0x4B38A, size: 0x8, addend: 0x0, symName: __ZNSt3__19make_pairB7v160006IRPKcS2_EENS_4pairINS_18__unwrap_ref_decayIT_E4typeENS5_IT0_E4typeEEEOS6_OS9_, symObjAddr: 0x1A888, symBinAddr: 0x10002B554, symSize: 0x38 }
  - { offsetInCU: 0x1C7F6, offset: 0x4B429, size: 0x8, addend: 0x0, symName: __ZNSt3__18distanceB7v160006IPKcEENS_15iterator_traitsIT_E15difference_typeES4_S4_, symObjAddr: 0x1AD68, symBinAddr: 0x10002BA34, symSize: 0x2C }
  - { offsetInCU: 0x1C839, offset: 0x4B46C, size: 0x8, addend: 0x0, symName: __ZNSt3__110__distanceB7v160006IPKcEENS_15iterator_traitsIT_E15difference_typeES4_S4_NS_26random_access_iterator_tagE, symObjAddr: 0x1AD94, symBinAddr: 0x10002BA60, symSize: 0x20 }
  - { offsetInCU: 0x1C886, offset: 0x4B4B9, size: 0x8, addend: 0x0, symName: __ZNSt3__18distanceB7v160006INS_11__wrap_iterIPcEEEENS_15iterator_traitsIT_E15difference_typeES5_S5_, symObjAddr: 0x1B170, symBinAddr: 0x10002BE3C, symSize: 0x3C }
  - { offsetInCU: 0x1C8C9, offset: 0x4B4FC, size: 0x8, addend: 0x0, symName: __ZNSt3__1neB7v160006IPcEEbRKNS_11__wrap_iterIT_EES6_, symObjAddr: 0x1B1AC, symBinAddr: 0x10002BE78, symSize: 0x34 }
  - { offsetInCU: 0x1C90C, offset: 0x4B53F, size: 0x8, addend: 0x0, symName: __ZNSt3__110__distanceB7v160006INS_11__wrap_iterIPcEEEENS_15iterator_traitsIT_E15difference_typeES5_S5_NS_26random_access_iterator_tagE, symObjAddr: 0x1B218, symBinAddr: 0x10002BEE4, symSize: 0x30 }
  - { offsetInCU: 0x1C959, offset: 0x4B58C, size: 0x8, addend: 0x0, symName: __ZNSt3__1miB7v160006IPcS1_EEDTmicldtfp_4baseEcldtfp0_4baseEERKNS_11__wrap_iterIT_EERKNS3_IT0_EE, symObjAddr: 0x1B248, symBinAddr: 0x10002BF14, symSize: 0x40 }
  - { offsetInCU: 0x1C9A5, offset: 0x4B5D8, size: 0x8, addend: 0x0, symName: __ZNSt3__1eqB7v160006IPcEEbRKNS_11__wrap_iterIT_EES6_, symObjAddr: 0x1B2A0, symBinAddr: 0x10002BF6C, symSize: 0x48 }
  - { offsetInCU: 0x1C9E8, offset: 0x4B61B, size: 0x8, addend: 0x0, symName: __ZNSt3__119__allocate_at_leastB7v160006INS_9allocatorINS_12basic_stringIcNS_11char_traitsIcEENS1_IcEEEEEEEENS_19__allocation_resultINS_16allocator_traitsIT_E7pointerEEERSA_m, symObjAddr: 0x1BB58, symBinAddr: 0x10002C824, symSize: 0x40 }
  - { offsetInCU: 0x1CA2B, offset: 0x4B65E, size: 0x8, addend: 0x0, symName: __ZNSt3__142__uninitialized_allocator_move_if_noexceptB7v160006INS_9allocatorINS_12basic_stringIcNS_11char_traitsIcEENS1_IcEEEEEENS_16reverse_iteratorIPS6_EESA_SA_EET2_RT_T0_T1_SB_, symObjAddr: 0x1BD10, symBinAddr: 0x10002C9DC, symSize: 0x12C }
  - { offsetInCU: 0x1CACB, offset: 0x4B6FE, size: 0x8, addend: 0x0, symName: __ZNSt3__14swapB7v160006IPNS_12basic_stringIcNS_11char_traitsIcEENS_9allocatorIcEEEEEENS_9enable_ifIXaasr21is_move_constructibleIT_EE5valuesr18is_move_assignableIS9_EE5valueEvE4typeERS9_SC_, symObjAddr: 0x1BE88, symBinAddr: 0x10002CB54, symSize: 0x3C }
  - { offsetInCU: 0x1CB1C, offset: 0x4B74F, size: 0x8, addend: 0x0, symName: __ZNSt3__125__debug_db_invalidate_allB7v160006INS_6vectorINS_12basic_stringIcNS_11char_traitsIcEENS_9allocatorIcEEEENS5_IS7_EEEEEEvPT_, symObjAddr: 0x1BF8C, symBinAddr: 0x10002CC58, symSize: 0x10 }
  - { offsetInCU: 0x1CB4D, offset: 0x4B780, size: 0x8, addend: 0x0, symName: __ZNSt3__122__make_exception_guardB7v160006INS_29_AllocatorDestroyRangeReverseINS_9allocatorINS_12basic_stringIcNS_11char_traitsIcEENS2_IcEEEEEENS_16reverse_iteratorIPS7_EEEEEENS_28__exception_guard_exceptionsIT_EESE_, symObjAddr: 0x1BF9C, symBinAddr: 0x10002CC68, symSize: 0x4C }
  - { offsetInCU: 0x1CB83, offset: 0x4B7B6, size: 0x8, addend: 0x0, symName: __ZNSt3__1neB7v160006IPNS_12basic_stringIcNS_11char_traitsIcEENS_9allocatorIcEEEES7_EEbRKNS_16reverse_iteratorIT_EERKNS8_IT0_EE, symObjAddr: 0x1C02C, symBinAddr: 0x10002CCF8, symSize: 0x48 }
  - { offsetInCU: 0x1CBCF, offset: 0x4B802, size: 0x8, addend: 0x0, symName: __ZNSt3__112__to_addressB7v160006INS_16reverse_iteratorIPNS_12basic_stringIcNS_11char_traitsIcEENS_9allocatorIcEEEEEEvEENS_5decayIDTclsr19__to_address_helperIT_EE6__callclsr3stdE7declvalIRKSB_EEEEE4typeESD_, symObjAddr: 0x1C0A8, symBinAddr: 0x10002CD74, symSize: 0x24 }
  - { offsetInCU: 0x1CC30, offset: 0x4B863, size: 0x8, addend: 0x0, symName: __ZNSt3__119__allocator_destroyB7v160006INS_9allocatorINS_12basic_stringIcNS_11char_traitsIcEENS1_IcEEEEEENS_16reverse_iteratorINS8_IPS6_EEEESB_EEvRT_T0_T1_, symObjAddr: 0x1C388, symBinAddr: 0x10002D054, symSize: 0x70 }
  - { offsetInCU: 0x1CC96, offset: 0x4B8C9, size: 0x8, addend: 0x0, symName: __ZNSt3__1neB7v160006INS_16reverse_iteratorIPNS_12basic_stringIcNS_11char_traitsIcEENS_9allocatorIcEEEEEES9_EEbRKNS1_IT_EERKNS1_IT0_EE, symObjAddr: 0x1C434, symBinAddr: 0x10002D100, symSize: 0x60 }
  - { offsetInCU: 0x1CCE2, offset: 0x4B915, size: 0x8, addend: 0x0, symName: __ZNSt3__112__to_addressB7v160006INS_16reverse_iteratorINS1_IPNS_12basic_stringIcNS_11char_traitsIcEENS_9allocatorIcEEEEEEEEvEENS_5decayIDTclsr19__to_address_helperIT_EE6__callclsr3stdE7declvalIRKSC_EEEEE4typeESE_, symObjAddr: 0x1C494, symBinAddr: 0x10002D160, symSize: 0x24 }
  - { offsetInCU: 0x1CD44, offset: 0x4B977, size: 0x8, addend: 0x0, symName: __ZNSt3__119__throw_regex_errorB7v160006ILNS_15regex_constants10error_typeE2EEEvv, symObjAddr: 0x1C848, symBinAddr: 0x10002D514, symSize: 0x60 }
  - { offsetInCU: 0x1CD69, offset: 0x4B99C, size: 0x8, addend: 0x0, symName: __ZNSt3__19make_pairB7v160006INS_12basic_stringIcNS_11char_traitsIcEENS_9allocatorIcEEEES6_EENS_4pairINS_18__unwrap_ref_decayIT_E4typeENS8_IT0_E4typeEEEOS9_OSC_, symObjAddr: 0x1CB24, symBinAddr: 0x10002D7F0, symSize: 0x40 }
  - { offsetInCU: 0x1CDB9, offset: 0x4B9EC, size: 0x8, addend: 0x0, symName: __ZNSt3__119__throw_regex_errorB7v160006ILNS_15regex_constants10error_typeE9EEEvv, symObjAddr: 0x1CC64, symBinAddr: 0x10002D930, symSize: 0x60 }
  - { offsetInCU: 0x1CDDE, offset: 0x4BA11, size: 0x8, addend: 0x0, symName: __ZNSt3__119__allocate_at_leastB7v160006INS_9allocatorINS_4pairINS_12basic_stringIcNS_11char_traitsIcEENS1_IcEEEES7_EEEEEENS_19__allocation_resultINS_16allocator_traitsIT_E7pointerEEERSC_m, symObjAddr: 0x1D4B0, symBinAddr: 0x10002E17C, symSize: 0x40 }
  - { offsetInCU: 0x1CE21, offset: 0x4BA54, size: 0x8, addend: 0x0, symName: __ZNSt3__142__uninitialized_allocator_move_if_noexceptB7v160006INS_9allocatorINS_4pairINS_12basic_stringIcNS_11char_traitsIcEENS1_IcEEEES7_EEEENS_16reverse_iteratorIPS8_EESC_SC_EET2_RT_T0_T1_SD_, symObjAddr: 0x1D668, symBinAddr: 0x10002E334, symSize: 0x12C }
  - { offsetInCU: 0x1CEC1, offset: 0x4BAF4, size: 0x8, addend: 0x0, symName: __ZNSt3__14swapB7v160006IPNS_4pairINS_12basic_stringIcNS_11char_traitsIcEENS_9allocatorIcEEEES7_EEEENS_9enable_ifIXaasr21is_move_constructibleIT_EE5valuesr18is_move_assignableISB_EE5valueEvE4typeERSB_SE_, symObjAddr: 0x1D7E0, symBinAddr: 0x10002E4AC, symSize: 0x3C }
  - { offsetInCU: 0x1CF12, offset: 0x4BB45, size: 0x8, addend: 0x0, symName: __ZNSt3__125__debug_db_invalidate_allB7v160006INS_6vectorINS_4pairINS_12basic_stringIcNS_11char_traitsIcEENS_9allocatorIcEEEES8_EENS6_IS9_EEEEEEvPT_, symObjAddr: 0x1D8E4, symBinAddr: 0x10002E5B0, symSize: 0x10 }
  - { offsetInCU: 0x1CF43, offset: 0x4BB76, size: 0x8, addend: 0x0, symName: __ZNSt3__122__make_exception_guardB7v160006INS_29_AllocatorDestroyRangeReverseINS_9allocatorINS_4pairINS_12basic_stringIcNS_11char_traitsIcEENS2_IcEEEES8_EEEENS_16reverse_iteratorIPS9_EEEEEENS_28__exception_guard_exceptionsIT_EESG_, symObjAddr: 0x1D8F4, symBinAddr: 0x10002E5C0, symSize: 0x4C }
  - { offsetInCU: 0x1CF79, offset: 0x4BBAC, size: 0x8, addend: 0x0, symName: __ZNSt3__1neB7v160006IPNS_4pairINS_12basic_stringIcNS_11char_traitsIcEENS_9allocatorIcEEEES7_EES9_EEbRKNS_16reverse_iteratorIT_EERKNSA_IT0_EE, symObjAddr: 0x1D984, symBinAddr: 0x10002E650, symSize: 0x48 }
  - { offsetInCU: 0x1CFC5, offset: 0x4BBF8, size: 0x8, addend: 0x0, symName: __ZNSt3__112__to_addressB7v160006INS_16reverse_iteratorIPNS_4pairINS_12basic_stringIcNS_11char_traitsIcEENS_9allocatorIcEEEES8_EEEEvEENS_5decayIDTclsr19__to_address_helperIT_EE6__callclsr3stdE7declvalIRKSD_EEEEE4typeESF_, symObjAddr: 0x1D9CC, symBinAddr: 0x10002E698, symSize: 0x24 }
  - { offsetInCU: 0x1D026, offset: 0x4BC59, size: 0x8, addend: 0x0, symName: __ZNSt3__119__allocator_destroyB7v160006INS_9allocatorINS_4pairINS_12basic_stringIcNS_11char_traitsIcEENS1_IcEEEES7_EEEENS_16reverse_iteratorINSA_IPS8_EEEESD_EEvRT_T0_T1_, symObjAddr: 0x1DC7C, symBinAddr: 0x10002E948, symSize: 0x70 }
  - { offsetInCU: 0x1D08C, offset: 0x4BCBF, size: 0x8, addend: 0x0, symName: __ZNSt3__1neB7v160006INS_16reverse_iteratorIPNS_4pairINS_12basic_stringIcNS_11char_traitsIcEENS_9allocatorIcEEEES8_EEEESB_EEbRKNS1_IT_EERKNS1_IT0_EE, symObjAddr: 0x1DD28, symBinAddr: 0x10002E9F4, symSize: 0x60 }
  - { offsetInCU: 0x1D0D8, offset: 0x4BD0B, size: 0x8, addend: 0x0, symName: __ZNSt3__112__to_addressB7v160006INS_16reverse_iteratorINS1_IPNS_4pairINS_12basic_stringIcNS_11char_traitsIcEENS_9allocatorIcEEEES8_EEEEEEvEENS_5decayIDTclsr19__to_address_helperIT_EE6__callclsr3stdE7declvalIRKSE_EEEEE4typeESG_, symObjAddr: 0x1DD88, symBinAddr: 0x10002EA54, symSize: 0x24 }
  - { offsetInCU: 0x1D139, offset: 0x4BD6C, size: 0x8, addend: 0x0, symName: __ZNSt3__115__debug_db_swapB7v160006INS_12basic_stringIcNS_11char_traitsIcEENS_9allocatorIcEEEEEEvPT_S8_, symObjAddr: 0x1E1F4, symBinAddr: 0x10002EEC0, symSize: 0x14 }
  - { offsetInCU: 0x1D178, offset: 0x4BDAB, size: 0x8, addend: 0x0, symName: __ZNSt3__19make_pairB7v160006IccEENS_4pairINS_18__unwrap_ref_decayIT_E4typeENS2_IT0_E4typeEEEOS3_OS6_, symObjAddr: 0x1E274, symBinAddr: 0x10002EF40, symSize: 0x34 }
  - { offsetInCU: 0x1D1C7, offset: 0x4BDFA, size: 0x8, addend: 0x0, symName: __ZNSt3__19make_pairB7v160006IRcS1_EENS_4pairINS_18__unwrap_ref_decayIT_E4typeENS3_IT0_E4typeEEEOS4_OS7_, symObjAddr: 0x1E2A8, symBinAddr: 0x10002EF74, symSize: 0x34 }
  - { offsetInCU: 0x1D216, offset: 0x4BE49, size: 0x8, addend: 0x0, symName: __ZNSt3__119__allocate_at_leastB7v160006INS_9allocatorINS_4pairIccEEEEEENS_19__allocation_resultINS_16allocator_traitsIT_E7pointerEEERS7_m, symObjAddr: 0x1EA2C, symBinAddr: 0x10002F6F8, symSize: 0x40 }
  - { offsetInCU: 0x1D259, offset: 0x4BE8C, size: 0x8, addend: 0x0, symName: __ZNSt3__142__uninitialized_allocator_move_if_noexceptB7v160006INS_9allocatorINS_4pairIccEEEENS_16reverse_iteratorIPS3_EES7_S7_EET2_RT_T0_T1_S8_, symObjAddr: 0x1EBE0, symBinAddr: 0x10002F8AC, symSize: 0x12C }
  - { offsetInCU: 0x1D2F9, offset: 0x4BF2C, size: 0x8, addend: 0x0, symName: __ZNSt3__14swapB7v160006IPNS_4pairIccEEEENS_9enable_ifIXaasr21is_move_constructibleIT_EE5valuesr18is_move_assignableIS5_EE5valueEvE4typeERS5_S8_, symObjAddr: 0x1ED58, symBinAddr: 0x10002FA24, symSize: 0x3C }
  - { offsetInCU: 0x1D34A, offset: 0x4BF7D, size: 0x8, addend: 0x0, symName: __ZNSt3__125__debug_db_invalidate_allB7v160006INS_6vectorINS_4pairIccEENS_9allocatorIS3_EEEEEEvPT_, symObjAddr: 0x1EE40, symBinAddr: 0x10002FB0C, symSize: 0x10 }
  - { offsetInCU: 0x1D37B, offset: 0x4BFAE, size: 0x8, addend: 0x0, symName: __ZNSt3__122__make_exception_guardB7v160006INS_29_AllocatorDestroyRangeReverseINS_9allocatorINS_4pairIccEEEENS_16reverse_iteratorIPS4_EEEEEENS_28__exception_guard_exceptionsIT_EESB_, symObjAddr: 0x1EE50, symBinAddr: 0x10002FB1C, symSize: 0x4C }
  - { offsetInCU: 0x1D3B1, offset: 0x4BFE4, size: 0x8, addend: 0x0, symName: __ZNSt3__1neB7v160006IPNS_4pairIccEES3_EEbRKNS_16reverse_iteratorIT_EERKNS4_IT0_EE, symObjAddr: 0x1EEE0, symBinAddr: 0x10002FBAC, symSize: 0x48 }
  - { offsetInCU: 0x1D3FD, offset: 0x4C030, size: 0x8, addend: 0x0, symName: __ZNSt3__112__to_addressB7v160006INS_16reverse_iteratorIPNS_4pairIccEEEEvEENS_5decayIDTclsr19__to_address_helperIT_EE6__callclsr3stdE7declvalIRKS7_EEEEE4typeES9_, symObjAddr: 0x1EF28, symBinAddr: 0x10002FBF4, symSize: 0x24 }
  - { offsetInCU: 0x1D45E, offset: 0x4C091, size: 0x8, addend: 0x0, symName: __ZNSt3__119__allocator_destroyB7v160006INS_9allocatorINS_4pairIccEEEENS_16reverse_iteratorINS5_IPS3_EEEES8_EEvRT_T0_T1_, symObjAddr: 0x1F1D8, symBinAddr: 0x10002FEA4, symSize: 0x70 }
  - { offsetInCU: 0x1D4C4, offset: 0x4C0F7, size: 0x8, addend: 0x0, symName: __ZNSt3__1neB7v160006INS_16reverse_iteratorIPNS_4pairIccEEEES5_EEbRKNS1_IT_EERKNS1_IT0_EE, symObjAddr: 0x1F284, symBinAddr: 0x10002FF50, symSize: 0x60 }
  - { offsetInCU: 0x1D510, offset: 0x4C143, size: 0x8, addend: 0x0, symName: __ZNSt3__112__to_addressB7v160006INS_16reverse_iteratorINS1_IPNS_4pairIccEEEEEEvEENS_5decayIDTclsr19__to_address_helperIT_EE6__callclsr3stdE7declvalIRKS8_EEEEE4typeESA_, symObjAddr: 0x1F2E4, symBinAddr: 0x10002FFB0, symSize: 0x24 }
  - { offsetInCU: 0x1D680, offset: 0x4C2B3, size: 0x8, addend: 0x0, symName: __ZNSt3__119__throw_regex_errorB7v160006ILNS_15regex_constants10error_typeE8EEEvv, symObjAddr: 0x1FEFC, symBinAddr: 0x100030BC8, symSize: 0x60 }
  - { offsetInCU: 0x1D6A6, offset: 0x4C2D9, size: 0x8, addend: 0x0, symName: __ZNSt3__119__throw_regex_errorB7v160006ILNS_15regex_constants10error_typeE7EEEvv, symObjAddr: 0x1FF5C, symBinAddr: 0x100030C28, symSize: 0x60 }
  - { offsetInCU: 0x1DFF6, offset: 0x4CC29, size: 0x8, addend: 0x0, symName: __ZNSt3__119__throw_regex_errorB7v160006ILNS_15regex_constants10error_typeE15EEEvv, symObjAddr: 0x20F98, symBinAddr: 0x100031C64, symSize: 0x60 }
  - { offsetInCU: 0x1E090, offset: 0x4CCC3, size: 0x8, addend: 0x0, symName: __ZNSt3__14findB7v160006IPKccEET_S3_S3_RKT0_, symObjAddr: 0x226D0, symBinAddr: 0x10003339C, symSize: 0x70 }
  - { offsetInCU: 0x1E0EA, offset: 0x4CD1D, size: 0x8, addend: 0x0, symName: __ZNSt3__116__constrain_hashB7v160006Emm, symObjAddr: 0x22B2C, symBinAddr: 0x1000337F8, symSize: 0x98 }
  - { offsetInCU: 0x1E124, offset: 0x4CD57, size: 0x8, addend: 0x0, symName: __ZNSt3__116__do_string_hashB7v160006IPKcEEmT_S3_, symObjAddr: 0x22D88, symBinAddr: 0x100033A54, symSize: 0x3C }
  - { offsetInCU: 0x1E16A, offset: 0x4CD9D, size: 0x8, addend: 0x0, symName: __ZNSt3__110__loadwordB7v160006ImEET_PKv, symObjAddr: 0x2377C, symBinAddr: 0x100034448, symSize: 0x20 }
  - { offsetInCU: 0x1E1AD, offset: 0x4CDE0, size: 0x8, addend: 0x0, symName: __ZNSt3__110__loadwordB7v160006IjEET_PKv, symObjAddr: 0x239C8, symBinAddr: 0x100034658, symSize: 0x20 }
  - { offsetInCU: 0x1E1F0, offset: 0x4CE23, size: 0x8, addend: 0x0, symName: __ZNSt3__17launderB7v160006IKNS_4pairIKNS_12basic_stringIcNS_11char_traitsIcEENS_9allocatorIcEEEENS_6vectorI5ErrorNS5_ISA_EEEEEEEEPT_SG_, symObjAddr: 0x23CB8, symBinAddr: 0x100034934, symSize: 0x24 }
  - { offsetInCU: 0x1E227, offset: 0x4CE5A, size: 0x8, addend: 0x0, symName: __ZNSt3__19__launderB7v160006IKNS_4pairIKNS_12basic_stringIcNS_11char_traitsIcEENS_9allocatorIcEEEENS_6vectorI5ErrorNS5_ISA_EEEEEEEEPT_SG_, symObjAddr: 0x23CDC, symBinAddr: 0x100034958, symSize: 0x14 }
  - { offsetInCU: 0x1E25F, offset: 0x4CE92, size: 0x8, addend: 0x0, symName: __ZNSt3__1eqB7v160006ERKNS_15__hash_iteratorIPNS_11__hash_nodeINS_17__hash_value_typeINS_12basic_stringIcNS_11char_traitsIcEENS_9allocatorIcEEEENS_6vectorI5ErrorNS6_ISA_EEEEEEPvEEEESJ_, symObjAddr: 0x23D34, symBinAddr: 0x1000349B0, symSize: 0x30 }
  - { offsetInCU: 0x1E29D, offset: 0x4CED0, size: 0x8, addend: 0x0, symName: __ZNSt3__116__is_hash_power2B7v160006Em, symObjAddr: 0x24448, symBinAddr: 0x1000350C4, symSize: 0x50 }
  - { offsetInCU: 0x1E2E7, offset: 0x4CF1A, size: 0x8, addend: 0x0, symName: __ZNSt3__115__debug_db_swapB7v160006INS_6vectorI5ErrorNS_9allocatorIS2_EEEEEEvPT_S7_, symObjAddr: 0x24A70, symBinAddr: 0x1000356EC, symSize: 0x14 }
  - { offsetInCU: 0x1E326, offset: 0x4CF59, size: 0x8, addend: 0x0, symName: __ZNSt3__116__next_hash_pow2B7v160006Em, symObjAddr: 0x24F54, symBinAddr: 0x100035BD0, symSize: 0x6C }
  - { offsetInCU: 0x1E352, offset: 0x4CF85, size: 0x8, addend: 0x0, symName: __ZNSt3__125__debug_db_invalidate_allB7v160006INS_12__hash_tableINS_17__hash_value_typeINS_12basic_stringIcNS_11char_traitsIcEENS_9allocatorIcEEEENS_6vectorI5ErrorNS6_ISA_EEEEEENS_22__unordered_map_hasherIS8_SD_NS_4hashIS8_EENS_8equal_toIS8_EELb1EEENS_21__unordered_map_equalIS8_SD_SI_SG_Lb1EEENS6_ISD_EEEEEEvPT_, symObjAddr: 0x24FC0, symBinAddr: 0x100035C3C, symSize: 0x10 }
  - { offsetInCU: 0x1E383, offset: 0x4CFB6, size: 0x8, addend: 0x0, symName: __ZNSt3__112__libcpp_clzB7v160006Em, symObjAddr: 0x25128, symBinAddr: 0x100035DA4, symSize: 0x1C }
  - { offsetInCU: 0x1E415, offset: 0x4D048, size: 0x8, addend: 0x0, symName: __ZNSt3__142__uninitialized_allocator_move_if_noexceptB7v160006INS_9allocatorI5ErrorEENS_16reverse_iteratorIPS2_EES6_S6_EET2_RT_T0_T1_S7_, symObjAddr: 0x25B90, symBinAddr: 0x10003680C, symSize: 0x11C }
  - { offsetInCU: 0x1E4B5, offset: 0x4D0E8, size: 0x8, addend: 0x0, symName: __ZNSt3__14swapB7v160006IP5ErrorEENS_9enable_ifIXaasr21is_move_constructibleIT_EE5valuesr18is_move_assignableIS4_EE5valueEvE4typeERS4_S7_, symObjAddr: 0x25CAC, symBinAddr: 0x100036928, symSize: 0x3C }
  - { offsetInCU: 0x1E506, offset: 0x4D139, size: 0x8, addend: 0x0, symName: __ZNSt3__125__debug_db_invalidate_allB7v160006INS_6vectorI5ErrorNS_9allocatorIS2_EEEEEEvPT_, symObjAddr: 0x25CE8, symBinAddr: 0x100036964, symSize: 0x10 }
  - { offsetInCU: 0x1E537, offset: 0x4D16A, size: 0x8, addend: 0x0, symName: __ZNSt3__122__make_exception_guardB7v160006INS_29_AllocatorDestroyRangeReverseINS_9allocatorI5ErrorEENS_16reverse_iteratorIPS3_EEEEEENS_28__exception_guard_exceptionsIT_EESA_, symObjAddr: 0x25CF8, symBinAddr: 0x100036974, symSize: 0x4C }
  - { offsetInCU: 0x1E56D, offset: 0x4D1A0, size: 0x8, addend: 0x0, symName: __ZNSt3__119__allocator_destroyB7v160006INS_9allocatorI5ErrorEENS_16reverse_iteratorINS4_IPS2_EEEES7_EEvRT_T0_T1_, symObjAddr: 0x2605C, symBinAddr: 0x100036CD8, symSize: 0x70 }
  - { offsetInCU: 0x1E5D3, offset: 0x4D206, size: 0x8, addend: 0x0, symName: __ZNSt3__1neB7v160006INS_16reverse_iteratorIP5ErrorEES4_EEbRKNS1_IT_EERKNS1_IT0_EE, symObjAddr: 0x26108, symBinAddr: 0x100036D84, symSize: 0x60 }
  - { offsetInCU: 0x1E61F, offset: 0x4D252, size: 0x8, addend: 0x0, symName: __ZNSt3__112__to_addressB7v160006INS_16reverse_iteratorINS1_IP5ErrorEEEEvEENS_5decayIDTclsr19__to_address_helperIT_EE6__callclsr3stdE7declvalIRKS7_EEEEE4typeES9_, symObjAddr: 0x26168, symBinAddr: 0x100036DE4, symSize: 0x24 }
  - { offsetInCU: 0x1F6BC, offset: 0x4E2EF, size: 0x8, addend: 0x0, symName: __ZNSt3__16vectorINS_7__stateIcEENS_9allocatorIS2_EEE26__swap_out_circular_bufferERNS_14__split_bufferIS2_RS4_EE, symObjAddr: 0xB250, symBinAddr: 0x10001C020, symSize: 0x118 }
  - { offsetInCU: 0x1F752, offset: 0x4E385, size: 0x8, addend: 0x0, symName: __ZNSt3__16vectorINS_9sub_matchIPKcEENS_9allocatorIS4_EEE26__swap_out_circular_bufferERNS_14__split_bufferIS4_RS6_EE, symObjAddr: 0xCE78, symBinAddr: 0x10001DC48, symSize: 0x118 }
  - { offsetInCU: 0x1F7E3, offset: 0x4E416, size: 0x8, addend: 0x0, symName: __ZNSt3__16vectorINS_4pairImPKcEENS_9allocatorIS4_EEE26__swap_out_circular_bufferERNS_14__split_bufferIS4_RS6_EE, symObjAddr: 0xE0B8, symBinAddr: 0x10001EE88, symSize: 0x118 }
  - { offsetInCU: 0x1FE82, offset: 0x4EAB5, size: 0x8, addend: 0x0, symName: __ZNSt3__16vectorIcNS_9allocatorIcEEE26__swap_out_circular_bufferERNS_14__split_bufferIcRS2_EE, symObjAddr: 0x175C0, symBinAddr: 0x10002828C, symSize: 0x118 }
  - { offsetInCU: 0x1FED7, offset: 0x4EB0A, size: 0x8, addend: 0x0, symName: __ZNSt3__16vectorINS_12basic_stringIcNS_11char_traitsIcEENS_9allocatorIcEEEENS4_IS6_EEE26__swap_out_circular_bufferERNS_14__split_bufferIS6_RS7_EE, symObjAddr: 0x1B7E0, symBinAddr: 0x10002C4AC, symSize: 0x118 }
  - { offsetInCU: 0x1FF68, offset: 0x4EB9B, size: 0x8, addend: 0x0, symName: __ZNSt3__16vectorINS_4pairINS_12basic_stringIcNS_11char_traitsIcEENS_9allocatorIcEEEES7_EENS5_IS8_EEE26__swap_out_circular_bufferERNS_14__split_bufferIS8_RS9_EE, symObjAddr: 0x1D138, symBinAddr: 0x10002DE04, symSize: 0x118 }
  - { offsetInCU: 0x1FFF9, offset: 0x4EC2C, size: 0x8, addend: 0x0, symName: __ZNSt3__16vectorINS_4pairIccEENS_9allocatorIS2_EEE26__swap_out_circular_bufferERNS_14__split_bufferIS2_RS4_EE, symObjAddr: 0x1E6C4, symBinAddr: 0x10002F390, symSize: 0x118 }
  - { offsetInCU: 0x20302, offset: 0x4EF35, size: 0x8, addend: 0x0, symName: __ZNSt3__16vectorI5ErrorNS_9allocatorIS1_EEE26__swap_out_circular_bufferERNS_14__split_bufferIS1_RS3_EE, symObjAddr: 0x25814, symBinAddr: 0x100036490, symSize: 0x118 }
  - { offsetInCU: 0x224BD, offset: 0x510F0, size: 0x8, addend: 0x0, symName: __ZN8ParseJob12showUnparsedEv, symObjAddr: 0x0, symBinAddr: 0x100012160, symSize: 0x68 }
  - { offsetInCU: 0x224E3, offset: 0x51116, size: 0x8, addend: 0x0, symName: __ZN8ParseJob7executeEv, symObjAddr: 0x180, symBinAddr: 0x1000121C8, symSize: 0x348 }
  - { offsetInCU: 0x22674, offset: 0x512A7, size: 0x8, addend: 0x0, symName: __ZNSt3__119basic_istringstreamIcNS_11char_traitsIcEENS_9allocatorIcEEEC1B7v160006ERKNS_12basic_stringIcS2_S4_EEj, symObjAddr: 0x4C8, symBinAddr: 0x100012510, symSize: 0xFC }
  - { offsetInCU: 0x226BA, offset: 0x512ED, size: 0x8, addend: 0x0, symName: __ZNSt3__111basic_regexIcNS_12regex_traitsIcEEEC1B7v160006EPKcNS_15regex_constants18syntax_option_typeE, symObjAddr: 0x5F0, symBinAddr: 0x10001260C, symSize: 0x3C }
  - { offsetInCU: 0x22705, offset: 0x51338, size: 0x8, addend: 0x0, symName: __ZN5ErrorC1Ev, symObjAddr: 0x62C, symBinAddr: 0x100012648, symSize: 0x2C }
  - { offsetInCU: 0x22730, offset: 0x51363, size: 0x8, addend: 0x0, symName: __ZNSt3__113unordered_mapINS_12basic_stringIcNS_11char_traitsIcEENS_9allocatorIcEEEENS_6vectorI5ErrorNS4_IS8_EEEENS_4hashIS6_EENS_8equal_toIS6_EENS4_INS_4pairIKS6_SA_EEEEE4findB7v160006ERSG_, symObjAddr: 0x8EC, symBinAddr: 0x100012908, symSize: 0x40 }
  - { offsetInCU: 0x22763, offset: 0x51396, size: 0x8, addend: 0x0, symName: __ZNSt3__113unordered_mapINS_12basic_stringIcNS_11char_traitsIcEENS_9allocatorIcEEEENS_6vectorI5ErrorNS4_IS8_EEEENS_4hashIS6_EENS_8equal_toIS6_EENS4_INS_4pairIKS6_SA_EEEEE3endB7v160006Ev, symObjAddr: 0x95C, symBinAddr: 0x100012978, symSize: 0x38 }
  - { offsetInCU: 0x22787, offset: 0x513BA, size: 0x8, addend: 0x0, symName: __ZNSt3__113unordered_mapINS_12basic_stringIcNS_11char_traitsIcEENS_9allocatorIcEEEENS_6vectorI5ErrorNS4_IS8_EEEENS_4hashIS6_EENS_8equal_toIS6_EENS4_INS_4pairIKS6_SA_EEEEE6insertB7v160006EOSH_, symObjAddr: 0x994, symBinAddr: 0x1000129B0, symSize: 0x4C }
  - { offsetInCU: 0x227BA, offset: 0x513ED, size: 0x8, addend: 0x0, symName: __ZNSt3__16vectorI5ErrorNS_9allocatorIS1_EEEC1B7v160006Ev, symObjAddr: 0x9E0, symBinAddr: 0x1000129FC, symSize: 0x2C }
  - { offsetInCU: 0x227E2, offset: 0x51415, size: 0x8, addend: 0x0, symName: __ZNSt3__14pairIKNS_12basic_stringIcNS_11char_traitsIcEENS_9allocatorIcEEEENS_6vectorI5ErrorNS4_IS9_EEEEEC1B7v160006ILb1ELPv0EEERS7_RKSB_, symObjAddr: 0xA0C, symBinAddr: 0x100012A28, symSize: 0x3C }
  - { offsetInCU: 0x22837, offset: 0x5146A, size: 0x8, addend: 0x0, symName: __ZNSt3__14pairIKNS_12basic_stringIcNS_11char_traitsIcEENS_9allocatorIcEEEENS_6vectorI5ErrorNS4_IS9_EEEEED1Ev, symObjAddr: 0xA48, symBinAddr: 0x100012A64, symSize: 0x2C }
  - { offsetInCU: 0x22862, offset: 0x51495, size: 0x8, addend: 0x0, symName: __ZNSt3__16vectorI5ErrorNS_9allocatorIS1_EEED1B7v160006Ev, symObjAddr: 0xA74, symBinAddr: 0x100012A90, symSize: 0x2C }
  - { offsetInCU: 0x2288A, offset: 0x514BD, size: 0x8, addend: 0x0, symName: __ZNKSt3__119__hash_map_iteratorINS_15__hash_iteratorIPNS_11__hash_nodeINS_17__hash_value_typeINS_12basic_stringIcNS_11char_traitsIcEENS_9allocatorIcEEEENS_6vectorI5ErrorNS7_ISB_EEEEEEPvEEEEEptB7v160006Ev, symObjAddr: 0xAA0, symBinAddr: 0x100012ABC, symSize: 0x2C }
  - { offsetInCU: 0x228AE, offset: 0x514E1, size: 0x8, addend: 0x0, symName: __ZNSt3__16vectorI5ErrorNS_9allocatorIS1_EEE9push_backB7v160006ERKS1_, symObjAddr: 0xACC, symBinAddr: 0x100012AE8, symSize: 0x6C }
  - { offsetInCU: 0x228E3, offset: 0x51516, size: 0x8, addend: 0x0, symName: __ZN5ErrorD1Ev, symObjAddr: 0xB38, symBinAddr: 0x100012B54, symSize: 0x2C }
  - { offsetInCU: 0x22913, offset: 0x51546, size: 0x8, addend: 0x0, symName: __ZNSt3__111basic_regexIcNS_12regex_traitsIcEEED1Ev, symObjAddr: 0xB64, symBinAddr: 0x100012B80, symSize: 0x2C }
  - { offsetInCU: 0x22944, offset: 0x51577, size: 0x8, addend: 0x0, symName: __ZNSt3__119basic_istringstreamIcNS_11char_traitsIcEENS_9allocatorIcEEED1Ev, symObjAddr: 0xB90, symBinAddr: 0x100012BAC, symSize: 0x40 }
  - { offsetInCU: 0x22970, offset: 0x515A3, size: 0x8, addend: 0x0, symName: __ZN8ParseJobD1Ev, symObjAddr: 0xBD0, symBinAddr: 0x100012BEC, symSize: 0x2C }
  - { offsetInCU: 0x22998, offset: 0x515CB, size: 0x8, addend: 0x0, symName: __ZN8ParseJobD0Ev, symObjAddr: 0xBFC, symBinAddr: 0x100012C18, symSize: 0x30 }
  - { offsetInCU: 0x229C0, offset: 0x515F3, size: 0x8, addend: 0x0, symName: __ZN5ErrorC2Ev, symObjAddr: 0xC3C, symBinAddr: 0x100012C48, symSize: 0x38 }
  - { offsetInCU: 0x229EB, offset: 0x5161E, size: 0x8, addend: 0x0, symName: __ZNSt3__14pairIKNS_12basic_stringIcNS_11char_traitsIcEENS_9allocatorIcEEEENS_6vectorI5ErrorNS4_IS9_EEEEEC2B7v160006ILb1ELPv0EEERS7_RKSB_, symObjAddr: 0xC74, symBinAddr: 0x100012C80, symSize: 0x70 }
  - { offsetInCU: 0x22A40, offset: 0x51673, size: 0x8, addend: 0x0, symName: __ZNSt3__16vectorI5ErrorNS_9allocatorIS1_EEEC1ERKS4_, symObjAddr: 0xCE4, symBinAddr: 0x100012CF0, symSize: 0x34 }
  - { offsetInCU: 0x22A7A, offset: 0x516AD, size: 0x8, addend: 0x0, symName: __ZNSt3__16vectorI5ErrorNS_9allocatorIS1_EEEC2ERKS4_, symObjAddr: 0xD18, symBinAddr: 0x100012D24, symSize: 0x114 }
  - { offsetInCU: 0x22AE2, offset: 0x51715, size: 0x8, addend: 0x0, symName: __ZNSt3__116allocator_traitsINS_9allocatorI5ErrorEEE37select_on_container_copy_constructionB7v160006IS3_vvEES3_RKS3_, symObjAddr: 0xE2C, symBinAddr: 0x100012E38, symSize: 0x10 }
  - { offsetInCU: 0x22B12, offset: 0x51745, size: 0x8, addend: 0x0, symName: __ZNKSt3__16vectorI5ErrorNS_9allocatorIS1_EEE7__allocB7v160006Ev, symObjAddr: 0xE3C, symBinAddr: 0x100012E48, symSize: 0x28 }
  - { offsetInCU: 0x22B40, offset: 0x51773, size: 0x8, addend: 0x0, symName: __ZNSt3__117__compressed_pairIP5ErrorNS_9allocatorIS1_EEEC1B7v160006IDnS4_EEOT_OT0_, symObjAddr: 0xE64, symBinAddr: 0x100012E70, symSize: 0x3C }
  - { offsetInCU: 0x22B96, offset: 0x517C9, size: 0x8, addend: 0x0, symName: __ZNSt3__16vectorI5ErrorNS_9allocatorIS1_EEE16__destroy_vectorC1ERS4_, symObjAddr: 0xEE0, symBinAddr: 0x100012EEC, symSize: 0x34 }
  - { offsetInCU: 0x22BCD, offset: 0x51800, size: 0x8, addend: 0x0, symName: __ZNKSt3__16vectorI5ErrorNS_9allocatorIS1_EEE4sizeB7v160006Ev, symObjAddr: 0xF24, symBinAddr: 0x100012F30, symSize: 0x28 }
  - { offsetInCU: 0x22BF1, offset: 0x51824, size: 0x8, addend: 0x0, symName: __ZNSt3__16vectorI5ErrorNS_9allocatorIS1_EEE11__vallocateB7v160006Em, symObjAddr: 0xF4C, symBinAddr: 0x100012F58, symSize: 0xB4 }
  - { offsetInCU: 0x22C33, offset: 0x51866, size: 0x8, addend: 0x0, symName: __ZNSt3__16vectorI5ErrorNS_9allocatorIS1_EEE18__construct_at_endIPS1_Li0EEEvT_S7_m, symObjAddr: 0x1000, symBinAddr: 0x10001300C, symSize: 0x8C }
  - { offsetInCU: 0x22CA5, offset: 0x518D8, size: 0x8, addend: 0x0, symName: __ZNSt3__128__exception_guard_exceptionsINS_6vectorI5ErrorNS_9allocatorIS2_EEE16__destroy_vectorEE10__completeB7v160006Ev, symObjAddr: 0x108C, symBinAddr: 0x100013098, symSize: 0x1C }
  - { offsetInCU: 0x22CC9, offset: 0x518FC, size: 0x8, addend: 0x0, symName: __ZNSt3__128__exception_guard_exceptionsINS_6vectorI5ErrorNS_9allocatorIS2_EEE16__destroy_vectorEED1B7v160006Ev, symObjAddr: 0x10A8, symBinAddr: 0x1000130B4, symSize: 0x2C }
  - { offsetInCU: 0x22CF1, offset: 0x51924, size: 0x8, addend: 0x0, symName: __ZNKSt3__117__compressed_pairIP5ErrorNS_9allocatorIS1_EEE6secondB7v160006Ev, symObjAddr: 0x10D4, symBinAddr: 0x1000130E0, symSize: 0x24 }
  - { offsetInCU: 0x22D15, offset: 0x51948, size: 0x8, addend: 0x0, symName: __ZNKSt3__122__compressed_pair_elemINS_9allocatorI5ErrorEELi1ELb1EE5__getB7v160006Ev, symObjAddr: 0x10F8, symBinAddr: 0x100013104, symSize: 0x14 }
  - { offsetInCU: 0x22D39, offset: 0x5196C, size: 0x8, addend: 0x0, symName: __ZNSt3__117__compressed_pairIP5ErrorNS_9allocatorIS1_EEEC2B7v160006IDnS4_EEOT_OT0_, symObjAddr: 0x110C, symBinAddr: 0x100013118, symSize: 0x44 }
  - { offsetInCU: 0x22D8F, offset: 0x519C2, size: 0x8, addend: 0x0, symName: __ZNSt3__122__compressed_pair_elemIP5ErrorLi0ELb0EEC2B7v160006IDnvEEOT_, symObjAddr: 0x1150, symBinAddr: 0x10001315C, symSize: 0x1C }
  - { offsetInCU: 0x22DD0, offset: 0x51A03, size: 0x8, addend: 0x0, symName: __ZNSt3__122__compressed_pair_elemINS_9allocatorI5ErrorEELi1ELb1EEC2B7v160006IS3_vEEOT_, symObjAddr: 0x116C, symBinAddr: 0x100013178, symSize: 0x18 }
  - { offsetInCU: 0x22E11, offset: 0x51A44, size: 0x8, addend: 0x0, symName: __ZNSt3__128__exception_guard_exceptionsINS_6vectorI5ErrorNS_9allocatorIS2_EEE16__destroy_vectorEEC1B7v160006ES6_, symObjAddr: 0x1184, symBinAddr: 0x100013190, symSize: 0x34 }
  - { offsetInCU: 0x22E47, offset: 0x51A7A, size: 0x8, addend: 0x0, symName: __ZNSt3__128__exception_guard_exceptionsINS_6vectorI5ErrorNS_9allocatorIS2_EEE16__destroy_vectorEEC2B7v160006ES6_, symObjAddr: 0x11B8, symBinAddr: 0x1000131C4, symSize: 0x24 }
  - { offsetInCU: 0x22E7D, offset: 0x51AB0, size: 0x8, addend: 0x0, symName: __ZNSt3__16vectorI5ErrorNS_9allocatorIS1_EEE16__destroy_vectorC2ERS4_, symObjAddr: 0x11DC, symBinAddr: 0x1000131E8, symSize: 0x20 }
  - { offsetInCU: 0x22EB4, offset: 0x51AE7, size: 0x8, addend: 0x0, symName: __ZNKSt3__16vectorI5ErrorNS_9allocatorIS1_EEE8max_sizeEv, symObjAddr: 0x11FC, symBinAddr: 0x100013208, symSize: 0x60 }
  - { offsetInCU: 0x22EDA, offset: 0x51B0D, size: 0x8, addend: 0x0, symName: __ZNKSt3__16vectorI5ErrorNS_9allocatorIS1_EEE20__throw_length_errorB7v160006Ev, symObjAddr: 0x125C, symBinAddr: 0x100013268, symSize: 0x1C }
  - { offsetInCU: 0x22EFE, offset: 0x51B31, size: 0x8, addend: 0x0, symName: __ZNSt3__16vectorI5ErrorNS_9allocatorIS1_EEE7__allocB7v160006Ev, symObjAddr: 0x12B8, symBinAddr: 0x1000132C4, symSize: 0x28 }
  - { offsetInCU: 0x22F22, offset: 0x51B55, size: 0x8, addend: 0x0, symName: __ZNSt3__16vectorI5ErrorNS_9allocatorIS1_EEE9__end_capB7v160006Ev, symObjAddr: 0x12E0, symBinAddr: 0x1000132EC, symSize: 0x28 }
  - { offsetInCU: 0x22F46, offset: 0x51B79, size: 0x8, addend: 0x0, symName: __ZNKSt3__16vectorI5ErrorNS_9allocatorIS1_EEE14__annotate_newB7v160006Em, symObjAddr: 0x1308, symBinAddr: 0x100013314, symSize: 0xC8 }
  - { offsetInCU: 0x22F79, offset: 0x51BAC, size: 0x8, addend: 0x0, symName: __ZNSt3__116allocator_traitsINS_9allocatorI5ErrorEEE8max_sizeB7v160006IS3_vEEmRKS3_, symObjAddr: 0x13FC, symBinAddr: 0x1000133DC, symSize: 0x24 }
  - { offsetInCU: 0x22FA7, offset: 0x51BDA, size: 0x8, addend: 0x0, symName: __ZNKSt3__19allocatorI5ErrorE8max_sizeB7v160006Ev, symObjAddr: 0x14C8, symBinAddr: 0x100013400, symSize: 0x20 }
  - { offsetInCU: 0x22FCB, offset: 0x51BFE, size: 0x8, addend: 0x0, symName: __ZNSt3__19allocatorI5ErrorE8allocateB7v160006Em, symObjAddr: 0x15D4, symBinAddr: 0x100013420, symSize: 0x5C }
  - { offsetInCU: 0x22FFD, offset: 0x51C30, size: 0x8, addend: 0x0, symName: __ZNSt3__117__compressed_pairIP5ErrorNS_9allocatorIS1_EEE6secondB7v160006Ev, symObjAddr: 0x1734, symBinAddr: 0x10001347C, symSize: 0x24 }
  - { offsetInCU: 0x23021, offset: 0x51C54, size: 0x8, addend: 0x0, symName: __ZNSt3__122__compressed_pair_elemINS_9allocatorI5ErrorEELi1ELb1EE5__getB7v160006Ev, symObjAddr: 0x1758, symBinAddr: 0x1000134A0, symSize: 0x14 }
  - { offsetInCU: 0x23045, offset: 0x51C78, size: 0x8, addend: 0x0, symName: __ZNSt3__117__compressed_pairIP5ErrorNS_9allocatorIS1_EEE5firstB7v160006Ev, symObjAddr: 0x176C, symBinAddr: 0x1000134B4, symSize: 0x24 }
  - { offsetInCU: 0x23069, offset: 0x51C9C, size: 0x8, addend: 0x0, symName: __ZNSt3__122__compressed_pair_elemIP5ErrorLi0ELb0EE5__getB7v160006Ev, symObjAddr: 0x1790, symBinAddr: 0x1000134D8, symSize: 0x14 }
  - { offsetInCU: 0x2308D, offset: 0x51CC0, size: 0x8, addend: 0x0, symName: __ZNKSt3__16vectorI5ErrorNS_9allocatorIS1_EEE31__annotate_contiguous_containerB7v160006EPKvS6_S6_S6_, symObjAddr: 0x17A4, symBinAddr: 0x1000134EC, symSize: 0x20 }
  - { offsetInCU: 0x230E1, offset: 0x51D14, size: 0x8, addend: 0x0, symName: __ZNKSt3__16vectorI5ErrorNS_9allocatorIS1_EEE4dataB7v160006Ev, symObjAddr: 0x17C4, symBinAddr: 0x10001350C, symSize: 0x28 }
  - { offsetInCU: 0x23105, offset: 0x51D38, size: 0x8, addend: 0x0, symName: __ZNKSt3__16vectorI5ErrorNS_9allocatorIS1_EEE8capacityB7v160006Ev, symObjAddr: 0x17EC, symBinAddr: 0x100013534, symSize: 0x40 }
  - { offsetInCU: 0x23129, offset: 0x51D5C, size: 0x8, addend: 0x0, symName: __ZNKSt3__16vectorI5ErrorNS_9allocatorIS1_EEE9__end_capB7v160006Ev, symObjAddr: 0x1840, symBinAddr: 0x100013588, symSize: 0x28 }
  - { offsetInCU: 0x2314D, offset: 0x51D80, size: 0x8, addend: 0x0, symName: __ZNKSt3__117__compressed_pairIP5ErrorNS_9allocatorIS1_EEE5firstB7v160006Ev, symObjAddr: 0x1868, symBinAddr: 0x1000135B0, symSize: 0x24 }
  - { offsetInCU: 0x23171, offset: 0x51DA4, size: 0x8, addend: 0x0, symName: __ZNKSt3__122__compressed_pair_elemIP5ErrorLi0ELb0EE5__getB7v160006Ev, symObjAddr: 0x188C, symBinAddr: 0x1000135D4, symSize: 0x14 }
  - { offsetInCU: 0x231AE, offset: 0x51DE1, size: 0x8, addend: 0x0, symName: __ZNSt3__16vectorI5ErrorNS_9allocatorIS1_EEE21_ConstructTransactionC1B7v160006ERS4_m, symObjAddr: 0x18A0, symBinAddr: 0x1000135E8, symSize: 0x3C }
  - { offsetInCU: 0x231F4, offset: 0x51E27, size: 0x8, addend: 0x0, symName: __ZNSt3__16vectorI5ErrorNS_9allocatorIS1_EEE21_ConstructTransactionD1B7v160006Ev, symObjAddr: 0x19D0, symBinAddr: 0x100013718, symSize: 0x2C }
  - { offsetInCU: 0x2321C, offset: 0x51E4F, size: 0x8, addend: 0x0, symName: __ZNSt3__16vectorI5ErrorNS_9allocatorIS1_EEE21_ConstructTransactionC2B7v160006ERS4_m, symObjAddr: 0x19FC, symBinAddr: 0x100013744, symSize: 0x4C }
  - { offsetInCU: 0x23262, offset: 0x51E95, size: 0x8, addend: 0x0, symName: __ZNSt3__129_AllocatorDestroyRangeReverseINS_9allocatorI5ErrorEEPS2_EC1B7v160006ERS3_RS4_S7_, symObjAddr: 0x1A94, symBinAddr: 0x1000137DC, symSize: 0x44 }
  - { offsetInCU: 0x232B7, offset: 0x51EEA, size: 0x8, addend: 0x0, symName: __ZNSt3__116allocator_traitsINS_9allocatorI5ErrorEEE9constructB7v160006IS2_JRS2_EvEEvRS3_PT_DpOT0_, symObjAddr: 0x1AD8, symBinAddr: 0x100013820, symSize: 0x34 }
  - { offsetInCU: 0x2330F, offset: 0x51F42, size: 0x8, addend: 0x0, symName: __ZNSt3__128__exception_guard_exceptionsINS_29_AllocatorDestroyRangeReverseINS_9allocatorI5ErrorEEPS3_EEE10__completeB7v160006Ev, symObjAddr: 0x1B0C, symBinAddr: 0x100013854, symSize: 0x1C }
  - { offsetInCU: 0x23333, offset: 0x51F66, size: 0x8, addend: 0x0, symName: __ZNSt3__128__exception_guard_exceptionsINS_29_AllocatorDestroyRangeReverseINS_9allocatorI5ErrorEEPS3_EEED1B7v160006Ev, symObjAddr: 0x1B28, symBinAddr: 0x100013870, symSize: 0x2C }
  - { offsetInCU: 0x2335B, offset: 0x51F8E, size: 0x8, addend: 0x0, symName: __ZNSt3__128__exception_guard_exceptionsINS_29_AllocatorDestroyRangeReverseINS_9allocatorI5ErrorEEPS3_EEEC1B7v160006ES6_, symObjAddr: 0x1B54, symBinAddr: 0x10001389C, symSize: 0x34 }
  - { offsetInCU: 0x23392, offset: 0x51FC5, size: 0x8, addend: 0x0, symName: __ZNSt3__128__exception_guard_exceptionsINS_29_AllocatorDestroyRangeReverseINS_9allocatorI5ErrorEEPS3_EEEC2B7v160006ES6_, symObjAddr: 0x1B88, symBinAddr: 0x1000138D0, symSize: 0x30 }
  - { offsetInCU: 0x233C9, offset: 0x51FFC, size: 0x8, addend: 0x0, symName: __ZNSt3__129_AllocatorDestroyRangeReverseINS_9allocatorI5ErrorEEPS2_EC2B7v160006ERS3_RS4_S7_, symObjAddr: 0x1BB8, symBinAddr: 0x100013900, symSize: 0x38 }
  - { offsetInCU: 0x2341E, offset: 0x52051, size: 0x8, addend: 0x0, symName: __ZNSt3__19allocatorI5ErrorE9constructB7v160006IS1_JRS1_EEEvPT_DpOT0_, symObjAddr: 0x1BF0, symBinAddr: 0x100013938, symSize: 0x30 }
  - { offsetInCU: 0x23473, offset: 0x520A6, size: 0x8, addend: 0x0, symName: __ZN5ErrorC1ERKS_, symObjAddr: 0x1C20, symBinAddr: 0x100013968, symSize: 0x34 }
  - { offsetInCU: 0x234A7, offset: 0x520DA, size: 0x8, addend: 0x0, symName: __ZN5ErrorC2ERKS_, symObjAddr: 0x1C54, symBinAddr: 0x10001399C, symSize: 0x7C }
  - { offsetInCU: 0x234DB, offset: 0x5210E, size: 0x8, addend: 0x0, symName: __ZNSt3__128__exception_guard_exceptionsINS_29_AllocatorDestroyRangeReverseINS_9allocatorI5ErrorEEPS3_EEED2B7v160006Ev, symObjAddr: 0x1CD0, symBinAddr: 0x100013A18, symSize: 0x50 }
  - { offsetInCU: 0x23503, offset: 0x52136, size: 0x8, addend: 0x0, symName: __ZNKSt3__129_AllocatorDestroyRangeReverseINS_9allocatorI5ErrorEEPS2_EclB7v160006Ev, symObjAddr: 0x1D20, symBinAddr: 0x100013A68, symSize: 0x68 }
  - { offsetInCU: 0x23527, offset: 0x5215A, size: 0x8, addend: 0x0, symName: __ZNSt3__116reverse_iteratorIP5ErrorEC1B7v160006ES2_, symObjAddr: 0x1DF8, symBinAddr: 0x100013B40, symSize: 0x34 }
  - { offsetInCU: 0x2355D, offset: 0x52190, size: 0x8, addend: 0x0, symName: __ZNSt3__116allocator_traitsINS_9allocatorI5ErrorEEE7destroyB7v160006IS2_vEEvRS3_PT_, symObjAddr: 0x1E74, symBinAddr: 0x100013BBC, symSize: 0x2C }
  - { offsetInCU: 0x2359A, offset: 0x521CD, size: 0x8, addend: 0x0, symName: __ZNSt3__116reverse_iteratorIP5ErrorEppB7v160006Ev, symObjAddr: 0x1EC4, symBinAddr: 0x100013C0C, symSize: 0x20 }
  - { offsetInCU: 0x235BE, offset: 0x521F1, size: 0x8, addend: 0x0, symName: __ZNKSt3__116reverse_iteratorIP5ErrorE4baseB7v160006Ev, symObjAddr: 0x1EE4, symBinAddr: 0x100013C2C, symSize: 0x18 }
  - { offsetInCU: 0x235E2, offset: 0x52215, size: 0x8, addend: 0x0, symName: __ZNSt3__19allocatorI5ErrorE7destroyB7v160006EPS1_, symObjAddr: 0x1EFC, symBinAddr: 0x100013C44, symSize: 0x28 }
  - { offsetInCU: 0x23619, offset: 0x5224C, size: 0x8, addend: 0x0, symName: __ZNSt3__119__to_address_helperINS_16reverse_iteratorIP5ErrorEEvE6__callB7v160006ERKS4_, symObjAddr: 0x1F24, symBinAddr: 0x100013C6C, symSize: 0x38 }
  - { offsetInCU: 0x2363B, offset: 0x5226E, size: 0x8, addend: 0x0, symName: __ZNKSt3__116reverse_iteratorIP5ErrorEptB7v160006Ev, symObjAddr: 0x1F5C, symBinAddr: 0x100013CA4, symSize: 0x24 }
  - { offsetInCU: 0x2365F, offset: 0x52292, size: 0x8, addend: 0x0, symName: __ZNKSt3__116reverse_iteratorIP5ErrorEdeB7v160006Ev, symObjAddr: 0x1F80, symBinAddr: 0x100013CC8, symSize: 0x28 }
  - { offsetInCU: 0x23691, offset: 0x522C4, size: 0x8, addend: 0x0, symName: __ZNSt3__116reverse_iteratorIP5ErrorEC2B7v160006ES2_, symObjAddr: 0x1FA8, symBinAddr: 0x100013CF0, symSize: 0x28 }
  - { offsetInCU: 0x236C7, offset: 0x522FA, size: 0x8, addend: 0x0, symName: __ZNSt3__16vectorI5ErrorNS_9allocatorIS1_EEE21_ConstructTransactionD2B7v160006Ev, symObjAddr: 0x1FD0, symBinAddr: 0x100013D18, symSize: 0x20 }
  - { offsetInCU: 0x236EF, offset: 0x52322, size: 0x8, addend: 0x0, symName: __ZNSt3__128__exception_guard_exceptionsINS_6vectorI5ErrorNS_9allocatorIS2_EEE16__destroy_vectorEED2B7v160006Ev, symObjAddr: 0x1FF0, symBinAddr: 0x100013D38, symSize: 0x50 }
  - { offsetInCU: 0x23717, offset: 0x5234A, size: 0x8, addend: 0x0, symName: __ZNSt3__16vectorI5ErrorNS_9allocatorIS1_EEE16__destroy_vectorclB7v160006Ev, symObjAddr: 0x2040, symBinAddr: 0x100013D88, symSize: 0x9C }
  - { offsetInCU: 0x2373B, offset: 0x5236E, size: 0x8, addend: 0x0, symName: __ZNKSt3__16vectorI5ErrorNS_9allocatorIS1_EEE17__annotate_deleteB7v160006Ev, symObjAddr: 0x20DC, symBinAddr: 0x100013E24, symSize: 0xD4 }
  - { offsetInCU: 0x2375F, offset: 0x52392, size: 0x8, addend: 0x0, symName: __ZNSt3__16vectorI5ErrorNS_9allocatorIS1_EEE7__clearB7v160006Ev, symObjAddr: 0x21C0, symBinAddr: 0x100013F08, symSize: 0x28 }
  - { offsetInCU: 0x23783, offset: 0x523B6, size: 0x8, addend: 0x0, symName: __ZNSt3__116allocator_traitsINS_9allocatorI5ErrorEEE10deallocateB7v160006ERS3_PS2_m, symObjAddr: 0x21E8, symBinAddr: 0x100013F30, symSize: 0x34 }
  - { offsetInCU: 0x237C4, offset: 0x523F7, size: 0x8, addend: 0x0, symName: __ZNSt3__16vectorI5ErrorNS_9allocatorIS1_EEE22__base_destruct_at_endB7v160006EPS1_, symObjAddr: 0x221C, symBinAddr: 0x100013F64, symSize: 0x8C }
  - { offsetInCU: 0x23806, offset: 0x52439, size: 0x8, addend: 0x0, symName: __ZNSt3__19allocatorI5ErrorE10deallocateB7v160006EPS1_m, symObjAddr: 0x22A8, symBinAddr: 0x100013FF0, symSize: 0x44 }
  - { offsetInCU: 0x23846, offset: 0x52479, size: 0x8, addend: 0x0, symName: __ZNSt3__14pairIKNS_12basic_stringIcNS_11char_traitsIcEENS_9allocatorIcEEEENS_6vectorI5ErrorNS4_IS9_EEEEED2Ev, symObjAddr: 0x23F4, symBinAddr: 0x100014034, symSize: 0x38 }
  - { offsetInCU: 0x23871, offset: 0x524A4, size: 0x8, addend: 0x0, symName: __ZN5ErrorD2Ev, symObjAddr: 0x242C, symBinAddr: 0x10001406C, symSize: 0x38 }
  - { offsetInCU: 0x2389C, offset: 0x524CF, size: 0x8, addend: 0x0, symName: __ZNSt3__111basic_regexIcNS_12regex_traitsIcEEED2Ev, symObjAddr: 0x2464, symBinAddr: 0x1000140A4, symSize: 0x38 }
  - { offsetInCU: 0x238C8, offset: 0x524FB, size: 0x8, addend: 0x0, symName: __ZNSt3__110shared_ptrINS_13__empty_stateIcEEED1B7v160006Ev, symObjAddr: 0x249C, symBinAddr: 0x1000140DC, symSize: 0x2C }
  - { offsetInCU: 0x238F0, offset: 0x52523, size: 0x8, addend: 0x0, symName: __ZNSt3__112regex_traitsIcED1Ev, symObjAddr: 0x24C8, symBinAddr: 0x100014108, symSize: 0x2C }
  - { offsetInCU: 0x2391C, offset: 0x5254F, size: 0x8, addend: 0x0, symName: __ZNSt3__110shared_ptrINS_13__empty_stateIcEEED2B7v160006Ev, symObjAddr: 0x24F4, symBinAddr: 0x100014134, symSize: 0x54 }
  - { offsetInCU: 0x23944, offset: 0x52577, size: 0x8, addend: 0x0, symName: __ZNSt3__119__shared_weak_count16__release_sharedB7v160006Ev, symObjAddr: 0x2548, symBinAddr: 0x100014188, symSize: 0x3C }
  - { offsetInCU: 0x23968, offset: 0x5259B, size: 0x8, addend: 0x0, symName: __ZNSt3__114__shared_count16__release_sharedB7v160006Ev, symObjAddr: 0x2584, symBinAddr: 0x1000141C4, symSize: 0x7C }
  - { offsetInCU: 0x2398C, offset: 0x525BF, size: 0x8, addend: 0x0, symName: __ZNSt3__112regex_traitsIcED2Ev, symObjAddr: 0x2630, symBinAddr: 0x100014270, symSize: 0x2C }
  - { offsetInCU: 0x239B8, offset: 0x525EB, size: 0x8, addend: 0x0, symName: __ZNSt3__119basic_istringstreamIcNS_11char_traitsIcEENS_9allocatorIcEEED2Ev, symObjAddr: 0x265C, symBinAddr: 0x10001429C, symSize: 0x64 }
  - { offsetInCU: 0x239F0, offset: 0x52623, size: 0x8, addend: 0x0, symName: __ZTv0_n24_NSt3__119basic_istringstreamIcNS_11char_traitsIcEENS_9allocatorIcEEED1Ev, symObjAddr: 0x26C0, symBinAddr: 0x100014300, symSize: 0x28 }
  - { offsetInCU: 0x23A0C, offset: 0x5263F, size: 0x8, addend: 0x0, symName: __ZNSt3__115basic_stringbufIcNS_11char_traitsIcEENS_9allocatorIcEEED1Ev, symObjAddr: 0x26E8, symBinAddr: 0x100014328, symSize: 0x2C }
  - { offsetInCU: 0x23A38, offset: 0x5266B, size: 0x8, addend: 0x0, symName: __ZNSt3__115basic_stringbufIcNS_11char_traitsIcEENS_9allocatorIcEEED2Ev, symObjAddr: 0x2714, symBinAddr: 0x100014354, symSize: 0x48 }
  - { offsetInCU: 0x23A64, offset: 0x52697, size: 0x8, addend: 0x0, symName: __ZN8ParseJobD2Ev, symObjAddr: 0x275C, symBinAddr: 0x10001439C, symSize: 0x54 }
  - { offsetInCU: 0x23A8C, offset: 0x526BF, size: 0x8, addend: 0x0, symName: __ZNSt3__113unordered_mapINS_12basic_stringIcNS_11char_traitsIcEENS_9allocatorIcEEEENS_6vectorI5ErrorNS4_IS8_EEEENS_4hashIS6_EENS_8equal_toIS6_EENS4_INS_4pairIKS6_SA_EEEEED1B7v160006Ev, symObjAddr: 0x27B0, symBinAddr: 0x1000143F0, symSize: 0x2C }
  - { offsetInCU: 0x23AB4, offset: 0x526E7, size: 0x8, addend: 0x0, symName: __ZNSt3__113unordered_mapINS_12basic_stringIcNS_11char_traitsIcEENS_9allocatorIcEEEENS_6vectorI5ErrorNS4_IS8_EEEENS_4hashIS6_EENS_8equal_toIS6_EENS4_INS_4pairIKS6_SA_EEEEED2B7v160006Ev, symObjAddr: 0x281C, symBinAddr: 0x10001441C, symSize: 0x2C }
  - { offsetInCU: 0x23ADC, offset: 0x5270F, size: 0x8, addend: 0x0, symName: __ZNSt3__112__hash_tableINS_17__hash_value_typeINS_12basic_stringIcNS_11char_traitsIcEENS_9allocatorIcEEEENS_6vectorI5ErrorNS5_IS9_EEEEEENS_22__unordered_map_hasherIS7_SC_NS_4hashIS7_EENS_8equal_toIS7_EELb1EEENS_21__unordered_map_equalIS7_SC_SH_SF_Lb1EEENS5_ISC_EEED1Ev, symObjAddr: 0x2848, symBinAddr: 0x100014448, symSize: 0x2C }
  - { offsetInCU: 0x23B07, offset: 0x5273A, size: 0x8, addend: 0x0, symName: __ZNSt3__112__hash_tableINS_17__hash_value_typeINS_12basic_stringIcNS_11char_traitsIcEENS_9allocatorIcEEEENS_6vectorI5ErrorNS5_IS9_EEEEEENS_22__unordered_map_hasherIS7_SC_NS_4hashIS7_EENS_8equal_toIS7_EELb1EEENS_21__unordered_map_equalIS7_SC_SH_SF_Lb1EEENS5_ISC_EEED2Ev, symObjAddr: 0x2874, symBinAddr: 0x100014474, symSize: 0x58 }
  - { offsetInCU: 0x23B32, offset: 0x52765, size: 0x8, addend: 0x0, symName: __ZNSt3__112__hash_tableINS_17__hash_value_typeINS_12basic_stringIcNS_11char_traitsIcEENS_9allocatorIcEEEENS_6vectorI5ErrorNS5_IS9_EEEEEENS_22__unordered_map_hasherIS7_SC_NS_4hashIS7_EENS_8equal_toIS7_EELb1EEENS_21__unordered_map_equalIS7_SC_SH_SF_Lb1EEENS5_ISC_EEE17__deallocate_nodeEPNS_16__hash_node_baseIPNS_11__hash_nodeISC_PvEEEE, symObjAddr: 0x28CC, symBinAddr: 0x1000144CC, symSize: 0xA8 }
  - { offsetInCU: 0x23B9A, offset: 0x527CD, size: 0x8, addend: 0x0, symName: __ZNSt3__117__compressed_pairINS_16__hash_node_baseIPNS_11__hash_nodeINS_17__hash_value_typeINS_12basic_stringIcNS_11char_traitsIcEENS_9allocatorIcEEEENS_6vectorI5ErrorNS7_ISB_EEEEEEPvEEEENS7_ISG_EEE5firstB7v160006Ev, symObjAddr: 0x2974, symBinAddr: 0x100014574, symSize: 0x24 }
  - { offsetInCU: 0x23BBE, offset: 0x527F1, size: 0x8, addend: 0x0, symName: __ZNSt3__110unique_ptrIA_PNS_16__hash_node_baseIPNS_11__hash_nodeINS_17__hash_value_typeINS_12basic_stringIcNS_11char_traitsIcEENS_9allocatorIcEEEENS_6vectorI5ErrorNS7_ISB_EEEEEEPvEEEENS_25__bucket_list_deallocatorINS7_ISJ_EEEEED1B7v160006Ev, symObjAddr: 0x29A8, symBinAddr: 0x1000145A8, symSize: 0x2C }
  - { offsetInCU: 0x23BE6, offset: 0x52819, size: 0x8, addend: 0x0, symName: __ZNSt3__112__hash_tableINS_17__hash_value_typeINS_12basic_stringIcNS_11char_traitsIcEENS_9allocatorIcEEEENS_6vectorI5ErrorNS5_IS9_EEEEEENS_22__unordered_map_hasherIS7_SC_NS_4hashIS7_EENS_8equal_toIS7_EELb1EEENS_21__unordered_map_equalIS7_SC_SH_SF_Lb1EEENS5_ISC_EEE12__node_allocB7v160006Ev, symObjAddr: 0x29D4, symBinAddr: 0x1000145D4, symSize: 0x28 }
  - { offsetInCU: 0x23C0A, offset: 0x5283D, size: 0x8, addend: 0x0, symName: __ZNSt3__116__hash_node_baseIPNS_11__hash_nodeINS_17__hash_value_typeINS_12basic_stringIcNS_11char_traitsIcEENS_9allocatorIcEEEENS_6vectorI5ErrorNS6_ISA_EEEEEEPvEEE8__upcastB7v160006Ev, symObjAddr: 0x29FC, symBinAddr: 0x1000145FC, symSize: 0x24 }
  - { offsetInCU: 0x23C2E, offset: 0x52861, size: 0x8, addend: 0x0, symName: __ZNSt3__116allocator_traitsINS_9allocatorINS_11__hash_nodeINS_17__hash_value_typeINS_12basic_stringIcNS_11char_traitsIcEENS1_IcEEEENS_6vectorI5ErrorNS1_ISA_EEEEEEPvEEEEE7destroyB7v160006INS_4pairIKS8_SC_EEvvEEvRSG_PT_, symObjAddr: 0x2A20, symBinAddr: 0x100014620, symSize: 0x28 }
  - { offsetInCU: 0x23C6A, offset: 0x5289D, size: 0x8, addend: 0x0, symName: __ZNSt3__122__hash_key_value_typesINS_17__hash_value_typeINS_12basic_stringIcNS_11char_traitsIcEENS_9allocatorIcEEEENS_6vectorI5ErrorNS5_IS9_EEEEEEE9__get_ptrB7v160006ERSC_, symObjAddr: 0x2A48, symBinAddr: 0x100014648, symSize: 0x24 }
  - { offsetInCU: 0x23C8C, offset: 0x528BF, size: 0x8, addend: 0x0, symName: __ZNSt3__116allocator_traitsINS_9allocatorINS_11__hash_nodeINS_17__hash_value_typeINS_12basic_stringIcNS_11char_traitsIcEENS1_IcEEEENS_6vectorI5ErrorNS1_ISA_EEEEEEPvEEEEE10deallocateB7v160006ERSG_PSF_m, symObjAddr: 0x2A6C, symBinAddr: 0x10001466C, symSize: 0x34 }
  - { offsetInCU: 0x23CCD, offset: 0x52900, size: 0x8, addend: 0x0, symName: __ZNSt3__117__compressed_pairINS_16__hash_node_baseIPNS_11__hash_nodeINS_17__hash_value_typeINS_12basic_stringIcNS_11char_traitsIcEENS_9allocatorIcEEEENS_6vectorI5ErrorNS7_ISB_EEEEEEPvEEEENS7_ISG_EEE6secondB7v160006Ev, symObjAddr: 0x2AA0, symBinAddr: 0x1000146A0, symSize: 0x24 }
  - { offsetInCU: 0x23CF1, offset: 0x52924, size: 0x8, addend: 0x0, symName: __ZNSt3__122__compressed_pair_elemINS_9allocatorINS_11__hash_nodeINS_17__hash_value_typeINS_12basic_stringIcNS_11char_traitsIcEENS1_IcEEEENS_6vectorI5ErrorNS1_ISA_EEEEEEPvEEEELi1ELb1EE5__getB7v160006Ev, symObjAddr: 0x2AC4, symBinAddr: 0x1000146C4, symSize: 0x14 }
  - { offsetInCU: 0x23D15, offset: 0x52948, size: 0x8, addend: 0x0, symName: __ZNSt3__114pointer_traitsIPNS_16__hash_node_baseIPNS_11__hash_nodeINS_17__hash_value_typeINS_12basic_stringIcNS_11char_traitsIcEENS_9allocatorIcEEEENS_6vectorI5ErrorNS7_ISB_EEEEEEPvEEEEE10pointer_toB7v160006ERSI_, symObjAddr: 0x2AD8, symBinAddr: 0x1000146D8, symSize: 0x14 }
  - { offsetInCU: 0x23D37, offset: 0x5296A, size: 0x8, addend: 0x0, symName: __ZNSt3__117__hash_value_typeINS_12basic_stringIcNS_11char_traitsIcEENS_9allocatorIcEEEENS_6vectorI5ErrorNS4_IS8_EEEEE11__get_valueB7v160006Ev, symObjAddr: 0x2AEC, symBinAddr: 0x1000146EC, symSize: 0x24 }
  - { offsetInCU: 0x23D5B, offset: 0x5298E, size: 0x8, addend: 0x0, symName: __ZNSt3__19allocatorINS_11__hash_nodeINS_17__hash_value_typeINS_12basic_stringIcNS_11char_traitsIcEENS0_IcEEEENS_6vectorI5ErrorNS0_IS9_EEEEEEPvEEE10deallocateB7v160006EPSE_m, symObjAddr: 0x2B48, symBinAddr: 0x100014748, symSize: 0x40 }
  - { offsetInCU: 0x23D9B, offset: 0x529CE, size: 0x8, addend: 0x0, symName: __ZNSt3__122__compressed_pair_elemINS_16__hash_node_baseIPNS_11__hash_nodeINS_17__hash_value_typeINS_12basic_stringIcNS_11char_traitsIcEENS_9allocatorIcEEEENS_6vectorI5ErrorNS7_ISB_EEEEEEPvEEEELi0ELb0EE5__getB7v160006Ev, symObjAddr: 0x2B88, symBinAddr: 0x100014788, symSize: 0x14 }
  - { offsetInCU: 0x23DBF, offset: 0x529F2, size: 0x8, addend: 0x0, symName: __ZNSt3__110unique_ptrIA_PNS_16__hash_node_baseIPNS_11__hash_nodeINS_17__hash_value_typeINS_12basic_stringIcNS_11char_traitsIcEENS_9allocatorIcEEEENS_6vectorI5ErrorNS7_ISB_EEEEEEPvEEEENS_25__bucket_list_deallocatorINS7_ISJ_EEEEED2B7v160006Ev, symObjAddr: 0x2B9C, symBinAddr: 0x10001479C, symSize: 0x30 }
  - { offsetInCU: 0x23DE7, offset: 0x52A1A, size: 0x8, addend: 0x0, symName: __ZNSt3__110unique_ptrIA_PNS_16__hash_node_baseIPNS_11__hash_nodeINS_17__hash_value_typeINS_12basic_stringIcNS_11char_traitsIcEENS_9allocatorIcEEEENS_6vectorI5ErrorNS7_ISB_EEEEEEPvEEEENS_25__bucket_list_deallocatorINS7_ISJ_EEEEE5resetB7v160006EDn, symObjAddr: 0x2BCC, symBinAddr: 0x1000147CC, symSize: 0x6C }
  - { offsetInCU: 0x23E26, offset: 0x52A59, size: 0x8, addend: 0x0, symName: __ZNSt3__117__compressed_pairIPPNS_16__hash_node_baseIPNS_11__hash_nodeINS_17__hash_value_typeINS_12basic_stringIcNS_11char_traitsIcEENS_9allocatorIcEEEENS_6vectorI5ErrorNS7_ISB_EEEEEEPvEEEENS_25__bucket_list_deallocatorINS7_ISJ_EEEEE5firstB7v160006Ev, symObjAddr: 0x2C38, symBinAddr: 0x100014838, symSize: 0x24 }
  - { offsetInCU: 0x23E4A, offset: 0x52A7D, size: 0x8, addend: 0x0, symName: __ZNSt3__117__compressed_pairIPPNS_16__hash_node_baseIPNS_11__hash_nodeINS_17__hash_value_typeINS_12basic_stringIcNS_11char_traitsIcEENS_9allocatorIcEEEENS_6vectorI5ErrorNS7_ISB_EEEEEEPvEEEENS_25__bucket_list_deallocatorINS7_ISJ_EEEEE6secondB7v160006Ev, symObjAddr: 0x2C5C, symBinAddr: 0x10001485C, symSize: 0x28 }
  - { offsetInCU: 0x23E6E, offset: 0x52AA1, size: 0x8, addend: 0x0, symName: __ZNSt3__125__bucket_list_deallocatorINS_9allocatorIPNS_16__hash_node_baseIPNS_11__hash_nodeINS_17__hash_value_typeINS_12basic_stringIcNS_11char_traitsIcEENS1_IcEEEENS_6vectorI5ErrorNS1_ISB_EEEEEEPvEEEEEEEclB7v160006EPSJ_, symObjAddr: 0x2C84, symBinAddr: 0x100014884, symSize: 0x58 }
  - { offsetInCU: 0x23EA1, offset: 0x52AD4, size: 0x8, addend: 0x0, symName: __ZNSt3__122__compressed_pair_elemIPPNS_16__hash_node_baseIPNS_11__hash_nodeINS_17__hash_value_typeINS_12basic_stringIcNS_11char_traitsIcEENS_9allocatorIcEEEENS_6vectorI5ErrorNS7_ISB_EEEEEEPvEEEELi0ELb0EE5__getB7v160006Ev, symObjAddr: 0x2CDC, symBinAddr: 0x1000148DC, symSize: 0x14 }
  - { offsetInCU: 0x23EC5, offset: 0x52AF8, size: 0x8, addend: 0x0, symName: __ZNSt3__122__compressed_pair_elemINS_25__bucket_list_deallocatorINS_9allocatorIPNS_16__hash_node_baseIPNS_11__hash_nodeINS_17__hash_value_typeINS_12basic_stringIcNS_11char_traitsIcEENS2_IcEEEENS_6vectorI5ErrorNS2_ISC_EEEEEEPvEEEEEEEELi1ELb0EE5__getB7v160006Ev, symObjAddr: 0x2CF0, symBinAddr: 0x1000148F0, symSize: 0x14 }
  - { offsetInCU: 0x23EE9, offset: 0x52B1C, size: 0x8, addend: 0x0, symName: __ZNSt3__116allocator_traitsINS_9allocatorIPNS_16__hash_node_baseIPNS_11__hash_nodeINS_17__hash_value_typeINS_12basic_stringIcNS_11char_traitsIcEENS1_IcEEEENS_6vectorI5ErrorNS1_ISB_EEEEEEPvEEEEEEE10deallocateB7v160006ERSK_PSJ_m, symObjAddr: 0x2D04, symBinAddr: 0x100014904, symSize: 0x34 }
  - { offsetInCU: 0x23F2A, offset: 0x52B5D, size: 0x8, addend: 0x0, symName: __ZNSt3__125__bucket_list_deallocatorINS_9allocatorIPNS_16__hash_node_baseIPNS_11__hash_nodeINS_17__hash_value_typeINS_12basic_stringIcNS_11char_traitsIcEENS1_IcEEEENS_6vectorI5ErrorNS1_ISB_EEEEEEPvEEEEEEE7__allocB7v160006Ev, symObjAddr: 0x2D38, symBinAddr: 0x100014938, symSize: 0x24 }
  - { offsetInCU: 0x23F4E, offset: 0x52B81, size: 0x8, addend: 0x0, symName: __ZNSt3__125__bucket_list_deallocatorINS_9allocatorIPNS_16__hash_node_baseIPNS_11__hash_nodeINS_17__hash_value_typeINS_12basic_stringIcNS_11char_traitsIcEENS1_IcEEEENS_6vectorI5ErrorNS1_ISB_EEEEEEPvEEEEEEE4sizeB7v160006Ev, symObjAddr: 0x2D5C, symBinAddr: 0x10001495C, symSize: 0x24 }
  - { offsetInCU: 0x23F72, offset: 0x52BA5, size: 0x8, addend: 0x0, symName: __ZNSt3__19allocatorIPNS_16__hash_node_baseIPNS_11__hash_nodeINS_17__hash_value_typeINS_12basic_stringIcNS_11char_traitsIcEENS0_IcEEEENS_6vectorI5ErrorNS0_ISA_EEEEEEPvEEEEE10deallocateB7v160006EPSI_m, symObjAddr: 0x2D80, symBinAddr: 0x100014980, symSize: 0x40 }
  - { offsetInCU: 0x23FB2, offset: 0x52BE5, size: 0x8, addend: 0x0, symName: __ZNSt3__117__compressed_pairImNS_9allocatorIPNS_16__hash_node_baseIPNS_11__hash_nodeINS_17__hash_value_typeINS_12basic_stringIcNS_11char_traitsIcEENS1_IcEEEENS_6vectorI5ErrorNS1_ISB_EEEEEEPvEEEEEEE6secondB7v160006Ev, symObjAddr: 0x2DC0, symBinAddr: 0x1000149C0, symSize: 0x24 }
  - { offsetInCU: 0x23FD6, offset: 0x52C09, size: 0x8, addend: 0x0, symName: __ZNSt3__122__compressed_pair_elemINS_9allocatorIPNS_16__hash_node_baseIPNS_11__hash_nodeINS_17__hash_value_typeINS_12basic_stringIcNS_11char_traitsIcEENS1_IcEEEENS_6vectorI5ErrorNS1_ISB_EEEEEEPvEEEEEELi1ELb1EE5__getB7v160006Ev, symObjAddr: 0x2DE4, symBinAddr: 0x1000149E4, symSize: 0x14 }
  - { offsetInCU: 0x23FFA, offset: 0x52C2D, size: 0x8, addend: 0x0, symName: __ZNSt3__117__compressed_pairImNS_9allocatorIPNS_16__hash_node_baseIPNS_11__hash_nodeINS_17__hash_value_typeINS_12basic_stringIcNS_11char_traitsIcEENS1_IcEEEENS_6vectorI5ErrorNS1_ISB_EEEEEEPvEEEEEEE5firstB7v160006Ev, symObjAddr: 0x2DF8, symBinAddr: 0x1000149F8, symSize: 0x24 }
  - { offsetInCU: 0x24023, offset: 0x52C56, size: 0x8, addend: 0x0, symName: __ZNSt3__19basic_iosIcNS_11char_traitsIcEEEC2B7v160006Ev, symObjAddr: 0x3BB8, symBinAddr: 0x100014A1C, symSize: 0x44 }
  - { offsetInCU: 0x2404B, offset: 0x52C7E, size: 0x8, addend: 0x0, symName: __ZNSt3__113basic_istreamIcNS_11char_traitsIcEEEC2B7v160006EPNS_15basic_streambufIcS2_EE, symObjAddr: 0x3BFC, symBinAddr: 0x100014A60, symSize: 0x64 }
  - { offsetInCU: 0x2408D, offset: 0x52CC0, size: 0x8, addend: 0x0, symName: __ZNSt3__115basic_stringbufIcNS_11char_traitsIcEENS_9allocatorIcEEEC1B7v160006ERKNS_12basic_stringIcS2_S4_EEj, symObjAddr: 0x3C60, symBinAddr: 0x100014AC4, symSize: 0x3C }
  - { offsetInCU: 0x240D1, offset: 0x52D04, size: 0x8, addend: 0x0, symName: __ZNSt3__18ios_baseC2B7v160006Ev, symObjAddr: 0x3C9C, symBinAddr: 0x100014B00, symSize: 0x24 }
  - { offsetInCU: 0x240F9, offset: 0x52D2C, size: 0x8, addend: 0x0, symName: __ZNSt3__19basic_iosIcNS_11char_traitsIcEEE4initB7v160006EPNS_15basic_streambufIcS2_EE, symObjAddr: 0x3CC0, symBinAddr: 0x100014B24, symSize: 0x44 }
  - { offsetInCU: 0x2412E, offset: 0x52D61, size: 0x8, addend: 0x0, symName: __ZNSt3__115basic_stringbufIcNS_11char_traitsIcEENS_9allocatorIcEEEC2B7v160006ERKNS_12basic_stringIcS2_S4_EEj, symObjAddr: 0x3D04, symBinAddr: 0x100014B68, symSize: 0xB4 }
  - { offsetInCU: 0x24172, offset: 0x52DA5, size: 0x8, addend: 0x0, symName: __ZNKSt3__112basic_stringIcNS_11char_traitsIcEENS_9allocatorIcEEE13get_allocatorB7v160006Ev, symObjAddr: 0x3DB8, symBinAddr: 0x100014C1C, symSize: 0x24 }
  - { offsetInCU: 0x24196, offset: 0x52DC9, size: 0x8, addend: 0x0, symName: __ZNSt3__112basic_stringIcNS_11char_traitsIcEENS_9allocatorIcEEEC1B7v160006ERKS4_, symObjAddr: 0x3DDC, symBinAddr: 0x100014C40, symSize: 0x34 }
  - { offsetInCU: 0x241CD, offset: 0x52E00, size: 0x8, addend: 0x0, symName: __ZNKSt3__112basic_stringIcNS_11char_traitsIcEENS_9allocatorIcEEE7__allocB7v160006Ev, symObjAddr: 0x3E10, symBinAddr: 0x100014C74, symSize: 0x24 }
  - { offsetInCU: 0x241F1, offset: 0x52E24, size: 0x8, addend: 0x0, symName: __ZNKSt3__117__compressed_pairINS_12basic_stringIcNS_11char_traitsIcEENS_9allocatorIcEEE5__repES5_E6secondB7v160006Ev, symObjAddr: 0x3E34, symBinAddr: 0x100014C98, symSize: 0x24 }
  - { offsetInCU: 0x24215, offset: 0x52E48, size: 0x8, addend: 0x0, symName: __ZNKSt3__122__compressed_pair_elemINS_9allocatorIcEELi1ELb1EE5__getB7v160006Ev, symObjAddr: 0x3E58, symBinAddr: 0x100014CBC, symSize: 0x14 }
  - { offsetInCU: 0x24239, offset: 0x52E6C, size: 0x8, addend: 0x0, symName: __ZNSt3__112basic_stringIcNS_11char_traitsIcEENS_9allocatorIcEEEC2B7v160006ERKS4_, symObjAddr: 0x3E6C, symBinAddr: 0x100014CD0, symSize: 0x50 }
  - { offsetInCU: 0x24270, offset: 0x52EA3, size: 0x8, addend: 0x0, symName: __ZNSt3__117__compressed_pairINS_12basic_stringIcNS_11char_traitsIcEENS_9allocatorIcEEE5__repES5_EC1B7v160006INS_18__default_init_tagERKS5_EEOT_OT0_, symObjAddr: 0x3EBC, symBinAddr: 0x100014D20, symSize: 0x3C }
  - { offsetInCU: 0x242C6, offset: 0x52EF9, size: 0x8, addend: 0x0, symName: __ZNSt3__117__compressed_pairINS_12basic_stringIcNS_11char_traitsIcEENS_9allocatorIcEEE5__repES5_EC2B7v160006INS_18__default_init_tagERKS5_EEOT_OT0_, symObjAddr: 0x3EF8, symBinAddr: 0x100014D5C, symSize: 0x40 }
  - { offsetInCU: 0x2431C, offset: 0x52F4F, size: 0x8, addend: 0x0, symName: __ZNSt3__122__compressed_pair_elemINS_9allocatorIcEELi1ELb1EEC2B7v160006IRKS2_vEEOT_, symObjAddr: 0x3F38, symBinAddr: 0x100014D9C, symSize: 0x18 }
  - { offsetInCU: 0x2435D, offset: 0x52F90, size: 0x8, addend: 0x0, symName: __ZNSt3__111basic_regexIcNS_12regex_traitsIcEEEC2B7v160006EPKcNS_15regex_constants18syntax_option_typeE, symObjAddr: 0x3F50, symBinAddr: 0x100014DB4, symSize: 0xC8 }
  - { offsetInCU: 0x243A3, offset: 0x52FD6, size: 0x8, addend: 0x0, symName: __ZNSt3__112regex_traitsIcEC1Ev, symObjAddr: 0x4018, symBinAddr: 0x100014E7C, symSize: 0x2C }
  - { offsetInCU: 0x243CE, offset: 0x53001, size: 0x8, addend: 0x0, symName: __ZNSt3__110shared_ptrINS_13__empty_stateIcEEEC1B7v160006Ev, symObjAddr: 0x4044, symBinAddr: 0x100014EA8, symSize: 0x2C }
  - { offsetInCU: 0x243F6, offset: 0x53029, size: 0x8, addend: 0x0, symName: __ZNSt3__111basic_regexIcNS_12regex_traitsIcEEE6__initIPKcEEvT_S7_, symObjAddr: 0x4070, symBinAddr: 0x100014ED4, symSize: 0x88 }
  - { offsetInCU: 0x24452, offset: 0x53085, size: 0x8, addend: 0x0, symName: __ZNSt3__112regex_traitsIcE6lengthB7v160006EPKc, symObjAddr: 0x40F8, symBinAddr: 0x100014F5C, symSize: 0x24 }
  - { offsetInCU: 0x24475, offset: 0x530A8, size: 0x8, addend: 0x0, symName: __ZNSt3__112regex_traitsIcEC2Ev, symObjAddr: 0x411C, symBinAddr: 0x100014F80, symSize: 0x5C }
  - { offsetInCU: 0x244A0, offset: 0x530D3, size: 0x8, addend: 0x0, symName: __ZNSt3__112regex_traitsIcE6__initEv, symObjAddr: 0x4178, symBinAddr: 0x100014FDC, symSize: 0x40 }
  - { offsetInCU: 0x244C6, offset: 0x530F9, size: 0x8, addend: 0x0, symName: __ZNSt3__110shared_ptrINS_13__empty_stateIcEEEC2B7v160006Ev, symObjAddr: 0x41E4, symBinAddr: 0x100015048, symSize: 0x1C }
  - { offsetInCU: 0x244EE, offset: 0x53121, size: 0x8, addend: 0x0, symName: __ZNSt3__111basic_regexIcNS_12regex_traitsIcEEE7__parseIPKcEET_S7_S7_, symObjAddr: 0x4254, symBinAddr: 0x1000150B8, symSize: 0x21C }
  - { offsetInCU: 0x24564, offset: 0x53197, size: 0x8, addend: 0x0, symName: __ZNSt3__111__end_stateIcEC1B7v160006Ev, symObjAddr: 0x44F0, symBinAddr: 0x100015354, symSize: 0x2C }
  - { offsetInCU: 0x24618, offset: 0x5324B, size: 0x8, addend: 0x0, symName: __ZNSt3__110unique_ptrINS_6__nodeIcEENS_14default_deleteIS2_EEEC1B7v160006ILb1EvEEPS2_, symObjAddr: 0x451C, symBinAddr: 0x100015380, symSize: 0x34 }
  - { offsetInCU: 0x2465F, offset: 0x53292, size: 0x8, addend: 0x0, symName: __ZNSt3__110shared_ptrINS_13__empty_stateIcEEE5resetB7v160006IS2_vEEvPT_, symObjAddr: 0x4550, symBinAddr: 0x1000153B4, symSize: 0x4C }
  - { offsetInCU: 0x2469D, offset: 0x532D0, size: 0x8, addend: 0x0, symName: __ZNKSt3__110unique_ptrINS_6__nodeIcEENS_14default_deleteIS2_EEE3getB7v160006Ev, symObjAddr: 0x459C, symBinAddr: 0x100015400, symSize: 0x28 }
  - { offsetInCU: 0x246C1, offset: 0x532F4, size: 0x8, addend: 0x0, symName: __ZNSt3__113__empty_stateIcEC1B7v160006EPNS_6__nodeIcEE, symObjAddr: 0x45C4, symBinAddr: 0x100015428, symSize: 0x34 }
  - { offsetInCU: 0x246F8, offset: 0x5332B, size: 0x8, addend: 0x0, symName: __ZNSt3__110unique_ptrINS_6__nodeIcEENS_14default_deleteIS2_EEE7releaseB7v160006Ev, symObjAddr: 0x45F8, symBinAddr: 0x10001545C, symSize: 0x44 }
  - { offsetInCU: 0x2472B, offset: 0x5335E, size: 0x8, addend: 0x0, symName: __ZNKSt3__110shared_ptrINS_13__empty_stateIcEEE3getB7v160006Ev, symObjAddr: 0x463C, symBinAddr: 0x1000154A0, symSize: 0x18 }
  - { offsetInCU: 0x2474F, offset: 0x53382, size: 0x8, addend: 0x0, symName: __ZNSt3__110unique_ptrINS_6__nodeIcEENS_14default_deleteIS2_EEED1B7v160006Ev, symObjAddr: 0x4654, symBinAddr: 0x1000154B8, symSize: 0x2C }
  - { offsetInCU: 0x24777, offset: 0x533AA, size: 0x8, addend: 0x0, symName: __ZNSt3__111basic_regexIcNS_12regex_traitsIcEEE16__parse_ecma_expIPKcEET_S7_S7_, symObjAddr: 0x4680, symBinAddr: 0x1000154E4, symSize: 0x124 }
  - { offsetInCU: 0x24800, offset: 0x53433, size: 0x8, addend: 0x0, symName: __ZNSt3__111basic_regexIcNS_12regex_traitsIcEEE21__parse_basic_reg_expIPKcEET_S7_S7_, symObjAddr: 0x47A4, symBinAddr: 0x100015608, symSize: 0x13C }
  - { offsetInCU: 0x2486B, offset: 0x5349E, size: 0x8, addend: 0x0, symName: __ZNSt3__111basic_regexIcNS_12regex_traitsIcEEE24__parse_extended_reg_expIPKcEET_S7_S7_, symObjAddr: 0x48E0, symBinAddr: 0x100015744, symSize: 0x114 }
  - { offsetInCU: 0x248F4, offset: 0x53527, size: 0x8, addend: 0x0, symName: __ZNSt3__111basic_regexIcNS_12regex_traitsIcEEE12__parse_grepIPKcEET_S7_S7_, symObjAddr: 0x49F4, symBinAddr: 0x100015858, symSize: 0x17C }
  - { offsetInCU: 0x2497D, offset: 0x535B0, size: 0x8, addend: 0x0, symName: __ZNSt3__111basic_regexIcNS_12regex_traitsIcEEE13__parse_egrepIPKcEET_S7_S7_, symObjAddr: 0x4B70, symBinAddr: 0x1000159D4, symSize: 0x17C }
  - { offsetInCU: 0x24A06, offset: 0x53639, size: 0x8, addend: 0x0, symName: __ZNSt3__111__end_stateIcEC2B7v160006Ev, symObjAddr: 0x4D4C, symBinAddr: 0x100015BB0, symSize: 0x44 }
  - { offsetInCU: 0x24A2E, offset: 0x53661, size: 0x8, addend: 0x0, symName: __ZNSt3__16__nodeIcEC2B7v160006Ev, symObjAddr: 0x4D90, symBinAddr: 0x100015BF4, symSize: 0x24 }
  - { offsetInCU: 0x24A56, offset: 0x53689, size: 0x8, addend: 0x0, symName: __ZNSt3__111__end_stateIcED1Ev, symObjAddr: 0x4DB4, symBinAddr: 0x100015C18, symSize: 0x2C }
  - { offsetInCU: 0x24A82, offset: 0x536B5, size: 0x8, addend: 0x0, symName: __ZNSt3__111__end_stateIcED0Ev, symObjAddr: 0x4DE0, symBinAddr: 0x100015C44, symSize: 0x30 }
  - { offsetInCU: 0x24AAE, offset: 0x536E1, size: 0x8, addend: 0x0, symName: __ZNKSt3__111__end_stateIcE6__execERNS_7__stateIcEE, symObjAddr: 0x4E10, symBinAddr: 0x100015C74, symSize: 0x20 }
  - { offsetInCU: 0x24AE3, offset: 0x53716, size: 0x8, addend: 0x0, symName: __ZNKSt3__16__nodeIcE12__exec_splitEbRNS_7__stateIcEE, symObjAddr: 0x4E30, symBinAddr: 0x100015C94, symSize: 0x1C }
  - { offsetInCU: 0x24B1F, offset: 0x53752, size: 0x8, addend: 0x0, symName: __ZNSt3__16__nodeIcED1Ev, symObjAddr: 0x4E4C, symBinAddr: 0x100015CB0, symSize: 0x2C }
  - { offsetInCU: 0x24B47, offset: 0x5377A, size: 0x8, addend: 0x0, symName: __ZNSt3__16__nodeIcED0Ev, symObjAddr: 0x4E78, symBinAddr: 0x100015CDC, symSize: 0x30 }
  - { offsetInCU: 0x24B6F, offset: 0x537A2, size: 0x8, addend: 0x0, symName: __ZNKSt3__16__nodeIcE6__execERNS_7__stateIcEE, symObjAddr: 0x4EA8, symBinAddr: 0x100015D0C, symSize: 0x14 }
  - { offsetInCU: 0x24B9F, offset: 0x537D2, size: 0x8, addend: 0x0, symName: __ZNSt3__16__nodeIcED2Ev, symObjAddr: 0x4EBC, symBinAddr: 0x100015D20, symSize: 0x14 }
  - { offsetInCU: 0x24BC7, offset: 0x537FA, size: 0x8, addend: 0x0, symName: __ZNSt3__111__end_stateIcED2Ev, symObjAddr: 0x4ED0, symBinAddr: 0x100015D34, symSize: 0x2C }
  - { offsetInCU: 0x24BF3, offset: 0x53826, size: 0x8, addend: 0x0, symName: __ZNSt3__110unique_ptrINS_6__nodeIcEENS_14default_deleteIS2_EEEC2B7v160006ILb1EvEEPS2_, symObjAddr: 0x4EFC, symBinAddr: 0x100015D60, symSize: 0x44 }
  - { offsetInCU: 0x24C3A, offset: 0x5386D, size: 0x8, addend: 0x0, symName: __ZNSt3__117__compressed_pairIPNS_6__nodeIcEENS_14default_deleteIS2_EEEC1B7v160006IRS3_NS_16__value_init_tagEEEOT_OT0_, symObjAddr: 0x4F40, symBinAddr: 0x100015DA4, symSize: 0x3C }
  - { offsetInCU: 0x24C90, offset: 0x538C3, size: 0x8, addend: 0x0, symName: __ZNSt3__117__compressed_pairIPNS_6__nodeIcEENS_14default_deleteIS2_EEEC2B7v160006IRS3_NS_16__value_init_tagEEEOT_OT0_, symObjAddr: 0x4F7C, symBinAddr: 0x100015DE0, symSize: 0x40 }
  - { offsetInCU: 0x24CE6, offset: 0x53919, size: 0x8, addend: 0x0, symName: __ZNSt3__122__compressed_pair_elemIPNS_6__nodeIcEELi0ELb0EEC2B7v160006IRS3_vEEOT_, symObjAddr: 0x4FBC, symBinAddr: 0x100015E20, symSize: 0x24 }
  - { offsetInCU: 0x24D27, offset: 0x5395A, size: 0x8, addend: 0x0, symName: __ZNSt3__122__compressed_pair_elemINS_14default_deleteINS_6__nodeIcEEEELi1ELb1EEC2B7v160006ENS_16__value_init_tagE, symObjAddr: 0x4FE0, symBinAddr: 0x100015E44, symSize: 0x14 }
  - { offsetInCU: 0x24D59, offset: 0x5398C, size: 0x8, addend: 0x0, symName: __ZNSt3__110shared_ptrINS_13__empty_stateIcEEEC1IS2_vEEPT_, symObjAddr: 0x4FF4, symBinAddr: 0x100015E58, symSize: 0x34 }
  - { offsetInCU: 0x24D9B, offset: 0x539CE, size: 0x8, addend: 0x0, symName: __ZNSt3__110shared_ptrINS_13__empty_stateIcEEE4swapB7v160006ERS3_, symObjAddr: 0x5028, symBinAddr: 0x100015E8C, symSize: 0x44 }
  - { offsetInCU: 0x24DCE, offset: 0x53A01, size: 0x8, addend: 0x0, symName: __ZNSt3__110shared_ptrINS_13__empty_stateIcEEEC2IS2_vEEPT_, symObjAddr: 0x506C, symBinAddr: 0x100015ED0, symSize: 0xEC }
  - { offsetInCU: 0x24EB6, offset: 0x53AE9, size: 0x8, addend: 0x0, symName: __ZNSt3__110unique_ptrINS_13__empty_stateIcEENS_14default_deleteIS2_EEEC1B7v160006ILb1EvEEPS2_, symObjAddr: 0x5158, symBinAddr: 0x100015FBC, symSize: 0x34 }
  - { offsetInCU: 0x24F16, offset: 0x53B49, size: 0x8, addend: 0x0, symName: __ZNSt3__19allocatorINS_13__empty_stateIcEEEC1B7v160006Ev, symObjAddr: 0x518C, symBinAddr: 0x100015FF0, symSize: 0x2C }
  - { offsetInCU: 0x24FD9, offset: 0x53C0C, size: 0x8, addend: 0x0, symName: __ZNSt3__120__shared_ptr_pointerIPNS_13__empty_stateIcEENS_10shared_ptrIS2_E27__shared_ptr_default_deleteIS2_S2_EENS_9allocatorIS2_EEEC1B7v160006ES3_S7_S9_, symObjAddr: 0x51B8, symBinAddr: 0x10001601C, symSize: 0x34 }
  - { offsetInCU: 0x2502B, offset: 0x53C5E, size: 0x8, addend: 0x0, symName: __ZNSt3__110unique_ptrINS_13__empty_stateIcEENS_14default_deleteIS2_EEE7releaseB7v160006Ev, symObjAddr: 0x51EC, symBinAddr: 0x100016050, symSize: 0x44 }
  - { offsetInCU: 0x2505E, offset: 0x53C91, size: 0x8, addend: 0x0, symName: __ZNSt3__110shared_ptrINS_13__empty_stateIcEEE18__enable_weak_thisB7v160006Ez, symObjAddr: 0x5230, symBinAddr: 0x100016094, symSize: 0x10 }
  - { offsetInCU: 0x25083, offset: 0x53CB6, size: 0x8, addend: 0x0, symName: __ZNSt3__110unique_ptrINS_13__empty_stateIcEENS_14default_deleteIS2_EEED1B7v160006Ev, symObjAddr: 0x5240, symBinAddr: 0x1000160A4, symSize: 0x2C }
  - { offsetInCU: 0x250AB, offset: 0x53CDE, size: 0x8, addend: 0x0, symName: __ZNSt3__110unique_ptrINS_13__empty_stateIcEENS_14default_deleteIS2_EEEC2B7v160006ILb1EvEEPS2_, symObjAddr: 0x526C, symBinAddr: 0x1000160D0, symSize: 0x44 }
  - { offsetInCU: 0x250ED, offset: 0x53D20, size: 0x8, addend: 0x0, symName: __ZNSt3__117__compressed_pairIPNS_13__empty_stateIcEENS_14default_deleteIS2_EEEC1B7v160006IRS3_NS_16__value_init_tagEEEOT_OT0_, symObjAddr: 0x52B0, symBinAddr: 0x100016114, symSize: 0x3C }
  - { offsetInCU: 0x25143, offset: 0x53D76, size: 0x8, addend: 0x0, symName: __ZNSt3__117__compressed_pairIPNS_13__empty_stateIcEENS_14default_deleteIS2_EEEC2B7v160006IRS3_NS_16__value_init_tagEEEOT_OT0_, symObjAddr: 0x52EC, symBinAddr: 0x100016150, symSize: 0x40 }
  - { offsetInCU: 0x25199, offset: 0x53DCC, size: 0x8, addend: 0x0, symName: __ZNSt3__122__compressed_pair_elemIPNS_13__empty_stateIcEELi0ELb0EEC2B7v160006IRS3_vEEOT_, symObjAddr: 0x532C, symBinAddr: 0x100016190, symSize: 0x24 }
  - { offsetInCU: 0x251DA, offset: 0x53E0D, size: 0x8, addend: 0x0, symName: __ZNSt3__122__compressed_pair_elemINS_14default_deleteINS_13__empty_stateIcEEEELi1ELb1EEC2B7v160006ENS_16__value_init_tagE, symObjAddr: 0x5350, symBinAddr: 0x1000161B4, symSize: 0x14 }
  - { offsetInCU: 0x2520C, offset: 0x53E3F, size: 0x8, addend: 0x0, symName: __ZNSt3__19allocatorINS_13__empty_stateIcEEEC2B7v160006Ev, symObjAddr: 0x5364, symBinAddr: 0x1000161C8, symSize: 0x2C }
  - { offsetInCU: 0x25234, offset: 0x53E67, size: 0x8, addend: 0x0, symName: __ZNSt3__116__non_trivial_ifILb1ENS_9allocatorINS_13__empty_stateIcEEEEEC2B7v160006Ev, symObjAddr: 0x5390, symBinAddr: 0x1000161F4, symSize: 0x14 }
  - { offsetInCU: 0x2525C, offset: 0x53E8F, size: 0x8, addend: 0x0, symName: __ZNSt3__120__shared_ptr_pointerIPNS_13__empty_stateIcEENS_10shared_ptrIS2_E27__shared_ptr_default_deleteIS2_S2_EENS_9allocatorIS2_EEEC2B7v160006ES3_S7_S9_, symObjAddr: 0x53A4, symBinAddr: 0x100016208, symSize: 0xA8 }
  - { offsetInCU: 0x252AE, offset: 0x53EE1, size: 0x8, addend: 0x0, symName: __ZNSt3__119__shared_weak_countC2B7v160006El, symObjAddr: 0x544C, symBinAddr: 0x1000162B0, symSize: 0x54 }
  - { offsetInCU: 0x252E9, offset: 0x53F1C, size: 0x8, addend: 0x0, symName: __ZNSt3__117__compressed_pairIPNS_13__empty_stateIcEENS_10shared_ptrIS2_E27__shared_ptr_default_deleteIS2_S2_EEEC1B7v160006IRS3_S7_EEOT_OT0_, symObjAddr: 0x54A0, symBinAddr: 0x100016304, symSize: 0x3C }
  - { offsetInCU: 0x25349, offset: 0x53F7C, size: 0x8, addend: 0x0, symName: __ZNSt3__117__compressed_pairINS0_IPNS_13__empty_stateIcEENS_10shared_ptrIS2_E27__shared_ptr_default_deleteIS2_S2_EEEENS_9allocatorIS2_EEEC1B7v160006IS8_SA_EEOT_OT0_, symObjAddr: 0x54DC, symBinAddr: 0x100016340, symSize: 0x3C }
  - { offsetInCU: 0x2539F, offset: 0x53FD2, size: 0x8, addend: 0x0, symName: __ZNSt3__120__shared_ptr_pointerIPNS_13__empty_stateIcEENS_10shared_ptrIS2_E27__shared_ptr_default_deleteIS2_S2_EENS_9allocatorIS2_EEED1Ev, symObjAddr: 0x5518, symBinAddr: 0x10001637C, symSize: 0x2C }
  - { offsetInCU: 0x253CA, offset: 0x53FFD, size: 0x8, addend: 0x0, symName: __ZNSt3__120__shared_ptr_pointerIPNS_13__empty_stateIcEENS_10shared_ptrIS2_E27__shared_ptr_default_deleteIS2_S2_EENS_9allocatorIS2_EEED0Ev, symObjAddr: 0x5544, symBinAddr: 0x1000163A8, symSize: 0x30 }
  - { offsetInCU: 0x253F5, offset: 0x54028, size: 0x8, addend: 0x0, symName: __ZNSt3__120__shared_ptr_pointerIPNS_13__empty_stateIcEENS_10shared_ptrIS2_E27__shared_ptr_default_deleteIS2_S2_EENS_9allocatorIS2_EEE16__on_zero_sharedEv, symObjAddr: 0x5574, symBinAddr: 0x1000163D8, symSize: 0x64 }
  - { offsetInCU: 0x2541B, offset: 0x5404E, size: 0x8, addend: 0x0, symName: __ZNKSt3__120__shared_ptr_pointerIPNS_13__empty_stateIcEENS_10shared_ptrIS2_E27__shared_ptr_default_deleteIS2_S2_EENS_9allocatorIS2_EEE13__get_deleterERKSt9type_info, symObjAddr: 0x55D8, symBinAddr: 0x10001643C, symSize: 0x68 }
  - { offsetInCU: 0x2544F, offset: 0x54082, size: 0x8, addend: 0x0, symName: __ZNSt3__120__shared_ptr_pointerIPNS_13__empty_stateIcEENS_10shared_ptrIS2_E27__shared_ptr_default_deleteIS2_S2_EENS_9allocatorIS2_EEE21__on_zero_shared_weakEv, symObjAddr: 0x5640, symBinAddr: 0x1000164A4, symSize: 0x60 }
  - { offsetInCU: 0x2548F, offset: 0x540C2, size: 0x8, addend: 0x0, symName: __ZNSt3__114__shared_countC2B7v160006El, symObjAddr: 0x56A0, symBinAddr: 0x100016504, symSize: 0x30 }
  - { offsetInCU: 0x254C5, offset: 0x540F8, size: 0x8, addend: 0x0, symName: __ZNSt3__117__compressed_pairIPNS_13__empty_stateIcEENS_10shared_ptrIS2_E27__shared_ptr_default_deleteIS2_S2_EEEC2B7v160006IRS3_S7_EEOT_OT0_, symObjAddr: 0x56D0, symBinAddr: 0x100016534, symSize: 0x44 }
  - { offsetInCU: 0x2551B, offset: 0x5414E, size: 0x8, addend: 0x0, symName: __ZNSt3__122__compressed_pair_elemINS_10shared_ptrINS_13__empty_stateIcEEE27__shared_ptr_default_deleteIS3_S3_EELi1ELb1EEC2B7v160006IS6_vEEOT_, symObjAddr: 0x5714, symBinAddr: 0x100016578, symSize: 0x18 }
  - { offsetInCU: 0x2555C, offset: 0x5418F, size: 0x8, addend: 0x0, symName: __ZNSt3__117__compressed_pairINS0_IPNS_13__empty_stateIcEENS_10shared_ptrIS2_E27__shared_ptr_default_deleteIS2_S2_EEEENS_9allocatorIS2_EEEC2B7v160006IS8_SA_EEOT_OT0_, symObjAddr: 0x572C, symBinAddr: 0x100016590, symSize: 0x44 }
  - { offsetInCU: 0x255B2, offset: 0x541E5, size: 0x8, addend: 0x0, symName: __ZNSt3__122__compressed_pair_elemINS_17__compressed_pairIPNS_13__empty_stateIcEENS_10shared_ptrIS3_E27__shared_ptr_default_deleteIS3_S3_EEEELi0ELb0EEC2B7v160006IS9_vEEOT_, symObjAddr: 0x5770, symBinAddr: 0x1000165D4, symSize: 0x24 }
  - { offsetInCU: 0x255F3, offset: 0x54226, size: 0x8, addend: 0x0, symName: __ZNSt3__122__compressed_pair_elemINS_9allocatorINS_13__empty_stateIcEEEELi1ELb1EEC2B7v160006IS4_vEEOT_, symObjAddr: 0x5794, symBinAddr: 0x1000165F8, symSize: 0x18 }
  - { offsetInCU: 0x25634, offset: 0x54267, size: 0x8, addend: 0x0, symName: __ZNSt3__120__shared_ptr_pointerIPNS_13__empty_stateIcEENS_10shared_ptrIS2_E27__shared_ptr_default_deleteIS2_S2_EENS_9allocatorIS2_EEED2Ev, symObjAddr: 0x57AC, symBinAddr: 0x100016610, symSize: 0x2C }
  - { offsetInCU: 0x2565F, offset: 0x54292, size: 0x8, addend: 0x0, symName: __ZNSt3__117__compressed_pairINS0_IPNS_13__empty_stateIcEENS_10shared_ptrIS2_E27__shared_ptr_default_deleteIS2_S2_EEEENS_9allocatorIS2_EEE5firstB7v160006Ev, symObjAddr: 0x57D8, symBinAddr: 0x10001663C, symSize: 0x24 }
  - { offsetInCU: 0x25683, offset: 0x542B6, size: 0x8, addend: 0x0, symName: __ZNSt3__117__compressed_pairIPNS_13__empty_stateIcEENS_10shared_ptrIS2_E27__shared_ptr_default_deleteIS2_S2_EEE6secondB7v160006Ev, symObjAddr: 0x57FC, symBinAddr: 0x100016660, symSize: 0x24 }
  - { offsetInCU: 0x256A7, offset: 0x542DA, size: 0x8, addend: 0x0, symName: __ZNKSt3__114default_deleteINS_13__empty_stateIcEEEclB7v160006EPS2_, symObjAddr: 0x5820, symBinAddr: 0x100016684, symSize: 0x4C }
  - { offsetInCU: 0x256D9, offset: 0x5430C, size: 0x8, addend: 0x0, symName: __ZNSt3__117__compressed_pairIPNS_13__empty_stateIcEENS_10shared_ptrIS2_E27__shared_ptr_default_deleteIS2_S2_EEE5firstB7v160006Ev, symObjAddr: 0x586C, symBinAddr: 0x1000166D0, symSize: 0x24 }
  - { offsetInCU: 0x256FD, offset: 0x54330, size: 0x8, addend: 0x0, symName: __ZNSt3__122__compressed_pair_elemINS_17__compressed_pairIPNS_13__empty_stateIcEENS_10shared_ptrIS3_E27__shared_ptr_default_deleteIS3_S3_EEEELi0ELb0EE5__getB7v160006Ev, symObjAddr: 0x5890, symBinAddr: 0x1000166F4, symSize: 0x14 }
  - { offsetInCU: 0x25721, offset: 0x54354, size: 0x8, addend: 0x0, symName: __ZNSt3__122__compressed_pair_elemINS_10shared_ptrINS_13__empty_stateIcEEE27__shared_ptr_default_deleteIS3_S3_EELi1ELb1EE5__getB7v160006Ev, symObjAddr: 0x58A4, symBinAddr: 0x100016708, symSize: 0x14 }
  - { offsetInCU: 0x25745, offset: 0x54378, size: 0x8, addend: 0x0, symName: __ZNSt3__122__compressed_pair_elemIPNS_13__empty_stateIcEELi0ELb0EE5__getB7v160006Ev, symObjAddr: 0x58B8, symBinAddr: 0x10001671C, symSize: 0x14 }
  - { offsetInCU: 0x2579F, offset: 0x543D2, size: 0x8, addend: 0x0, symName: __ZNKSt9type_infoeqB7v160006ERKS_, symObjAddr: 0x58CC, symBinAddr: 0x100016730, symSize: 0xDC }
  - { offsetInCU: 0x2583B, offset: 0x5446E, size: 0x8, addend: 0x0, symName: __ZNKSt3__117__compressed_pairINS0_IPNS_13__empty_stateIcEENS_10shared_ptrIS2_E27__shared_ptr_default_deleteIS2_S2_EEEENS_9allocatorIS2_EEE5firstB7v160006Ev, symObjAddr: 0x59A8, symBinAddr: 0x10001680C, symSize: 0x24 }
  - { offsetInCU: 0x2585F, offset: 0x54492, size: 0x8, addend: 0x0, symName: __ZNKSt3__117__compressed_pairIPNS_13__empty_stateIcEENS_10shared_ptrIS2_E27__shared_ptr_default_deleteIS2_S2_EEE6secondB7v160006Ev, symObjAddr: 0x59CC, symBinAddr: 0x100016830, symSize: 0x24 }
  - { offsetInCU: 0x25883, offset: 0x544B6, size: 0x8, addend: 0x0, symName: __ZNSt27__type_info_implementations30__non_unique_arm_rtti_bit_impl21__is_type_name_uniqueB7v160006Em, symObjAddr: 0x59F0, symBinAddr: 0x100016854, symSize: 0x20 }
  - { offsetInCU: 0x258A6, offset: 0x544D9, size: 0x8, addend: 0x0, symName: __ZNKSt3__122__compressed_pair_elemINS_17__compressed_pairIPNS_13__empty_stateIcEENS_10shared_ptrIS3_E27__shared_ptr_default_deleteIS3_S3_EEEELi0ELb0EE5__getB7v160006Ev, symObjAddr: 0x5A10, symBinAddr: 0x100016874, symSize: 0x14 }
  - { offsetInCU: 0x258CA, offset: 0x544FD, size: 0x8, addend: 0x0, symName: __ZNKSt3__122__compressed_pair_elemINS_10shared_ptrINS_13__empty_stateIcEEE27__shared_ptr_default_deleteIS3_S3_EELi1ELb1EE5__getB7v160006Ev, symObjAddr: 0x5A24, symBinAddr: 0x100016888, symSize: 0x14 }
  - { offsetInCU: 0x258EE, offset: 0x54521, size: 0x8, addend: 0x0, symName: __ZNSt3__117__compressed_pairINS0_IPNS_13__empty_stateIcEENS_10shared_ptrIS2_E27__shared_ptr_default_deleteIS2_S2_EEEENS_9allocatorIS2_EEE6secondB7v160006Ev, symObjAddr: 0x5A38, symBinAddr: 0x10001689C, symSize: 0x24 }
  - { offsetInCU: 0x2593A, offset: 0x5456D, size: 0x8, addend: 0x0, symName: __ZNSt3__19allocatorINS_20__shared_ptr_pointerIPNS_13__empty_stateIcEENS_10shared_ptrIS3_E27__shared_ptr_default_deleteIS3_S3_EENS0_IS3_EEEEEC1B7v160006IS3_EERKNS0_IT_EE, symObjAddr: 0x5A5C, symBinAddr: 0x1000168C0, symSize: 0x34 }
  - { offsetInCU: 0x25975, offset: 0x545A8, size: 0x8, addend: 0x0, symName: __ZNSt3__19allocatorINS_20__shared_ptr_pointerIPNS_13__empty_stateIcEENS_10shared_ptrIS3_E27__shared_ptr_default_deleteIS3_S3_EENS0_IS3_EEEEE10deallocateB7v160006EPSA_m, symObjAddr: 0x5A90, symBinAddr: 0x1000168F4, symSize: 0x40 }
  - { offsetInCU: 0x259B5, offset: 0x545E8, size: 0x8, addend: 0x0, symName: __ZNSt3__114pointer_traitsIPNS_20__shared_ptr_pointerIPNS_13__empty_stateIcEENS_10shared_ptrIS3_E27__shared_ptr_default_deleteIS3_S3_EENS_9allocatorIS3_EEEEE10pointer_toB7v160006ERSB_, symObjAddr: 0x5AD0, symBinAddr: 0x100016934, symSize: 0x14 }
  - { offsetInCU: 0x259D7, offset: 0x5460A, size: 0x8, addend: 0x0, symName: __ZNSt3__122__compressed_pair_elemINS_9allocatorINS_13__empty_stateIcEEEELi1ELb1EE5__getB7v160006Ev, symObjAddr: 0x5AE4, symBinAddr: 0x100016948, symSize: 0x14 }
  - { offsetInCU: 0x259FB, offset: 0x5462E, size: 0x8, addend: 0x0, symName: __ZNSt3__19allocatorINS_20__shared_ptr_pointerIPNS_13__empty_stateIcEENS_10shared_ptrIS3_E27__shared_ptr_default_deleteIS3_S3_EENS0_IS3_EEEEEC2B7v160006IS3_EERKNS0_IT_EE, symObjAddr: 0x5AF8, symBinAddr: 0x10001695C, symSize: 0x30 }
  - { offsetInCU: 0x25A36, offset: 0x54669, size: 0x8, addend: 0x0, symName: __ZNSt3__116__non_trivial_ifILb1ENS_9allocatorINS_20__shared_ptr_pointerIPNS_13__empty_stateIcEENS_10shared_ptrIS4_E27__shared_ptr_default_deleteIS4_S4_EENS1_IS4_EEEEEEEC2B7v160006Ev, symObjAddr: 0x5B28, symBinAddr: 0x10001698C, symSize: 0x14 }
  - { offsetInCU: 0x25A5E, offset: 0x54691, size: 0x8, addend: 0x0, symName: __ZNSt3__117__compressed_pairIPNS_13__empty_stateIcEENS_14default_deleteIS2_EEE5firstB7v160006Ev, symObjAddr: 0x5B3C, symBinAddr: 0x1000169A0, symSize: 0x24 }
  - { offsetInCU: 0x25A82, offset: 0x546B5, size: 0x8, addend: 0x0, symName: __ZNSt3__110unique_ptrINS_13__empty_stateIcEENS_14default_deleteIS2_EEED2B7v160006Ev, symObjAddr: 0x5B60, symBinAddr: 0x1000169C4, symSize: 0x30 }
  - { offsetInCU: 0x25AAA, offset: 0x546DD, size: 0x8, addend: 0x0, symName: __ZNSt3__110unique_ptrINS_13__empty_stateIcEENS_14default_deleteIS2_EEE5resetB7v160006EPS2_, symObjAddr: 0x5B90, symBinAddr: 0x1000169F4, symSize: 0x78 }
  - { offsetInCU: 0x25AEC, offset: 0x5471F, size: 0x8, addend: 0x0, symName: __ZNSt3__117__compressed_pairIPNS_13__empty_stateIcEENS_14default_deleteIS2_EEE6secondB7v160006Ev, symObjAddr: 0x5C08, symBinAddr: 0x100016A6C, symSize: 0x24 }
  - { offsetInCU: 0x25B10, offset: 0x54743, size: 0x8, addend: 0x0, symName: __ZNSt3__122__compressed_pair_elemINS_14default_deleteINS_13__empty_stateIcEEEELi1ELb1EE5__getB7v160006Ev, symObjAddr: 0x5C2C, symBinAddr: 0x100016A90, symSize: 0x14 }
  - { offsetInCU: 0x25B34, offset: 0x54767, size: 0x8, addend: 0x0, symName: __ZNKSt3__117__compressed_pairIPNS_6__nodeIcEENS_14default_deleteIS2_EEE5firstB7v160006Ev, symObjAddr: 0x5CB8, symBinAddr: 0x100016B1C, symSize: 0x24 }
  - { offsetInCU: 0x25B58, offset: 0x5478B, size: 0x8, addend: 0x0, symName: __ZNKSt3__122__compressed_pair_elemIPNS_6__nodeIcEELi0ELb0EE5__getB7v160006Ev, symObjAddr: 0x5CDC, symBinAddr: 0x100016B40, symSize: 0x14 }
  - { offsetInCU: 0x25B7C, offset: 0x547AF, size: 0x8, addend: 0x0, symName: __ZNSt3__113__empty_stateIcEC2B7v160006EPNS_6__nodeIcEE, symObjAddr: 0x5CF0, symBinAddr: 0x100016B54, symSize: 0x4C }
  - { offsetInCU: 0x25BB3, offset: 0x547E6, size: 0x8, addend: 0x0, symName: __ZNSt3__116__owns_one_stateIcEC2B7v160006EPNS_6__nodeIcEE, symObjAddr: 0x5D3C, symBinAddr: 0x100016BA0, symSize: 0x4C }
  - { offsetInCU: 0x25BEA, offset: 0x5481D, size: 0x8, addend: 0x0, symName: __ZNSt3__113__empty_stateIcED1Ev, symObjAddr: 0x5D88, symBinAddr: 0x100016BEC, symSize: 0x2C }
  - { offsetInCU: 0x25C16, offset: 0x54849, size: 0x8, addend: 0x0, symName: __ZNSt3__113__empty_stateIcED0Ev, symObjAddr: 0x5DB4, symBinAddr: 0x100016C18, symSize: 0x30 }
  - { offsetInCU: 0x25C42, offset: 0x54875, size: 0x8, addend: 0x0, symName: __ZNKSt3__113__empty_stateIcE6__execERNS_7__stateIcEE, symObjAddr: 0x5DE4, symBinAddr: 0x100016C48, symSize: 0x3C }
  - { offsetInCU: 0x25C77, offset: 0x548AA, size: 0x8, addend: 0x0, symName: __ZNSt3__115__has_one_stateIcEC2B7v160006EPNS_6__nodeIcEE, symObjAddr: 0x5E20, symBinAddr: 0x100016C84, symSize: 0x50 }
  - { offsetInCU: 0x25CAE, offset: 0x548E1, size: 0x8, addend: 0x0, symName: __ZNSt3__116__owns_one_stateIcED1Ev, symObjAddr: 0x5E70, symBinAddr: 0x100016CD4, symSize: 0x2C }
  - { offsetInCU: 0x25CD9, offset: 0x5490C, size: 0x8, addend: 0x0, symName: __ZNSt3__116__owns_one_stateIcED0Ev, symObjAddr: 0x5E9C, symBinAddr: 0x100016D00, symSize: 0x30 }
  - { offsetInCU: 0x25D04, offset: 0x54937, size: 0x8, addend: 0x0, symName: __ZNSt3__115__has_one_stateIcED1Ev, symObjAddr: 0x5ECC, symBinAddr: 0x100016D30, symSize: 0x2C }
  - { offsetInCU: 0x25D30, offset: 0x54963, size: 0x8, addend: 0x0, symName: __ZNSt3__115__has_one_stateIcED0Ev, symObjAddr: 0x5EF8, symBinAddr: 0x100016D5C, symSize: 0x30 }
  - { offsetInCU: 0x25D5C, offset: 0x5498F, size: 0x8, addend: 0x0, symName: __ZNSt3__115__has_one_stateIcED2Ev, symObjAddr: 0x5F28, symBinAddr: 0x100016D8C, symSize: 0x2C }
  - { offsetInCU: 0x25D88, offset: 0x549BB, size: 0x8, addend: 0x0, symName: __ZNSt3__116__owns_one_stateIcED2Ev, symObjAddr: 0x5F54, symBinAddr: 0x100016DB8, symSize: 0x88 }
  - { offsetInCU: 0x25DB3, offset: 0x549E6, size: 0x8, addend: 0x0, symName: __ZNSt3__115__has_one_stateIcE5firstB7v160006Ev, symObjAddr: 0x5FDC, symBinAddr: 0x100016E40, symSize: 0x18 }
  - { offsetInCU: 0x25DD7, offset: 0x54A0A, size: 0x8, addend: 0x0, symName: __ZNSt3__113__empty_stateIcED2Ev, symObjAddr: 0x5FF4, symBinAddr: 0x100016E58, symSize: 0x2C }
  - { offsetInCU: 0x25E03, offset: 0x54A36, size: 0x8, addend: 0x0, symName: __ZNKSt3__115__has_one_stateIcE5firstB7v160006Ev, symObjAddr: 0x6020, symBinAddr: 0x100016E84, symSize: 0x18 }
  - { offsetInCU: 0x25E27, offset: 0x54A5A, size: 0x8, addend: 0x0, symName: __ZNSt3__117__compressed_pairIPNS_6__nodeIcEENS_14default_deleteIS2_EEE5firstB7v160006Ev, symObjAddr: 0x6038, symBinAddr: 0x100016E9C, symSize: 0x24 }
  - { offsetInCU: 0x25E4B, offset: 0x54A7E, size: 0x8, addend: 0x0, symName: __ZNSt3__122__compressed_pair_elemIPNS_6__nodeIcEELi0ELb0EE5__getB7v160006Ev, symObjAddr: 0x605C, symBinAddr: 0x100016EC0, symSize: 0x14 }
  - { offsetInCU: 0x25E6F, offset: 0x54AA2, size: 0x8, addend: 0x0, symName: __ZNSt3__110unique_ptrINS_6__nodeIcEENS_14default_deleteIS2_EEED2B7v160006Ev, symObjAddr: 0x6070, symBinAddr: 0x100016ED4, symSize: 0x30 }
  - { offsetInCU: 0x25E97, offset: 0x54ACA, size: 0x8, addend: 0x0, symName: __ZNSt3__110unique_ptrINS_6__nodeIcEENS_14default_deleteIS2_EEE5resetB7v160006EPS2_, symObjAddr: 0x60A0, symBinAddr: 0x100016F04, symSize: 0x78 }
  - { offsetInCU: 0x25ED9, offset: 0x54B0C, size: 0x8, addend: 0x0, symName: __ZNSt3__117__compressed_pairIPNS_6__nodeIcEENS_14default_deleteIS2_EEE6secondB7v160006Ev, symObjAddr: 0x6118, symBinAddr: 0x100016F7C, symSize: 0x24 }
  - { offsetInCU: 0x25EFD, offset: 0x54B30, size: 0x8, addend: 0x0, symName: __ZNKSt3__114default_deleteINS_6__nodeIcEEEclB7v160006EPS2_, symObjAddr: 0x613C, symBinAddr: 0x100016FA0, symSize: 0x4C }
  - { offsetInCU: 0x25F2F, offset: 0x54B62, size: 0x8, addend: 0x0, symName: __ZNSt3__122__compressed_pair_elemINS_14default_deleteINS_6__nodeIcEEEELi1ELb1EE5__getB7v160006Ev, symObjAddr: 0x6188, symBinAddr: 0x100016FEC, symSize: 0x14 }
  - { offsetInCU: 0x25F53, offset: 0x54B86, size: 0x8, addend: 0x0, symName: __ZNSt3__111basic_regexIcNS_12regex_traitsIcEEE19__parse_alternativeIPKcEET_S7_S7_, symObjAddr: 0x619C, symBinAddr: 0x100017000, symSize: 0x70 }
  - { offsetInCU: 0x25FBE, offset: 0x54BF1, size: 0x8, addend: 0x0, symName: __ZNSt3__111basic_regexIcNS_12regex_traitsIcEEE12__push_emptyEv, symObjAddr: 0x620C, symBinAddr: 0x100017070, symSize: 0xA0 }
  - { offsetInCU: 0x25FE4, offset: 0x54C17, size: 0x8, addend: 0x0, symName: __ZNSt3__111basic_regexIcNS_12regex_traitsIcEEE18__push_alternationEPNS_16__owns_one_stateIcEES6_, symObjAddr: 0x62AC, symBinAddr: 0x100017110, symSize: 0x17C }
  - { offsetInCU: 0x26028, offset: 0x54C5B, size: 0x8, addend: 0x0, symName: __ZNSt3__111basic_regexIcNS_12regex_traitsIcEEE12__parse_termIPKcEET_S7_S7_, symObjAddr: 0x6428, symBinAddr: 0x10001728C, symSize: 0xD0 }
  - { offsetInCU: 0x260B1, offset: 0x54CE4, size: 0x8, addend: 0x0, symName: __ZNSt3__111basic_regexIcNS_12regex_traitsIcEEE17__parse_assertionIPKcEET_S7_S7_, symObjAddr: 0x64F8, symBinAddr: 0x10001735C, symSize: 0x484 }
  - { offsetInCU: 0x2617D, offset: 0x54DB0, size: 0x8, addend: 0x0, symName: __ZNSt3__111basic_regexIcNS_12regex_traitsIcEEE12__parse_atomIPKcEET_S7_S7_, symObjAddr: 0x697C, symBinAddr: 0x1000177E0, symSize: 0x2DC }
  - { offsetInCU: 0x26206, offset: 0x54E39, size: 0x8, addend: 0x0, symName: __ZNSt3__111basic_regexIcNS_12regex_traitsIcEEE23__parse_ERE_dupl_symbolIPKcEET_S7_S7_PNS_16__owns_one_stateIcEEjj, symObjAddr: 0x6C58, symBinAddr: 0x100017ABC, symSize: 0x63C }
  - { offsetInCU: 0x262E9, offset: 0x54F1C, size: 0x8, addend: 0x0, symName: __ZNSt3__111basic_regexIcNS_12regex_traitsIcEEE15__push_l_anchorEv, symObjAddr: 0x7294, symBinAddr: 0x1000180F8, symSize: 0xBC }
  - { offsetInCU: 0x2630F, offset: 0x54F42, size: 0x8, addend: 0x0, symName: __ZNSt3__111basic_regexIcNS_12regex_traitsIcEEE15__push_r_anchorEv, symObjAddr: 0x7350, symBinAddr: 0x1000181B4, symSize: 0xBC }
  - { offsetInCU: 0x26335, offset: 0x54F68, size: 0x8, addend: 0x0, symName: __ZNSt3__111basic_regexIcNS_12regex_traitsIcEEE20__push_word_boundaryEb, symObjAddr: 0x7454, symBinAddr: 0x1000182B8, symSize: 0xC0 }
  - { offsetInCU: 0x2636A, offset: 0x54F9D, size: 0x8, addend: 0x0, symName: __ZNSt3__111basic_regexIcNS_12regex_traitsIcEEEC1B7v160006Ev, symObjAddr: 0x7514, symBinAddr: 0x100018378, symSize: 0x2C }
  - { offsetInCU: 0x26392, offset: 0x54FC5, size: 0x8, addend: 0x0, symName: __ZNSt3__111basic_regexIcNS_12regex_traitsIcEEE16__push_lookaheadERKS3_bj, symObjAddr: 0x7540, symBinAddr: 0x1000183A4, symSize: 0xD4 }
  - { offsetInCU: 0x263E5, offset: 0x55018, size: 0x8, addend: 0x0, symName: __ZNKSt3__111basic_regexIcNS_12regex_traitsIcEEE15__use_multilineB7v160006Ev, symObjAddr: 0x7674, symBinAddr: 0x1000184D8, symSize: 0x6C }
  - { offsetInCU: 0x2641D, offset: 0x55050, size: 0x8, addend: 0x0, symName: __ZNSt3__120__l_anchor_multilineIcEC1B7v160006EbPNS_6__nodeIcEE, symObjAddr: 0x76E0, symBinAddr: 0x100018544, symSize: 0x48 }
  - { offsetInCU: 0x26463, offset: 0x55096, size: 0x8, addend: 0x0, symName: __ZNSt3__120__l_anchor_multilineIcEC2B7v160006EbPNS_6__nodeIcEE, symObjAddr: 0x7748, symBinAddr: 0x1000185AC, symSize: 0x64 }
  - { offsetInCU: 0x264A9, offset: 0x550DC, size: 0x8, addend: 0x0, symName: __ZNSt3__120__l_anchor_multilineIcED1Ev, symObjAddr: 0x77AC, symBinAddr: 0x100018610, symSize: 0x2C }
  - { offsetInCU: 0x264D5, offset: 0x55108, size: 0x8, addend: 0x0, symName: __ZNSt3__120__l_anchor_multilineIcED0Ev, symObjAddr: 0x77D8, symBinAddr: 0x10001863C, symSize: 0x30 }
  - { offsetInCU: 0x26501, offset: 0x55134, size: 0x8, addend: 0x0, symName: __ZNKSt3__120__l_anchor_multilineIcE6__execERNS_7__stateIcEE, symObjAddr: 0x7808, symBinAddr: 0x10001866C, symSize: 0x114 }
  - { offsetInCU: 0x26536, offset: 0x55169, size: 0x8, addend: 0x0, symName: __ZNSt3__120__l_anchor_multilineIcED2Ev, symObjAddr: 0x791C, symBinAddr: 0x100018780, symSize: 0x2C }
  - { offsetInCU: 0x26576, offset: 0x551A9, size: 0x8, addend: 0x0, symName: __ZNSt3__120__r_anchor_multilineIcEC1B7v160006EbPNS_6__nodeIcEE, symObjAddr: 0x7A8C, symBinAddr: 0x1000188DC, symSize: 0x48 }
  - { offsetInCU: 0x265BC, offset: 0x551EF, size: 0x8, addend: 0x0, symName: __ZNSt3__120__r_anchor_multilineIcEC2B7v160006EbPNS_6__nodeIcEE, symObjAddr: 0x7AD4, symBinAddr: 0x100018924, symSize: 0x64 }
  - { offsetInCU: 0x26602, offset: 0x55235, size: 0x8, addend: 0x0, symName: __ZNSt3__120__r_anchor_multilineIcED1Ev, symObjAddr: 0x7B38, symBinAddr: 0x100018988, symSize: 0x2C }
  - { offsetInCU: 0x2662E, offset: 0x55261, size: 0x8, addend: 0x0, symName: __ZNSt3__120__r_anchor_multilineIcED0Ev, symObjAddr: 0x7B64, symBinAddr: 0x1000189B4, symSize: 0x30 }
  - { offsetInCU: 0x2665A, offset: 0x5528D, size: 0x8, addend: 0x0, symName: __ZNKSt3__120__r_anchor_multilineIcE6__execERNS_7__stateIcEE, symObjAddr: 0x7B94, symBinAddr: 0x1000189E4, symSize: 0xEC }
  - { offsetInCU: 0x2668F, offset: 0x552C2, size: 0x8, addend: 0x0, symName: __ZNSt3__120__r_anchor_multilineIcED2Ev, symObjAddr: 0x7C80, symBinAddr: 0x100018AD0, symSize: 0x2C }
  - { offsetInCU: 0x266CF, offset: 0x55302, size: 0x8, addend: 0x0, symName: __ZNSt3__115__word_boundaryIcNS_12regex_traitsIcEEEC1B7v160006ERKS2_bPNS_6__nodeIcEE, symObjAddr: 0x7CAC, symBinAddr: 0x100018AFC, symSize: 0x50 }
  - { offsetInCU: 0x26724, offset: 0x55357, size: 0x8, addend: 0x0, symName: __ZNSt3__115__word_boundaryIcNS_12regex_traitsIcEEEC2B7v160006ERKS2_bPNS_6__nodeIcEE, symObjAddr: 0x7CFC, symBinAddr: 0x100018B4C, symSize: 0x78 }
  - { offsetInCU: 0x26779, offset: 0x553AC, size: 0x8, addend: 0x0, symName: __ZNSt3__112regex_traitsIcEC1ERKS1_, symObjAddr: 0x7D74, symBinAddr: 0x100018BC4, symSize: 0x34 }
  - { offsetInCU: 0x267AE, offset: 0x553E1, size: 0x8, addend: 0x0, symName: __ZNSt3__115__word_boundaryIcNS_12regex_traitsIcEEED1Ev, symObjAddr: 0x7DA8, symBinAddr: 0x100018BF8, symSize: 0x2C }
  - { offsetInCU: 0x267DA, offset: 0x5540D, size: 0x8, addend: 0x0, symName: __ZNSt3__115__word_boundaryIcNS_12regex_traitsIcEEED0Ev, symObjAddr: 0x7DD4, symBinAddr: 0x100018C24, symSize: 0x30 }
  - { offsetInCU: 0x26806, offset: 0x55439, size: 0x8, addend: 0x0, symName: __ZNKSt3__115__word_boundaryIcNS_12regex_traitsIcEEE6__execERNS_7__stateIcEE, symObjAddr: 0x7E04, symBinAddr: 0x100018C54, symSize: 0x2E4 }
  - { offsetInCU: 0x268D1, offset: 0x55504, size: 0x8, addend: 0x0, symName: __ZNSt3__112regex_traitsIcEC2ERKS1_, symObjAddr: 0x80E8, symBinAddr: 0x100018F38, symSize: 0x40 }
  - { offsetInCU: 0x26906, offset: 0x55539, size: 0x8, addend: 0x0, symName: __ZNSt3__115__word_boundaryIcNS_12regex_traitsIcEEED2Ev, symObjAddr: 0x8128, symBinAddr: 0x100018F78, symSize: 0x48 }
  - { offsetInCU: 0x26932, offset: 0x55565, size: 0x8, addend: 0x0, symName: __ZNKSt3__112regex_traitsIcE7isctypeEcj, symObjAddr: 0x8170, symBinAddr: 0x100018FC0, symSize: 0xA0 }
  - { offsetInCU: 0x26976, offset: 0x555A9, size: 0x8, addend: 0x0, symName: __ZNKSt3__15ctypeIcE2isB7v160006Ejc, symObjAddr: 0x8210, symBinAddr: 0x100019060, symSize: 0x7C }
  - { offsetInCU: 0x269B7, offset: 0x555EA, size: 0x8, addend: 0x0, symName: __Z7isasciii, symObjAddr: 0x828C, symBinAddr: 0x1000190DC, symSize: 0x24 }
  - { offsetInCU: 0x269E4, offset: 0x55617, size: 0x8, addend: 0x0, symName: __ZNSt3__111basic_regexIcNS_12regex_traitsIcEEEC2B7v160006Ev, symObjAddr: 0x82B0, symBinAddr: 0x100019100, symSize: 0x4C }
  - { offsetInCU: 0x26A2A, offset: 0x5565D, size: 0x8, addend: 0x0, symName: __ZNSt3__111__lookaheadIcNS_12regex_traitsIcEEEC1B7v160006ERKNS_11basic_regexIcS2_EEbPNS_6__nodeIcEEj, symObjAddr: 0x82FC, symBinAddr: 0x10001914C, symSize: 0x58 }
  - { offsetInCU: 0x26A8E, offset: 0x556C1, size: 0x8, addend: 0x0, symName: __ZNSt3__111__lookaheadIcNS_12regex_traitsIcEEEC2B7v160006ERKNS_11basic_regexIcS2_EEbPNS_6__nodeIcEEj, symObjAddr: 0x8354, symBinAddr: 0x1000191A4, symSize: 0x84 }
  - { offsetInCU: 0x26AF2, offset: 0x55725, size: 0x8, addend: 0x0, symName: __ZNSt3__111basic_regexIcNS_12regex_traitsIcEEEC1ERKS3_, symObjAddr: 0x83D8, symBinAddr: 0x100019228, symSize: 0x34 }
  - { offsetInCU: 0x26B27, offset: 0x5575A, size: 0x8, addend: 0x0, symName: __ZNSt3__111__lookaheadIcNS_12regex_traitsIcEEED1Ev, symObjAddr: 0x840C, symBinAddr: 0x10001925C, symSize: 0x2C }
  - { offsetInCU: 0x26B53, offset: 0x55786, size: 0x8, addend: 0x0, symName: __ZNSt3__111__lookaheadIcNS_12regex_traitsIcEEED0Ev, symObjAddr: 0x8438, symBinAddr: 0x100019288, symSize: 0x30 }
  - { offsetInCU: 0x26B7F, offset: 0x557B2, size: 0x8, addend: 0x0, symName: __ZNKSt3__111__lookaheadIcNS_12regex_traitsIcEEE6__execERNS_7__stateIcEE, symObjAddr: 0x8468, symBinAddr: 0x1000192B8, symSize: 0x274 }
  - { offsetInCU: 0x26BF3, offset: 0x55826, size: 0x8, addend: 0x0, symName: __ZNSt3__111basic_regexIcNS_12regex_traitsIcEEEC2ERKS3_, symObjAddr: 0x86DC, symBinAddr: 0x10001952C, symSize: 0x60 }
  - { offsetInCU: 0x26C28, offset: 0x5585B, size: 0x8, addend: 0x0, symName: __ZNSt3__110shared_ptrINS_13__empty_stateIcEEEC1B7v160006ERKS3_, symObjAddr: 0x873C, symBinAddr: 0x10001958C, symSize: 0x34 }
  - { offsetInCU: 0x26C5F, offset: 0x55892, size: 0x8, addend: 0x0, symName: __ZNSt3__110shared_ptrINS_13__empty_stateIcEEEC2B7v160006ERKS3_, symObjAddr: 0x8770, symBinAddr: 0x1000195C0, symSize: 0x70 }
  - { offsetInCU: 0x26C96, offset: 0x558C9, size: 0x8, addend: 0x0, symName: __ZNSt3__119__shared_weak_count12__add_sharedB7v160006Ev, symObjAddr: 0x87E0, symBinAddr: 0x100019630, symSize: 0x24 }
  - { offsetInCU: 0x26CBA, offset: 0x558ED, size: 0x8, addend: 0x0, symName: __ZNSt3__114__shared_count12__add_sharedB7v160006Ev, symObjAddr: 0x8804, symBinAddr: 0x100019654, symSize: 0x28 }
  - { offsetInCU: 0x26CDE, offset: 0x55911, size: 0x8, addend: 0x0, symName: __ZNSt3__111__lookaheadIcNS_12regex_traitsIcEEED2Ev, symObjAddr: 0x885C, symBinAddr: 0x1000196AC, symSize: 0x48 }
  - { offsetInCU: 0x26D3C, offset: 0x5596F, size: 0x8, addend: 0x0, symName: __ZNSt3__113match_resultsIPKcNS_9allocatorINS_9sub_matchIS2_EEEEEC1Ev, symObjAddr: 0x88A4, symBinAddr: 0x1000196F4, symSize: 0x40 }
  - { offsetInCU: 0x26D64, offset: 0x55997, size: 0x8, addend: 0x0, symName: __ZNSt3__113match_resultsIPKcNS_9allocatorINS_9sub_matchIS2_EEEEE6__initEjS2_S2_b, symObjAddr: 0x88E4, symBinAddr: 0x100019734, symSize: 0xB0 }
  - { offsetInCU: 0x26DC6, offset: 0x559F9, size: 0x8, addend: 0x0, symName: __ZNKSt3__111basic_regexIcNS_12regex_traitsIcEEE10mark_countB7v160006Ev, symObjAddr: 0x8994, symBinAddr: 0x1000197E4, symSize: 0x18 }
  - { offsetInCU: 0x26DEF, offset: 0x55A22, size: 0x8, addend: 0x0, symName: __ZNKSt3__111basic_regexIcNS_12regex_traitsIcEEE21__match_at_start_ecmaINS_9allocatorINS_9sub_matchIPKcEEEEEEbS8_S8_RNS_13match_resultsIS8_T_EENS_15regex_constants15match_flag_typeEb, symObjAddr: 0x89AC, symBinAddr: 0x1000197FC, symSize: 0x590 }
  - { offsetInCU: 0x26F13, offset: 0x55B46, size: 0x8, addend: 0x0, symName: __ZNKSt3__113match_resultsIPKcNS_9allocatorINS_9sub_matchIS2_EEEEE4sizeB7v160006Ev, symObjAddr: 0x8FA0, symBinAddr: 0x100019DF0, symSize: 0x24 }
  - { offsetInCU: 0x26F37, offset: 0x55B6A, size: 0x8, addend: 0x0, symName: __ZNSt3__16vectorINS_9sub_matchIPKcEENS_9allocatorIS4_EEEixB7v160006Em, symObjAddr: 0x8FC4, symBinAddr: 0x100019E14, symSize: 0x2C }
  - { offsetInCU: 0x26F6C, offset: 0x55B9F, size: 0x8, addend: 0x0, symName: __ZNSt3__19sub_matchIPKcEaSERKS3_, symObjAddr: 0x8FF0, symBinAddr: 0x100019E40, symSize: 0x44 }
  - { offsetInCU: 0x26FA2, offset: 0x55BD5, size: 0x8, addend: 0x0, symName: __ZNSt3__113match_resultsIPKcNS_9allocatorINS_9sub_matchIS2_EEEEED1Ev, symObjAddr: 0x9034, symBinAddr: 0x100019E84, symSize: 0x2C }
  - { offsetInCU: 0x26FCE, offset: 0x55C01, size: 0x8, addend: 0x0, symName: __ZNSt3__19allocatorINS_9sub_matchIPKcEEEC1B7v160006Ev, symObjAddr: 0x9060, symBinAddr: 0x100019EB0, symSize: 0x2C }
  - { offsetInCU: 0x26FF6, offset: 0x55C29, size: 0x8, addend: 0x0, symName: __ZNSt3__113match_resultsIPKcNS_9allocatorINS_9sub_matchIS2_EEEEEC1ERKS6_, symObjAddr: 0x908C, symBinAddr: 0x100019EDC, symSize: 0x34 }
  - { offsetInCU: 0x27030, offset: 0x55C63, size: 0x8, addend: 0x0, symName: __ZNSt3__19allocatorINS_9sub_matchIPKcEEEC2B7v160006Ev, symObjAddr: 0x90C0, symBinAddr: 0x100019F10, symSize: 0x2C }
  - { offsetInCU: 0x27058, offset: 0x55C8B, size: 0x8, addend: 0x0, symName: __ZNSt3__116__non_trivial_ifILb1ENS_9allocatorINS_9sub_matchIPKcEEEEEC2B7v160006Ev, symObjAddr: 0x90EC, symBinAddr: 0x100019F3C, symSize: 0x14 }
  - { offsetInCU: 0x27080, offset: 0x55CB3, size: 0x8, addend: 0x0, symName: __ZNSt3__113match_resultsIPKcNS_9allocatorINS_9sub_matchIS2_EEEEEC2ERKS6_, symObjAddr: 0x9100, symBinAddr: 0x100019F50, symSize: 0x90 }
  - { offsetInCU: 0x270BA, offset: 0x55CED, size: 0x8, addend: 0x0, symName: __ZNSt3__16vectorINS_9sub_matchIPKcEENS_9allocatorIS4_EEEC1B7v160006ERKS6_, symObjAddr: 0x9190, symBinAddr: 0x100019FE0, symSize: 0x34 }
  - { offsetInCU: 0x270F1, offset: 0x55D24, size: 0x8, addend: 0x0, symName: __ZNSt3__19sub_matchIPKcEC1B7v160006Ev, symObjAddr: 0x91C4, symBinAddr: 0x10001A014, symSize: 0x2C }
  - { offsetInCU: 0x27119, offset: 0x55D4C, size: 0x8, addend: 0x0, symName: __ZNSt3__16vectorINS_9sub_matchIPKcEENS_9allocatorIS4_EEED1B7v160006Ev, symObjAddr: 0x91F0, symBinAddr: 0x10001A040, symSize: 0x2C }
  - { offsetInCU: 0x27141, offset: 0x55D74, size: 0x8, addend: 0x0, symName: __ZNSt3__16vectorINS_9sub_matchIPKcEENS_9allocatorIS4_EEEC2B7v160006ERKS6_, symObjAddr: 0x921C, symBinAddr: 0x10001A06C, symSize: 0x5C }
  - { offsetInCU: 0x27178, offset: 0x55DAB, size: 0x8, addend: 0x0, symName: __ZNSt3__117__compressed_pairIPNS_9sub_matchIPKcEENS_9allocatorIS4_EEEC1B7v160006IDnRKS7_EEOT_OT0_, symObjAddr: 0x9278, symBinAddr: 0x10001A0C8, symSize: 0x3C }
  - { offsetInCU: 0x271CE, offset: 0x55E01, size: 0x8, addend: 0x0, symName: __ZNSt3__117__compressed_pairIPNS_9sub_matchIPKcEENS_9allocatorIS4_EEEC2B7v160006IDnRKS7_EEOT_OT0_, symObjAddr: 0x92C4, symBinAddr: 0x10001A114, symSize: 0x44 }
  - { offsetInCU: 0x27224, offset: 0x55E57, size: 0x8, addend: 0x0, symName: __ZNSt3__122__compressed_pair_elemIPNS_9sub_matchIPKcEELi0ELb0EEC2B7v160006IDnvEEOT_, symObjAddr: 0x9308, symBinAddr: 0x10001A158, symSize: 0x1C }
  - { offsetInCU: 0x27265, offset: 0x55E98, size: 0x8, addend: 0x0, symName: __ZNSt3__122__compressed_pair_elemINS_9allocatorINS_9sub_matchIPKcEEEELi1ELb1EEC2B7v160006IRKS6_vEEOT_, symObjAddr: 0x9324, symBinAddr: 0x10001A174, symSize: 0x18 }
  - { offsetInCU: 0x272A6, offset: 0x55ED9, size: 0x8, addend: 0x0, symName: __ZNSt3__19sub_matchIPKcEC2B7v160006Ev, symObjAddr: 0x933C, symBinAddr: 0x10001A18C, symSize: 0x30 }
  - { offsetInCU: 0x272CE, offset: 0x55F01, size: 0x8, addend: 0x0, symName: __ZNSt3__14pairIPKcS2_EC2B7v160006ILb1ELPv0EEEv, symObjAddr: 0x936C, symBinAddr: 0x10001A1BC, symSize: 0x1C }
  - { offsetInCU: 0x27307, offset: 0x55F3A, size: 0x8, addend: 0x0, symName: __ZNSt3__16vectorINS_9sub_matchIPKcEENS_9allocatorIS4_EEED2B7v160006Ev, symObjAddr: 0x9388, symBinAddr: 0x10001A1D8, symSize: 0x44 }
  - { offsetInCU: 0x2732F, offset: 0x55F62, size: 0x8, addend: 0x0, symName: __ZNSt3__16vectorINS_9sub_matchIPKcEENS_9allocatorIS4_EEE16__destroy_vectorC1ERS7_, symObjAddr: 0x93CC, symBinAddr: 0x10001A21C, symSize: 0x34 }
  - { offsetInCU: 0x27366, offset: 0x55F99, size: 0x8, addend: 0x0, symName: __ZNSt3__16vectorINS_9sub_matchIPKcEENS_9allocatorIS4_EEE16__destroy_vectorclB7v160006Ev, symObjAddr: 0x9400, symBinAddr: 0x10001A250, symSize: 0x9C }
  - { offsetInCU: 0x2738A, offset: 0x55FBD, size: 0x8, addend: 0x0, symName: __ZNSt3__16vectorINS_9sub_matchIPKcEENS_9allocatorIS4_EEE16__destroy_vectorC2ERS7_, symObjAddr: 0x949C, symBinAddr: 0x10001A2EC, symSize: 0x20 }
  - { offsetInCU: 0x273C1, offset: 0x55FF4, size: 0x8, addend: 0x0, symName: __ZNKSt3__16vectorINS_9sub_matchIPKcEENS_9allocatorIS4_EEE17__annotate_deleteB7v160006Ev, symObjAddr: 0x94BC, symBinAddr: 0x10001A30C, symSize: 0xD4 }
  - { offsetInCU: 0x273E5, offset: 0x56018, size: 0x8, addend: 0x0, symName: __ZNSt3__16vectorINS_9sub_matchIPKcEENS_9allocatorIS4_EEE7__clearB7v160006Ev, symObjAddr: 0x95A0, symBinAddr: 0x10001A3F0, symSize: 0x28 }
  - { offsetInCU: 0x27409, offset: 0x5603C, size: 0x8, addend: 0x0, symName: __ZNSt3__116allocator_traitsINS_9allocatorINS_9sub_matchIPKcEEEEE10deallocateB7v160006ERS6_PS5_m, symObjAddr: 0x95C8, symBinAddr: 0x10001A418, symSize: 0x34 }
  - { offsetInCU: 0x2744A, offset: 0x5607D, size: 0x8, addend: 0x0, symName: __ZNSt3__16vectorINS_9sub_matchIPKcEENS_9allocatorIS4_EEE7__allocB7v160006Ev, symObjAddr: 0x95FC, symBinAddr: 0x10001A44C, symSize: 0x28 }
  - { offsetInCU: 0x2746E, offset: 0x560A1, size: 0x8, addend: 0x0, symName: __ZNKSt3__16vectorINS_9sub_matchIPKcEENS_9allocatorIS4_EEE8capacityB7v160006Ev, symObjAddr: 0x9624, symBinAddr: 0x10001A474, symSize: 0x40 }
  - { offsetInCU: 0x27492, offset: 0x560C5, size: 0x8, addend: 0x0, symName: __ZNKSt3__16vectorINS_9sub_matchIPKcEENS_9allocatorIS4_EEE31__annotate_contiguous_containerB7v160006EPKvS9_S9_S9_, symObjAddr: 0x9664, symBinAddr: 0x10001A4B4, symSize: 0x20 }
  - { offsetInCU: 0x274E6, offset: 0x56119, size: 0x8, addend: 0x0, symName: __ZNKSt3__16vectorINS_9sub_matchIPKcEENS_9allocatorIS4_EEE4dataB7v160006Ev, symObjAddr: 0x9684, symBinAddr: 0x10001A4D4, symSize: 0x28 }
  - { offsetInCU: 0x2750A, offset: 0x5613D, size: 0x8, addend: 0x0, symName: __ZNKSt3__16vectorINS_9sub_matchIPKcEENS_9allocatorIS4_EEE4sizeB7v160006Ev, symObjAddr: 0x96AC, symBinAddr: 0x10001A4FC, symSize: 0x28 }
  - { offsetInCU: 0x2752E, offset: 0x56161, size: 0x8, addend: 0x0, symName: __ZNSt3__16vectorINS_9sub_matchIPKcEENS_9allocatorIS4_EEE22__base_destruct_at_endB7v160006EPS4_, symObjAddr: 0x96E8, symBinAddr: 0x10001A538, symSize: 0x8C }
  - { offsetInCU: 0x27570, offset: 0x561A3, size: 0x8, addend: 0x0, symName: __ZNSt3__116allocator_traitsINS_9allocatorINS_9sub_matchIPKcEEEEE7destroyB7v160006IS5_vEEvRS6_PT_, symObjAddr: 0x9774, symBinAddr: 0x10001A5C4, symSize: 0x2C }
  - { offsetInCU: 0x275AD, offset: 0x561E0, size: 0x8, addend: 0x0, symName: __ZNSt3__19allocatorINS_9sub_matchIPKcEEE7destroyB7v160006EPS4_, symObjAddr: 0x97A0, symBinAddr: 0x10001A5F0, symSize: 0x14 }
  - { offsetInCU: 0x275DF, offset: 0x56212, size: 0x8, addend: 0x0, symName: __ZNSt3__19allocatorINS_9sub_matchIPKcEEE10deallocateB7v160006EPS4_m, symObjAddr: 0x97B4, symBinAddr: 0x10001A604, symSize: 0x44 }
  - { offsetInCU: 0x2761F, offset: 0x56252, size: 0x8, addend: 0x0, symName: __ZNSt3__117__compressed_pairIPNS_9sub_matchIPKcEENS_9allocatorIS4_EEE6secondB7v160006Ev, symObjAddr: 0x97F8, symBinAddr: 0x10001A648, symSize: 0x24 }
  - { offsetInCU: 0x27643, offset: 0x56276, size: 0x8, addend: 0x0, symName: __ZNSt3__122__compressed_pair_elemINS_9allocatorINS_9sub_matchIPKcEEEELi1ELb1EE5__getB7v160006Ev, symObjAddr: 0x981C, symBinAddr: 0x10001A66C, symSize: 0x14 }
  - { offsetInCU: 0x27667, offset: 0x5629A, size: 0x8, addend: 0x0, symName: __ZNKSt3__16vectorINS_9sub_matchIPKcEENS_9allocatorIS4_EEE9__end_capB7v160006Ev, symObjAddr: 0x9830, symBinAddr: 0x10001A680, symSize: 0x28 }
  - { offsetInCU: 0x2768B, offset: 0x562BE, size: 0x8, addend: 0x0, symName: __ZNKSt3__117__compressed_pairIPNS_9sub_matchIPKcEENS_9allocatorIS4_EEE5firstB7v160006Ev, symObjAddr: 0x9858, symBinAddr: 0x10001A6A8, symSize: 0x24 }
  - { offsetInCU: 0x276AF, offset: 0x562E2, size: 0x8, addend: 0x0, symName: __ZNKSt3__122__compressed_pair_elemIPNS_9sub_matchIPKcEELi0ELb0EE5__getB7v160006Ev, symObjAddr: 0x987C, symBinAddr: 0x10001A6CC, symSize: 0x14 }
  - { offsetInCU: 0x276D3, offset: 0x56306, size: 0x8, addend: 0x0, symName: __ZNSt3__16vectorINS_9sub_matchIPKcEENS_9allocatorIS4_EEE6assignEmRKS4_, symObjAddr: 0x9890, symBinAddr: 0x10001A6E0, symSize: 0x118 }
  - { offsetInCU: 0x27735, offset: 0x56368, size: 0x8, addend: 0x0, symName: __ZNSt3__16vectorINS_9sub_matchIPKcEENS_9allocatorIS4_EEE18__construct_at_endEmRKS4_, symObjAddr: 0x99EC, symBinAddr: 0x10001A83C, symSize: 0xD0 }
  - { offsetInCU: 0x277B5, offset: 0x563E8, size: 0x8, addend: 0x0, symName: __ZNSt3__16vectorINS_9sub_matchIPKcEENS_9allocatorIS4_EEE17__destruct_at_endB7v160006EPS4_, symObjAddr: 0x9ABC, symBinAddr: 0x10001A90C, symSize: 0x60 }
  - { offsetInCU: 0x277F7, offset: 0x5642A, size: 0x8, addend: 0x0, symName: __ZNSt3__16vectorINS_9sub_matchIPKcEENS_9allocatorIS4_EEE13__vdeallocateEv, symObjAddr: 0x9B1C, symBinAddr: 0x10001A96C, symSize: 0x8C }
  - { offsetInCU: 0x2781D, offset: 0x56450, size: 0x8, addend: 0x0, symName: __ZNSt3__16vectorINS_9sub_matchIPKcEENS_9allocatorIS4_EEE11__vallocateB7v160006Em, symObjAddr: 0x9BA8, symBinAddr: 0x10001A9F8, symSize: 0xB4 }
  - { offsetInCU: 0x2785F, offset: 0x56492, size: 0x8, addend: 0x0, symName: __ZNKSt3__16vectorINS_9sub_matchIPKcEENS_9allocatorIS4_EEE11__recommendB7v160006Em, symObjAddr: 0x9C5C, symBinAddr: 0x10001AAAC, symSize: 0xB4 }
  - { offsetInCU: 0x278CB, offset: 0x564FE, size: 0x8, addend: 0x0, symName: __ZNSt3__16vectorINS_9sub_matchIPKcEENS_9allocatorIS4_EEE21_ConstructTransactionC1B7v160006ERS7_m, symObjAddr: 0x9DA0, symBinAddr: 0x10001ABF0, symSize: 0x3C }
  - { offsetInCU: 0x27911, offset: 0x56544, size: 0x8, addend: 0x0, symName: __ZNSt3__116allocator_traitsINS_9allocatorINS_9sub_matchIPKcEEEEE9constructB7v160006IS5_JRKS5_EvEEvRS6_PT_DpOT0_, symObjAddr: 0x9DDC, symBinAddr: 0x10001AC2C, symSize: 0x34 }
  - { offsetInCU: 0x27969, offset: 0x5659C, size: 0x8, addend: 0x0, symName: __ZNSt3__16vectorINS_9sub_matchIPKcEENS_9allocatorIS4_EEE21_ConstructTransactionD1B7v160006Ev, symObjAddr: 0x9E10, symBinAddr: 0x10001AC60, symSize: 0x2C }
  - { offsetInCU: 0x27991, offset: 0x565C4, size: 0x8, addend: 0x0, symName: __ZNSt3__16vectorINS_9sub_matchIPKcEENS_9allocatorIS4_EEE21_ConstructTransactionC2B7v160006ERS7_m, symObjAddr: 0x9E3C, symBinAddr: 0x10001AC8C, symSize: 0x4C }
  - { offsetInCU: 0x279D7, offset: 0x5660A, size: 0x8, addend: 0x0, symName: __ZNSt3__19allocatorINS_9sub_matchIPKcEEE9constructB7v160006IS4_JRKS4_EEEvPT_DpOT0_, symObjAddr: 0x9E88, symBinAddr: 0x10001ACD8, symSize: 0x30 }
  - { offsetInCU: 0x27A2C, offset: 0x5665F, size: 0x8, addend: 0x0, symName: __ZNSt3__16vectorINS_9sub_matchIPKcEENS_9allocatorIS4_EEE21_ConstructTransactionD2B7v160006Ev, symObjAddr: 0x9EB8, symBinAddr: 0x10001AD08, symSize: 0x20 }
  - { offsetInCU: 0x27A54, offset: 0x56687, size: 0x8, addend: 0x0, symName: __ZNSt3__16vectorINS_9sub_matchIPKcEENS_9allocatorIS4_EEE27__invalidate_iterators_pastB7v160006EPS4_, symObjAddr: 0x9ED8, symBinAddr: 0x10001AD28, symSize: 0x14 }
  - { offsetInCU: 0x27A89, offset: 0x566BC, size: 0x8, addend: 0x0, symName: __ZNKSt3__16vectorINS_9sub_matchIPKcEENS_9allocatorIS4_EEE17__annotate_shrinkB7v160006Em, symObjAddr: 0x9EEC, symBinAddr: 0x10001AD3C, symSize: 0xD0 }
  - { offsetInCU: 0x27ABC, offset: 0x566EF, size: 0x8, addend: 0x0, symName: __ZNSt3__16vectorINS_9sub_matchIPKcEENS_9allocatorIS4_EEE5clearB7v160006Ev, symObjAddr: 0x9FBC, symBinAddr: 0x10001AE0C, symSize: 0x54 }
  - { offsetInCU: 0x27AEF, offset: 0x56722, size: 0x8, addend: 0x0, symName: __ZNSt3__16vectorINS_9sub_matchIPKcEENS_9allocatorIS4_EEE9__end_capB7v160006Ev, symObjAddr: 0xA010, symBinAddr: 0x10001AE60, symSize: 0x28 }
  - { offsetInCU: 0x27B13, offset: 0x56746, size: 0x8, addend: 0x0, symName: __ZNSt3__117__compressed_pairIPNS_9sub_matchIPKcEENS_9allocatorIS4_EEE5firstB7v160006Ev, symObjAddr: 0xA038, symBinAddr: 0x10001AE88, symSize: 0x24 }
  - { offsetInCU: 0x27B37, offset: 0x5676A, size: 0x8, addend: 0x0, symName: __ZNSt3__122__compressed_pair_elemIPNS_9sub_matchIPKcEELi0ELb0EE5__getB7v160006Ev, symObjAddr: 0xA05C, symBinAddr: 0x10001AEAC, symSize: 0x14 }
  - { offsetInCU: 0x27B5B, offset: 0x5678E, size: 0x8, addend: 0x0, symName: __ZNKSt3__16vectorINS_9sub_matchIPKcEENS_9allocatorIS4_EEE8max_sizeEv, symObjAddr: 0xA070, symBinAddr: 0x10001AEC0, symSize: 0x60 }
  - { offsetInCU: 0x27B81, offset: 0x567B4, size: 0x8, addend: 0x0, symName: __ZNKSt3__16vectorINS_9sub_matchIPKcEENS_9allocatorIS4_EEE20__throw_length_errorB7v160006Ev, symObjAddr: 0xA0D0, symBinAddr: 0x10001AF20, symSize: 0x1C }
  - { offsetInCU: 0x27BA5, offset: 0x567D8, size: 0x8, addend: 0x0, symName: __ZNKSt3__16vectorINS_9sub_matchIPKcEENS_9allocatorIS4_EEE14__annotate_newB7v160006Em, symObjAddr: 0xA12C, symBinAddr: 0x10001AF7C, symSize: 0xC8 }
  - { offsetInCU: 0x27BE2, offset: 0x56815, size: 0x8, addend: 0x0, symName: __ZNSt3__116allocator_traitsINS_9allocatorINS_9sub_matchIPKcEEEEE8max_sizeB7v160006IS6_vEEmRKS6_, symObjAddr: 0xA1F4, symBinAddr: 0x10001B044, symSize: 0x24 }
  - { offsetInCU: 0x27C10, offset: 0x56843, size: 0x8, addend: 0x0, symName: __ZNKSt3__16vectorINS_9sub_matchIPKcEENS_9allocatorIS4_EEE7__allocB7v160006Ev, symObjAddr: 0xA218, symBinAddr: 0x10001B068, symSize: 0x28 }
  - { offsetInCU: 0x27C34, offset: 0x56867, size: 0x8, addend: 0x0, symName: __ZNKSt3__19allocatorINS_9sub_matchIPKcEEE8max_sizeB7v160006Ev, symObjAddr: 0xA240, symBinAddr: 0x10001B090, symSize: 0x18 }
  - { offsetInCU: 0x27C58, offset: 0x5688B, size: 0x8, addend: 0x0, symName: __ZNKSt3__117__compressed_pairIPNS_9sub_matchIPKcEENS_9allocatorIS4_EEE6secondB7v160006Ev, symObjAddr: 0xA258, symBinAddr: 0x10001B0A8, symSize: 0x24 }
  - { offsetInCU: 0x27C7C, offset: 0x568AF, size: 0x8, addend: 0x0, symName: __ZNKSt3__122__compressed_pair_elemINS_9allocatorINS_9sub_matchIPKcEEEELi1ELb1EE5__getB7v160006Ev, symObjAddr: 0xA27C, symBinAddr: 0x10001B0CC, symSize: 0x14 }
  - { offsetInCU: 0x27CA0, offset: 0x568D3, size: 0x8, addend: 0x0, symName: __ZNSt3__19allocatorINS_9sub_matchIPKcEEE8allocateB7v160006Em, symObjAddr: 0xA290, symBinAddr: 0x10001B0E0, symSize: 0x5C }
  - { offsetInCU: 0x27CD2, offset: 0x56905, size: 0x8, addend: 0x0, symName: __ZNSt3__16vectorINS_7__stateIcEENS_9allocatorIS2_EEEC1B7v160006Ev, symObjAddr: 0xA36C, symBinAddr: 0x10001B13C, symSize: 0x2C }
  - { offsetInCU: 0x27CFA, offset: 0x5692D, size: 0x8, addend: 0x0, symName: __ZNSt3__16vectorINS_7__stateIcEENS_9allocatorIS2_EEE9push_backB7v160006EOS2_, symObjAddr: 0xA398, symBinAddr: 0x10001B168, symSize: 0x6C }
  - { offsetInCU: 0x27D2F, offset: 0x56962, size: 0x8, addend: 0x0, symName: __ZNSt3__17__stateIcEC1B7v160006Ev, symObjAddr: 0xA404, symBinAddr: 0x10001B1D4, symSize: 0x2C }
  - { offsetInCU: 0x27D57, offset: 0x5698A, size: 0x8, addend: 0x0, symName: __ZNSt3__17__stateIcED1Ev, symObjAddr: 0xA430, symBinAddr: 0x10001B200, symSize: 0x2C }
  - { offsetInCU: 0x27D83, offset: 0x569B6, size: 0x8, addend: 0x0, symName: __ZNSt3__16vectorINS_7__stateIcEENS_9allocatorIS2_EEE4backB7v160006Ev, symObjAddr: 0xA45C, symBinAddr: 0x10001B22C, symSize: 0x1C }
  - { offsetInCU: 0x27DA7, offset: 0x569DA, size: 0x8, addend: 0x0, symName: __ZNSt3__16vectorINS_9sub_matchIPKcEENS_9allocatorIS4_EEE6resizeEmRKS4_, symObjAddr: 0xA478, symBinAddr: 0x10001B248, symSize: 0xA4 }
  - { offsetInCU: 0x27DFA, offset: 0x56A2D, size: 0x8, addend: 0x0, symName: __ZNSt3__16vectorINS_4pairImPKcEENS_9allocatorIS4_EEE6resizeEm, symObjAddr: 0xA51C, symBinAddr: 0x10001B2EC, symSize: 0x94 }
  - { offsetInCU: 0x27E3E, offset: 0x56A71, size: 0x8, addend: 0x0, symName: __ZNKSt3__111basic_regexIcNS_12regex_traitsIcEEE12__loop_countB7v160006Ev, symObjAddr: 0xA5B0, symBinAddr: 0x10001B380, symSize: 0x18 }
  - { offsetInCU: 0x27E62, offset: 0x56A95, size: 0x8, addend: 0x0, symName: __ZNSt3__16vectorINS_7__stateIcEENS_9allocatorIS2_EEE8pop_backEv, symObjAddr: 0xA628, symBinAddr: 0x10001B3F8, symSize: 0x2C }
  - { offsetInCU: 0x27E88, offset: 0x56ABB, size: 0x8, addend: 0x0, symName: __ZNSt3__17__stateIcEC1ERKS1_, symObjAddr: 0xA654, symBinAddr: 0x10001B424, symSize: 0x34 }
  - { offsetInCU: 0x27EBD, offset: 0x56AF0, size: 0x8, addend: 0x0, symName: __ZNKSt3__16vectorINS_7__stateIcEENS_9allocatorIS2_EEE5emptyB7v160006Ev, symObjAddr: 0xA6E8, symBinAddr: 0x10001B4B8, symSize: 0x28 }
  - { offsetInCU: 0x27EE1, offset: 0x56B14, size: 0x8, addend: 0x0, symName: __ZNSt3__16vectorINS_7__stateIcEENS_9allocatorIS2_EEED1B7v160006Ev, symObjAddr: 0xA710, symBinAddr: 0x10001B4E0, symSize: 0x2C }
  - { offsetInCU: 0x27F09, offset: 0x56B3C, size: 0x8, addend: 0x0, symName: __ZNSt3__16vectorINS_7__stateIcEENS_9allocatorIS2_EEEC2B7v160006Ev, symObjAddr: 0xA73C, symBinAddr: 0x10001B50C, symSize: 0x58 }
  - { offsetInCU: 0x27F31, offset: 0x56B64, size: 0x8, addend: 0x0, symName: __ZNSt3__117__compressed_pairIPNS_7__stateIcEENS_9allocatorIS2_EEEC1B7v160006IDnNS_18__default_init_tagEEEOT_OT0_, symObjAddr: 0xA794, symBinAddr: 0x10001B564, symSize: 0x3C }
  - { offsetInCU: 0x27F87, offset: 0x56BBA, size: 0x8, addend: 0x0, symName: __ZNSt3__117__compressed_pairIPNS_7__stateIcEENS_9allocatorIS2_EEEC2B7v160006IDnNS_18__default_init_tagEEEOT_OT0_, symObjAddr: 0xA7E0, symBinAddr: 0x10001B5B0, symSize: 0x40 }
  - { offsetInCU: 0x27FDD, offset: 0x56C10, size: 0x8, addend: 0x0, symName: __ZNSt3__122__compressed_pair_elemIPNS_7__stateIcEELi0ELb0EEC2B7v160006IDnvEEOT_, symObjAddr: 0xA820, symBinAddr: 0x10001B5F0, symSize: 0x1C }
  - { offsetInCU: 0x2801E, offset: 0x56C51, size: 0x8, addend: 0x0, symName: __ZNSt3__122__compressed_pair_elemINS_9allocatorINS_7__stateIcEEEELi1ELb1EEC2B7v160006ENS_18__default_init_tagE, symObjAddr: 0xA83C, symBinAddr: 0x10001B60C, symSize: 0x2C }
  - { offsetInCU: 0x28050, offset: 0x56C83, size: 0x8, addend: 0x0, symName: __ZNSt3__19allocatorINS_7__stateIcEEEC2B7v160006Ev, symObjAddr: 0xA868, symBinAddr: 0x10001B638, symSize: 0x2C }
  - { offsetInCU: 0x28078, offset: 0x56CAB, size: 0x8, addend: 0x0, symName: __ZNSt3__116__non_trivial_ifILb1ENS_9allocatorINS_7__stateIcEEEEEC2B7v160006Ev, symObjAddr: 0xA894, symBinAddr: 0x10001B664, symSize: 0x14 }
  - { offsetInCU: 0x280A0, offset: 0x56CD3, size: 0x8, addend: 0x0, symName: __ZNSt3__16vectorINS_7__stateIcEENS_9allocatorIS2_EEE9__end_capB7v160006Ev, symObjAddr: 0xA8A8, symBinAddr: 0x10001B678, symSize: 0x28 }
  - { offsetInCU: 0x280C9, offset: 0x56CFC, size: 0x8, addend: 0x0, symName: __ZNSt3__16vectorINS_7__stateIcEENS_9allocatorIS2_EEE22__construct_one_at_endB7v160006IJS2_EEEvDpOT_, symObjAddr: 0xA8D0, symBinAddr: 0x10001B6A0, symSize: 0x90 }
  - { offsetInCU: 0x28117, offset: 0x56D4A, size: 0x8, addend: 0x0, symName: __ZNSt3__16vectorINS_7__stateIcEENS_9allocatorIS2_EEE21__push_back_slow_pathIS2_EEvOT_, symObjAddr: 0xA960, symBinAddr: 0x10001B730, symSize: 0xD8 }
  - { offsetInCU: 0x28173, offset: 0x56DA6, size: 0x8, addend: 0x0, symName: __ZNSt3__117__compressed_pairIPNS_7__stateIcEENS_9allocatorIS2_EEE5firstB7v160006Ev, symObjAddr: 0xAA38, symBinAddr: 0x10001B808, symSize: 0x24 }
  - { offsetInCU: 0x28197, offset: 0x56DCA, size: 0x8, addend: 0x0, symName: __ZNSt3__122__compressed_pair_elemIPNS_7__stateIcEELi0ELb0EE5__getB7v160006Ev, symObjAddr: 0xAA5C, symBinAddr: 0x10001B82C, symSize: 0x14 }
  - { offsetInCU: 0x281D4, offset: 0x56E07, size: 0x8, addend: 0x0, symName: __ZNSt3__16vectorINS_7__stateIcEENS_9allocatorIS2_EEE21_ConstructTransactionC1B7v160006ERS5_m, symObjAddr: 0xAA70, symBinAddr: 0x10001B840, symSize: 0x3C }
  - { offsetInCU: 0x2821A, offset: 0x56E4D, size: 0x8, addend: 0x0, symName: __ZNSt3__116allocator_traitsINS_9allocatorINS_7__stateIcEEEEE9constructB7v160006IS3_JS3_EvEEvRS4_PT_DpOT0_, symObjAddr: 0xAAAC, symBinAddr: 0x10001B87C, symSize: 0x34 }
  - { offsetInCU: 0x28272, offset: 0x56EA5, size: 0x8, addend: 0x0, symName: __ZNSt3__16vectorINS_7__stateIcEENS_9allocatorIS2_EEE7__allocB7v160006Ev, symObjAddr: 0xAAE0, symBinAddr: 0x10001B8B0, symSize: 0x28 }
  - { offsetInCU: 0x28296, offset: 0x56EC9, size: 0x8, addend: 0x0, symName: __ZNSt3__16vectorINS_7__stateIcEENS_9allocatorIS2_EEE21_ConstructTransactionD1B7v160006Ev, symObjAddr: 0xAB1C, symBinAddr: 0x10001B8EC, symSize: 0x2C }
  - { offsetInCU: 0x282BE, offset: 0x56EF1, size: 0x8, addend: 0x0, symName: __ZNSt3__16vectorINS_7__stateIcEENS_9allocatorIS2_EEE21_ConstructTransactionC2B7v160006ERS5_m, symObjAddr: 0xAB48, symBinAddr: 0x10001B918, symSize: 0x4C }
  - { offsetInCU: 0x28304, offset: 0x56F37, size: 0x8, addend: 0x0, symName: __ZNSt3__19allocatorINS_7__stateIcEEE9constructB7v160006IS2_JS2_EEEvPT_DpOT0_, symObjAddr: 0xAB94, symBinAddr: 0x10001B964, symSize: 0x30 }
  - { offsetInCU: 0x28359, offset: 0x56F8C, size: 0x8, addend: 0x0, symName: __ZNSt3__17__stateIcEC1EOS1_, symObjAddr: 0xABC4, symBinAddr: 0x10001B994, symSize: 0x34 }
  - { offsetInCU: 0x2838E, offset: 0x56FC1, size: 0x8, addend: 0x0, symName: __ZNSt3__17__stateIcEC2EOS1_, symObjAddr: 0xABF8, symBinAddr: 0x10001B9C8, symSize: 0x78 }
  - { offsetInCU: 0x283C3, offset: 0x56FF6, size: 0x8, addend: 0x0, symName: __ZNSt3__16vectorINS_9sub_matchIPKcEENS_9allocatorIS4_EEEC1B7v160006EOS7_, symObjAddr: 0xAC70, symBinAddr: 0x10001BA40, symSize: 0x34 }
  - { offsetInCU: 0x283FD, offset: 0x57030, size: 0x8, addend: 0x0, symName: __ZNSt3__16vectorINS_4pairImPKcEENS_9allocatorIS4_EEEC1B7v160006EOS7_, symObjAddr: 0xACA4, symBinAddr: 0x10001BA74, symSize: 0x34 }
  - { offsetInCU: 0x28437, offset: 0x5706A, size: 0x8, addend: 0x0, symName: __ZNSt3__16vectorINS_9sub_matchIPKcEENS_9allocatorIS4_EEEC2B7v160006EOS7_, symObjAddr: 0xACD8, symBinAddr: 0x10001BAA8, symSize: 0xDC }
  - { offsetInCU: 0x28476, offset: 0x570A9, size: 0x8, addend: 0x0, symName: __ZNSt3__117__compressed_pairIPNS_9sub_matchIPKcEENS_9allocatorIS4_EEEC1B7v160006IDnS7_EEOT_OT0_, symObjAddr: 0xADB4, symBinAddr: 0x10001BB84, symSize: 0x3C }
  - { offsetInCU: 0x284CC, offset: 0x570FF, size: 0x8, addend: 0x0, symName: __ZNSt3__117__compressed_pairIPNS_9sub_matchIPKcEENS_9allocatorIS4_EEEC2B7v160006IDnS7_EEOT_OT0_, symObjAddr: 0xAE04, symBinAddr: 0x10001BBD4, symSize: 0x44 }
  - { offsetInCU: 0x28522, offset: 0x57155, size: 0x8, addend: 0x0, symName: __ZNSt3__122__compressed_pair_elemINS_9allocatorINS_9sub_matchIPKcEEEELi1ELb1EEC2B7v160006IS6_vEEOT_, symObjAddr: 0xAE48, symBinAddr: 0x10001BC18, symSize: 0x18 }
  - { offsetInCU: 0x28563, offset: 0x57196, size: 0x8, addend: 0x0, symName: __ZNSt3__16vectorINS_4pairImPKcEENS_9allocatorIS4_EEEC2B7v160006EOS7_, symObjAddr: 0xAE60, symBinAddr: 0x10001BC30, symSize: 0xE0 }
  - { offsetInCU: 0x2859D, offset: 0x571D0, size: 0x8, addend: 0x0, symName: __ZNSt3__16vectorINS_4pairImPKcEENS_9allocatorIS4_EEE7__allocB7v160006Ev, symObjAddr: 0xAF40, symBinAddr: 0x10001BD10, symSize: 0x28 }
  - { offsetInCU: 0x285C6, offset: 0x571F9, size: 0x8, addend: 0x0, symName: __ZNSt3__117__compressed_pairIPNS_4pairImPKcEENS_9allocatorIS4_EEEC1B7v160006IDnS7_EEOT_OT0_, symObjAddr: 0xAF68, symBinAddr: 0x10001BD38, symSize: 0x3C }
  - { offsetInCU: 0x2861C, offset: 0x5724F, size: 0x8, addend: 0x0, symName: __ZNSt3__16vectorINS_4pairImPKcEENS_9allocatorIS4_EEE9__end_capB7v160006Ev, symObjAddr: 0xAFC8, symBinAddr: 0x10001BD98, symSize: 0x28 }
  - { offsetInCU: 0x28640, offset: 0x57273, size: 0x8, addend: 0x0, symName: __ZNSt3__117__compressed_pairIPNS_4pairImPKcEENS_9allocatorIS4_EEE6secondB7v160006Ev, symObjAddr: 0xAFF0, symBinAddr: 0x10001BDC0, symSize: 0x24 }
  - { offsetInCU: 0x28664, offset: 0x57297, size: 0x8, addend: 0x0, symName: __ZNSt3__122__compressed_pair_elemINS_9allocatorINS_4pairImPKcEEEELi1ELb1EE5__getB7v160006Ev, symObjAddr: 0xB014, symBinAddr: 0x10001BDE4, symSize: 0x14 }
  - { offsetInCU: 0x28688, offset: 0x572BB, size: 0x8, addend: 0x0, symName: __ZNSt3__117__compressed_pairIPNS_4pairImPKcEENS_9allocatorIS4_EEEC2B7v160006IDnS7_EEOT_OT0_, symObjAddr: 0xB028, symBinAddr: 0x10001BDF8, symSize: 0x44 }
  - { offsetInCU: 0x286DE, offset: 0x57311, size: 0x8, addend: 0x0, symName: __ZNSt3__122__compressed_pair_elemIPNS_4pairImPKcEELi0ELb0EEC2B7v160006IDnvEEOT_, symObjAddr: 0xB06C, symBinAddr: 0x10001BE3C, symSize: 0x1C }
  - { offsetInCU: 0x2871F, offset: 0x57352, size: 0x8, addend: 0x0, symName: __ZNSt3__122__compressed_pair_elemINS_9allocatorINS_4pairImPKcEEEELi1ELb1EEC2B7v160006IS6_vEEOT_, symObjAddr: 0xB088, symBinAddr: 0x10001BE58, symSize: 0x18 }
  - { offsetInCU: 0x28760, offset: 0x57393, size: 0x8, addend: 0x0, symName: __ZNSt3__117__compressed_pairIPNS_4pairImPKcEENS_9allocatorIS4_EEE5firstB7v160006Ev, symObjAddr: 0xB0A0, symBinAddr: 0x10001BE70, symSize: 0x24 }
  - { offsetInCU: 0x28784, offset: 0x573B7, size: 0x8, addend: 0x0, symName: __ZNSt3__122__compressed_pair_elemIPNS_4pairImPKcEELi0ELb0EE5__getB7v160006Ev, symObjAddr: 0xB0C4, symBinAddr: 0x10001BE94, symSize: 0x14 }
  - { offsetInCU: 0x287A8, offset: 0x573DB, size: 0x8, addend: 0x0, symName: __ZNSt3__117__compressed_pairIPNS_7__stateIcEENS_9allocatorIS2_EEE6secondB7v160006Ev, symObjAddr: 0xB0D8, symBinAddr: 0x10001BEA8, symSize: 0x24 }
  - { offsetInCU: 0x287CC, offset: 0x573FF, size: 0x8, addend: 0x0, symName: __ZNSt3__122__compressed_pair_elemINS_9allocatorINS_7__stateIcEEEELi1ELb1EE5__getB7v160006Ev, symObjAddr: 0xB0FC, symBinAddr: 0x10001BECC, symSize: 0x14 }
  - { offsetInCU: 0x287F0, offset: 0x57423, size: 0x8, addend: 0x0, symName: __ZNSt3__16vectorINS_7__stateIcEENS_9allocatorIS2_EEE21_ConstructTransactionD2B7v160006Ev, symObjAddr: 0xB110, symBinAddr: 0x10001BEE0, symSize: 0x20 }
  - { offsetInCU: 0x28818, offset: 0x5744B, size: 0x8, addend: 0x0, symName: __ZNKSt3__16vectorINS_7__stateIcEENS_9allocatorIS2_EEE11__recommendB7v160006Em, symObjAddr: 0xB130, symBinAddr: 0x10001BF00, symSize: 0xB4 }
  - { offsetInCU: 0x2886B, offset: 0x5749E, size: 0x8, addend: 0x0, symName: __ZNKSt3__16vectorINS_7__stateIcEENS_9allocatorIS2_EEE4sizeB7v160006Ev, symObjAddr: 0xB1E4, symBinAddr: 0x10001BFB4, symSize: 0x28 }
  - { offsetInCU: 0x2888F, offset: 0x574C2, size: 0x8, addend: 0x0, symName: __ZNSt3__114__split_bufferINS_7__stateIcEERNS_9allocatorIS2_EEEC1EmmS5_, symObjAddr: 0xB20C, symBinAddr: 0x10001BFDC, symSize: 0x44 }
  - { offsetInCU: 0x288E4, offset: 0x57517, size: 0x8, addend: 0x0, symName: __ZNSt3__114__split_bufferINS_7__stateIcEERNS_9allocatorIS2_EEED1Ev, symObjAddr: 0xB368, symBinAddr: 0x10001C138, symSize: 0x2C }
  - { offsetInCU: 0x2890F, offset: 0x57542, size: 0x8, addend: 0x0, symName: __ZNKSt3__16vectorINS_7__stateIcEENS_9allocatorIS2_EEE8max_sizeEv, symObjAddr: 0xB394, symBinAddr: 0x10001C164, symSize: 0x60 }
  - { offsetInCU: 0x28935, offset: 0x57568, size: 0x8, addend: 0x0, symName: __ZNKSt3__16vectorINS_7__stateIcEENS_9allocatorIS2_EEE20__throw_length_errorB7v160006Ev, symObjAddr: 0xB3F4, symBinAddr: 0x10001C1C4, symSize: 0x1C }
  - { offsetInCU: 0x28959, offset: 0x5758C, size: 0x8, addend: 0x0, symName: __ZNKSt3__16vectorINS_7__stateIcEENS_9allocatorIS2_EEE8capacityB7v160006Ev, symObjAddr: 0xB410, symBinAddr: 0x10001C1E0, symSize: 0x40 }
  - { offsetInCU: 0x28987, offset: 0x575BA, size: 0x8, addend: 0x0, symName: __ZNSt3__116allocator_traitsINS_9allocatorINS_7__stateIcEEEEE8max_sizeB7v160006IS4_vEEmRKS4_, symObjAddr: 0xB450, symBinAddr: 0x10001C220, symSize: 0x24 }
  - { offsetInCU: 0x289B5, offset: 0x575E8, size: 0x8, addend: 0x0, symName: __ZNKSt3__16vectorINS_7__stateIcEENS_9allocatorIS2_EEE7__allocB7v160006Ev, symObjAddr: 0xB474, symBinAddr: 0x10001C244, symSize: 0x28 }
  - { offsetInCU: 0x289D9, offset: 0x5760C, size: 0x8, addend: 0x0, symName: __ZNKSt3__19allocatorINS_7__stateIcEEE8max_sizeB7v160006Ev, symObjAddr: 0xB49C, symBinAddr: 0x10001C26C, symSize: 0x18 }
  - { offsetInCU: 0x289FD, offset: 0x57630, size: 0x8, addend: 0x0, symName: __ZNKSt3__117__compressed_pairIPNS_7__stateIcEENS_9allocatorIS2_EEE6secondB7v160006Ev, symObjAddr: 0xB4B4, symBinAddr: 0x10001C284, symSize: 0x24 }
  - { offsetInCU: 0x28A21, offset: 0x57654, size: 0x8, addend: 0x0, symName: __ZNKSt3__122__compressed_pair_elemINS_9allocatorINS_7__stateIcEEEELi1ELb1EE5__getB7v160006Ev, symObjAddr: 0xB4D8, symBinAddr: 0x10001C2A8, symSize: 0x14 }
  - { offsetInCU: 0x28A45, offset: 0x57678, size: 0x8, addend: 0x0, symName: __ZNKSt3__16vectorINS_7__stateIcEENS_9allocatorIS2_EEE9__end_capB7v160006Ev, symObjAddr: 0xB4EC, symBinAddr: 0x10001C2BC, symSize: 0x28 }
  - { offsetInCU: 0x28A69, offset: 0x5769C, size: 0x8, addend: 0x0, symName: __ZNKSt3__117__compressed_pairIPNS_7__stateIcEENS_9allocatorIS2_EEE5firstB7v160006Ev, symObjAddr: 0xB514, symBinAddr: 0x10001C2E4, symSize: 0x24 }
  - { offsetInCU: 0x28A8D, offset: 0x576C0, size: 0x8, addend: 0x0, symName: __ZNKSt3__122__compressed_pair_elemIPNS_7__stateIcEELi0ELb0EE5__getB7v160006Ev, symObjAddr: 0xB538, symBinAddr: 0x10001C308, symSize: 0x14 }
  - { offsetInCU: 0x28AB1, offset: 0x576E4, size: 0x8, addend: 0x0, symName: __ZNSt3__114__split_bufferINS_7__stateIcEERNS_9allocatorIS2_EEEC2EmmS5_, symObjAddr: 0xB54C, symBinAddr: 0x10001C31C, symSize: 0xE0 }
  - { offsetInCU: 0x28B24, offset: 0x57757, size: 0x8, addend: 0x0, symName: __ZNSt3__117__compressed_pairIPNS_7__stateIcEERNS_9allocatorIS2_EEEC1B7v160006IDnS6_EEOT_OT0_, symObjAddr: 0xB62C, symBinAddr: 0x10001C3FC, symSize: 0x3C }
  - { offsetInCU: 0x28B7A, offset: 0x577AD, size: 0x8, addend: 0x0, symName: __ZNSt3__114__split_bufferINS_7__stateIcEERNS_9allocatorIS2_EEE7__allocB7v160006Ev, symObjAddr: 0xB6A8, symBinAddr: 0x10001C478, symSize: 0x28 }
  - { offsetInCU: 0x28B9E, offset: 0x577D1, size: 0x8, addend: 0x0, symName: __ZNSt3__114__split_bufferINS_7__stateIcEERNS_9allocatorIS2_EEE9__end_capB7v160006Ev, symObjAddr: 0xB6D0, symBinAddr: 0x10001C4A0, symSize: 0x28 }
  - { offsetInCU: 0x28BC2, offset: 0x577F5, size: 0x8, addend: 0x0, symName: __ZNSt3__117__compressed_pairIPNS_7__stateIcEERNS_9allocatorIS2_EEEC2B7v160006IDnS6_EEOT_OT0_, symObjAddr: 0xB6F8, symBinAddr: 0x10001C4C8, symSize: 0x48 }
  - { offsetInCU: 0x28C18, offset: 0x5784B, size: 0x8, addend: 0x0, symName: __ZNSt3__122__compressed_pair_elemIRNS_9allocatorINS_7__stateIcEEEELi1ELb0EEC2B7v160006IS5_vEEOT_, symObjAddr: 0xB740, symBinAddr: 0x10001C510, symSize: 0x20 }
  - { offsetInCU: 0x28C59, offset: 0x5788C, size: 0x8, addend: 0x0, symName: __ZNSt3__19allocatorINS_7__stateIcEEE8allocateB7v160006Em, symObjAddr: 0xB760, symBinAddr: 0x10001C530, symSize: 0x5C }
  - { offsetInCU: 0x28C8B, offset: 0x578BE, size: 0x8, addend: 0x0, symName: __ZNSt3__117__compressed_pairIPNS_7__stateIcEERNS_9allocatorIS2_EEE6secondB7v160006Ev, symObjAddr: 0xB7BC, symBinAddr: 0x10001C58C, symSize: 0x28 }
  - { offsetInCU: 0x28CAF, offset: 0x578E2, size: 0x8, addend: 0x0, symName: __ZNSt3__122__compressed_pair_elemIRNS_9allocatorINS_7__stateIcEEEELi1ELb0EE5__getB7v160006Ev, symObjAddr: 0xB7E4, symBinAddr: 0x10001C5B4, symSize: 0x18 }
  - { offsetInCU: 0x28CD3, offset: 0x57906, size: 0x8, addend: 0x0, symName: __ZNSt3__117__compressed_pairIPNS_7__stateIcEERNS_9allocatorIS2_EEE5firstB7v160006Ev, symObjAddr: 0xB7FC, symBinAddr: 0x10001C5CC, symSize: 0x24 }
  - { offsetInCU: 0x28CF7, offset: 0x5792A, size: 0x8, addend: 0x0, symName: __ZNKSt3__16vectorINS_7__stateIcEENS_9allocatorIS2_EEE17__annotate_deleteB7v160006Ev, symObjAddr: 0xB820, symBinAddr: 0x10001C5F0, symSize: 0xD4 }
  - { offsetInCU: 0x28D1B, offset: 0x5794E, size: 0x8, addend: 0x0, symName: __ZNSt3__116reverse_iteratorIPNS_7__stateIcEEEC1B7v160006ES3_, symObjAddr: 0xBA20, symBinAddr: 0x10001C7F0, symSize: 0x34 }
  - { offsetInCU: 0x28D51, offset: 0x57984, size: 0x8, addend: 0x0, symName: __ZNKSt3__116reverse_iteratorIPNS_7__stateIcEEE4baseB7v160006Ev, symObjAddr: 0xBA54, symBinAddr: 0x10001C824, symSize: 0x18 }
  - { offsetInCU: 0x28D75, offset: 0x579A8, size: 0x8, addend: 0x0, symName: __ZNKSt3__16vectorINS_7__stateIcEENS_9allocatorIS2_EEE14__annotate_newB7v160006Em, symObjAddr: 0xBAA8, symBinAddr: 0x10001C878, symSize: 0xC8 }
  - { offsetInCU: 0x28DA8, offset: 0x579DB, size: 0x8, addend: 0x0, symName: __ZNKSt3__16vectorINS_7__stateIcEENS_9allocatorIS2_EEE31__annotate_contiguous_containerB7v160006EPKvS7_S7_S7_, symObjAddr: 0xBB80, symBinAddr: 0x10001C950, symSize: 0x20 }
  - { offsetInCU: 0x28DFC, offset: 0x57A2F, size: 0x8, addend: 0x0, symName: __ZNKSt3__16vectorINS_7__stateIcEENS_9allocatorIS2_EEE4dataB7v160006Ev, symObjAddr: 0xBBA0, symBinAddr: 0x10001C970, symSize: 0x28 }
  - { offsetInCU: 0x28E20, offset: 0x57A53, size: 0x8, addend: 0x0, symName: __ZNSt3__129_AllocatorDestroyRangeReverseINS_9allocatorINS_7__stateIcEEEENS_16reverse_iteratorIPS3_EEEC1B7v160006ERS4_RS7_SA_, symObjAddr: 0xBC14, symBinAddr: 0x10001C9E4, symSize: 0x44 }
  - { offsetInCU: 0x28E75, offset: 0x57AA8, size: 0x8, addend: 0x0, symName: __ZNKSt3__116reverse_iteratorIPNS_7__stateIcEEEdeB7v160006Ev, symObjAddr: 0xBCC4, symBinAddr: 0x10001CA94, symSize: 0x28 }
  - { offsetInCU: 0x28EA7, offset: 0x57ADA, size: 0x8, addend: 0x0, symName: __ZNSt3__116reverse_iteratorIPNS_7__stateIcEEEppB7v160006Ev, symObjAddr: 0xBCEC, symBinAddr: 0x10001CABC, symSize: 0x20 }
  - { offsetInCU: 0x28ECB, offset: 0x57AFE, size: 0x8, addend: 0x0, symName: __ZNSt3__128__exception_guard_exceptionsINS_29_AllocatorDestroyRangeReverseINS_9allocatorINS_7__stateIcEEEENS_16reverse_iteratorIPS4_EEEEE10__completeB7v160006Ev, symObjAddr: 0xBD0C, symBinAddr: 0x10001CADC, symSize: 0x1C }
  - { offsetInCU: 0x28EEF, offset: 0x57B22, size: 0x8, addend: 0x0, symName: __ZNSt3__128__exception_guard_exceptionsINS_29_AllocatorDestroyRangeReverseINS_9allocatorINS_7__stateIcEEEENS_16reverse_iteratorIPS4_EEEEED1B7v160006Ev, symObjAddr: 0xBD28, symBinAddr: 0x10001CAF8, symSize: 0x2C }
  - { offsetInCU: 0x28F17, offset: 0x57B4A, size: 0x8, addend: 0x0, symName: __ZNSt3__128__exception_guard_exceptionsINS_29_AllocatorDestroyRangeReverseINS_9allocatorINS_7__stateIcEEEENS_16reverse_iteratorIPS4_EEEEEC1B7v160006ES9_, symObjAddr: 0xBD54, symBinAddr: 0x10001CB24, symSize: 0x34 }
  - { offsetInCU: 0x28F4E, offset: 0x57B81, size: 0x8, addend: 0x0, symName: __ZNSt3__128__exception_guard_exceptionsINS_29_AllocatorDestroyRangeReverseINS_9allocatorINS_7__stateIcEEEENS_16reverse_iteratorIPS4_EEEEEC2B7v160006ES9_, symObjAddr: 0xBD88, symBinAddr: 0x10001CB58, symSize: 0x30 }
  - { offsetInCU: 0x28F85, offset: 0x57BB8, size: 0x8, addend: 0x0, symName: __ZNSt3__129_AllocatorDestroyRangeReverseINS_9allocatorINS_7__stateIcEEEENS_16reverse_iteratorIPS3_EEEC2B7v160006ERS4_RS7_SA_, symObjAddr: 0xBDB8, symBinAddr: 0x10001CB88, symSize: 0x38 }
  - { offsetInCU: 0x28FDF, offset: 0x57C12, size: 0x8, addend: 0x0, symName: __ZNSt3__119__to_address_helperINS_16reverse_iteratorIPNS_7__stateIcEEEEvE6__callB7v160006ERKS5_, symObjAddr: 0xBDF0, symBinAddr: 0x10001CBC0, symSize: 0x38 }
  - { offsetInCU: 0x29001, offset: 0x57C34, size: 0x8, addend: 0x0, symName: __ZNKSt3__116reverse_iteratorIPNS_7__stateIcEEEptB7v160006Ev, symObjAddr: 0xBE28, symBinAddr: 0x10001CBF8, symSize: 0x24 }
  - { offsetInCU: 0x29025, offset: 0x57C58, size: 0x8, addend: 0x0, symName: __ZNSt3__128__exception_guard_exceptionsINS_29_AllocatorDestroyRangeReverseINS_9allocatorINS_7__stateIcEEEENS_16reverse_iteratorIPS4_EEEEED2B7v160006Ev, symObjAddr: 0xBE4C, symBinAddr: 0x10001CC1C, symSize: 0x50 }
  - { offsetInCU: 0x2904D, offset: 0x57C80, size: 0x8, addend: 0x0, symName: __ZNKSt3__129_AllocatorDestroyRangeReverseINS_9allocatorINS_7__stateIcEEEENS_16reverse_iteratorIPS3_EEEclB7v160006Ev, symObjAddr: 0xBE9C, symBinAddr: 0x10001CC6C, symSize: 0xB4 }
  - { offsetInCU: 0x29072, offset: 0x57CA5, size: 0x8, addend: 0x0, symName: __ZNSt3__116reverse_iteratorINS0_IPNS_7__stateIcEEEEEC1B7v160006ES4_, symObjAddr: 0xBFC0, symBinAddr: 0x10001CD90, symSize: 0x3C }
  - { offsetInCU: 0x290A8, offset: 0x57CDB, size: 0x8, addend: 0x0, symName: __ZNSt3__116allocator_traitsINS_9allocatorINS_7__stateIcEEEEE7destroyB7v160006IS3_vEEvRS4_PT_, symObjAddr: 0xC05C, symBinAddr: 0x10001CE2C, symSize: 0x2C }
  - { offsetInCU: 0x290E5, offset: 0x57D18, size: 0x8, addend: 0x0, symName: __ZNSt3__116reverse_iteratorINS0_IPNS_7__stateIcEEEEEppB7v160006Ev, symObjAddr: 0xC0AC, symBinAddr: 0x10001CE7C, symSize: 0x30 }
  - { offsetInCU: 0x29109, offset: 0x57D3C, size: 0x8, addend: 0x0, symName: __ZNKSt3__116reverse_iteratorINS0_IPNS_7__stateIcEEEEE4baseB7v160006Ev, symObjAddr: 0xC0DC, symBinAddr: 0x10001CEAC, symSize: 0x24 }
  - { offsetInCU: 0x2912D, offset: 0x57D60, size: 0x8, addend: 0x0, symName: __ZNSt3__19allocatorINS_7__stateIcEEE7destroyB7v160006EPS2_, symObjAddr: 0xC100, symBinAddr: 0x10001CED0, symSize: 0x28 }
  - { offsetInCU: 0x29164, offset: 0x57D97, size: 0x8, addend: 0x0, symName: __ZNSt3__119__to_address_helperINS_16reverse_iteratorINS1_IPNS_7__stateIcEEEEEEvE6__callB7v160006ERKS6_, symObjAddr: 0xC128, symBinAddr: 0x10001CEF8, symSize: 0x38 }
  - { offsetInCU: 0x29186, offset: 0x57DB9, size: 0x8, addend: 0x0, symName: __ZNKSt3__116reverse_iteratorINS0_IPNS_7__stateIcEEEEEptB7v160006Ev, symObjAddr: 0xC160, symBinAddr: 0x10001CF30, symSize: 0x24 }
  - { offsetInCU: 0x291AA, offset: 0x57DDD, size: 0x8, addend: 0x0, symName: __ZNKSt3__116reverse_iteratorINS0_IPNS_7__stateIcEEEEEdeB7v160006Ev, symObjAddr: 0xC184, symBinAddr: 0x10001CF54, symSize: 0x34 }
  - { offsetInCU: 0x291DC, offset: 0x57E0F, size: 0x8, addend: 0x0, symName: __ZNSt3__116reverse_iteratorIPNS_7__stateIcEEEmmB7v160006Ev, symObjAddr: 0xC1B8, symBinAddr: 0x10001CF88, symSize: 0x20 }
  - { offsetInCU: 0x29200, offset: 0x57E33, size: 0x8, addend: 0x0, symName: __ZNSt3__116reverse_iteratorINS0_IPNS_7__stateIcEEEEEC2B7v160006ES4_, symObjAddr: 0xC1D8, symBinAddr: 0x10001CFA8, symSize: 0x2C }
  - { offsetInCU: 0x29236, offset: 0x57E69, size: 0x8, addend: 0x0, symName: __ZNSt3__116reverse_iteratorIPNS_7__stateIcEEEC2B7v160006ES3_, symObjAddr: 0xC204, symBinAddr: 0x10001CFD4, symSize: 0x28 }
  - { offsetInCU: 0x2926C, offset: 0x57E9F, size: 0x8, addend: 0x0, symName: __ZNSt3__114__split_bufferINS_7__stateIcEERNS_9allocatorIS2_EEED2Ev, symObjAddr: 0xC22C, symBinAddr: 0x10001CFFC, symSize: 0x8C }
  - { offsetInCU: 0x29297, offset: 0x57ECA, size: 0x8, addend: 0x0, symName: __ZNSt3__114__split_bufferINS_7__stateIcEERNS_9allocatorIS2_EEE5clearB7v160006Ev, symObjAddr: 0xC2B8, symBinAddr: 0x10001D088, symSize: 0x28 }
  - { offsetInCU: 0x292BB, offset: 0x57EEE, size: 0x8, addend: 0x0, symName: __ZNSt3__116allocator_traitsINS_9allocatorINS_7__stateIcEEEEE10deallocateB7v160006ERS4_PS3_m, symObjAddr: 0xC2E0, symBinAddr: 0x10001D0B0, symSize: 0x34 }
  - { offsetInCU: 0x292FC, offset: 0x57F2F, size: 0x8, addend: 0x0, symName: __ZNKSt3__114__split_bufferINS_7__stateIcEERNS_9allocatorIS2_EEE8capacityB7v160006Ev, symObjAddr: 0xC314, symBinAddr: 0x10001D0E4, symSize: 0x40 }
  - { offsetInCU: 0x29320, offset: 0x57F53, size: 0x8, addend: 0x0, symName: __ZNSt3__114__split_bufferINS_7__stateIcEERNS_9allocatorIS2_EEE17__destruct_at_endB7v160006EPS2_, symObjAddr: 0xC354, symBinAddr: 0x10001D124, symSize: 0x2C }
  - { offsetInCU: 0x29352, offset: 0x57F85, size: 0x8, addend: 0x0, symName: __ZNSt3__114__split_bufferINS_7__stateIcEERNS_9allocatorIS2_EEE17__destruct_at_endB7v160006EPS2_NS_17integral_constantIbLb0EEE, symObjAddr: 0xC380, symBinAddr: 0x10001D150, symSize: 0x80 }
  - { offsetInCU: 0x29390, offset: 0x57FC3, size: 0x8, addend: 0x0, symName: __ZNSt3__19allocatorINS_7__stateIcEEE10deallocateB7v160006EPS2_m, symObjAddr: 0xC400, symBinAddr: 0x10001D1D0, symSize: 0x44 }
  - { offsetInCU: 0x293D0, offset: 0x58003, size: 0x8, addend: 0x0, symName: __ZNKSt3__114__split_bufferINS_7__stateIcEERNS_9allocatorIS2_EEE9__end_capB7v160006Ev, symObjAddr: 0xC444, symBinAddr: 0x10001D214, symSize: 0x28 }
  - { offsetInCU: 0x293F4, offset: 0x58027, size: 0x8, addend: 0x0, symName: __ZNKSt3__117__compressed_pairIPNS_7__stateIcEERNS_9allocatorIS2_EEE5firstB7v160006Ev, symObjAddr: 0xC46C, symBinAddr: 0x10001D23C, symSize: 0x24 }
  - { offsetInCU: 0x29418, offset: 0x5804B, size: 0x8, addend: 0x0, symName: __ZNSt3__17__stateIcEC2B7v160006Ev, symObjAddr: 0xC490, symBinAddr: 0x10001D260, symSize: 0x54 }
  - { offsetInCU: 0x29440, offset: 0x58073, size: 0x8, addend: 0x0, symName: __ZNSt3__16vectorINS_9sub_matchIPKcEENS_9allocatorIS4_EEEC1B7v160006Ev, symObjAddr: 0xC4E4, symBinAddr: 0x10001D2B4, symSize: 0x2C }
  - { offsetInCU: 0x29468, offset: 0x5809B, size: 0x8, addend: 0x0, symName: __ZNSt3__16vectorINS_4pairImPKcEENS_9allocatorIS4_EEEC1B7v160006Ev, symObjAddr: 0xC510, symBinAddr: 0x10001D2E0, symSize: 0x2C }
  - { offsetInCU: 0x29490, offset: 0x580C3, size: 0x8, addend: 0x0, symName: __ZNSt3__16vectorINS_9sub_matchIPKcEENS_9allocatorIS4_EEEC2B7v160006Ev, symObjAddr: 0xC53C, symBinAddr: 0x10001D30C, symSize: 0x54 }
  - { offsetInCU: 0x294B8, offset: 0x580EB, size: 0x8, addend: 0x0, symName: __ZNSt3__117__compressed_pairIPNS_9sub_matchIPKcEENS_9allocatorIS4_EEEC1B7v160006IDnNS_18__default_init_tagEEEOT_OT0_, symObjAddr: 0xC590, symBinAddr: 0x10001D360, symSize: 0x3C }
  - { offsetInCU: 0x2950E, offset: 0x58141, size: 0x8, addend: 0x0, symName: __ZNSt3__117__compressed_pairIPNS_9sub_matchIPKcEENS_9allocatorIS4_EEEC2B7v160006IDnNS_18__default_init_tagEEEOT_OT0_, symObjAddr: 0xC5CC, symBinAddr: 0x10001D39C, symSize: 0x40 }
  - { offsetInCU: 0x29564, offset: 0x58197, size: 0x8, addend: 0x0, symName: __ZNSt3__122__compressed_pair_elemINS_9allocatorINS_9sub_matchIPKcEEEELi1ELb1EEC2B7v160006ENS_18__default_init_tagE, symObjAddr: 0xC60C, symBinAddr: 0x10001D3DC, symSize: 0x2C }
  - { offsetInCU: 0x29596, offset: 0x581C9, size: 0x8, addend: 0x0, symName: __ZNSt3__16vectorINS_4pairImPKcEENS_9allocatorIS4_EEEC2B7v160006Ev, symObjAddr: 0xC638, symBinAddr: 0x10001D408, symSize: 0x54 }
  - { offsetInCU: 0x295BE, offset: 0x581F1, size: 0x8, addend: 0x0, symName: __ZNSt3__117__compressed_pairIPNS_4pairImPKcEENS_9allocatorIS4_EEEC1B7v160006IDnNS_18__default_init_tagEEEOT_OT0_, symObjAddr: 0xC68C, symBinAddr: 0x10001D45C, symSize: 0x3C }
  - { offsetInCU: 0x29614, offset: 0x58247, size: 0x8, addend: 0x0, symName: __ZNSt3__117__compressed_pairIPNS_4pairImPKcEENS_9allocatorIS4_EEEC2B7v160006IDnNS_18__default_init_tagEEEOT_OT0_, symObjAddr: 0xC6C8, symBinAddr: 0x10001D498, symSize: 0x40 }
  - { offsetInCU: 0x2966A, offset: 0x5829D, size: 0x8, addend: 0x0, symName: __ZNSt3__122__compressed_pair_elemINS_9allocatorINS_4pairImPKcEEEELi1ELb1EEC2B7v160006ENS_18__default_init_tagE, symObjAddr: 0xC708, symBinAddr: 0x10001D4D8, symSize: 0x2C }
  - { offsetInCU: 0x2969C, offset: 0x582CF, size: 0x8, addend: 0x0, symName: __ZNSt3__19allocatorINS_4pairImPKcEEEC2B7v160006Ev, symObjAddr: 0xC734, symBinAddr: 0x10001D504, symSize: 0x2C }
  - { offsetInCU: 0x296C4, offset: 0x582F7, size: 0x8, addend: 0x0, symName: __ZNSt3__116__non_trivial_ifILb1ENS_9allocatorINS_4pairImPKcEEEEEC2B7v160006Ev, symObjAddr: 0xC760, symBinAddr: 0x10001D530, symSize: 0x14 }
  - { offsetInCU: 0x296EC, offset: 0x5831F, size: 0x8, addend: 0x0, symName: __ZNSt3__17__stateIcED2Ev, symObjAddr: 0xC774, symBinAddr: 0x10001D544, symSize: 0x3C }
  - { offsetInCU: 0x29718, offset: 0x5834B, size: 0x8, addend: 0x0, symName: __ZNSt3__16vectorINS_4pairImPKcEENS_9allocatorIS4_EEED1B7v160006Ev, symObjAddr: 0xC7B0, symBinAddr: 0x10001D580, symSize: 0x2C }
  - { offsetInCU: 0x29740, offset: 0x58373, size: 0x8, addend: 0x0, symName: __ZNSt3__16vectorINS_4pairImPKcEENS_9allocatorIS4_EEED2B7v160006Ev, symObjAddr: 0xC7DC, symBinAddr: 0x10001D5AC, symSize: 0x44 }
  - { offsetInCU: 0x29768, offset: 0x5839B, size: 0x8, addend: 0x0, symName: __ZNSt3__16vectorINS_4pairImPKcEENS_9allocatorIS4_EEE16__destroy_vectorC1ERS7_, symObjAddr: 0xC820, symBinAddr: 0x10001D5F0, symSize: 0x34 }
  - { offsetInCU: 0x2979F, offset: 0x583D2, size: 0x8, addend: 0x0, symName: __ZNSt3__16vectorINS_4pairImPKcEENS_9allocatorIS4_EEE16__destroy_vectorclB7v160006Ev, symObjAddr: 0xC854, symBinAddr: 0x10001D624, symSize: 0x9C }
  - { offsetInCU: 0x297C3, offset: 0x583F6, size: 0x8, addend: 0x0, symName: __ZNSt3__16vectorINS_4pairImPKcEENS_9allocatorIS4_EEE16__destroy_vectorC2ERS7_, symObjAddr: 0xC8F0, symBinAddr: 0x10001D6C0, symSize: 0x20 }
  - { offsetInCU: 0x297FA, offset: 0x5842D, size: 0x8, addend: 0x0, symName: __ZNKSt3__16vectorINS_4pairImPKcEENS_9allocatorIS4_EEE17__annotate_deleteB7v160006Ev, symObjAddr: 0xC910, symBinAddr: 0x10001D6E0, symSize: 0xB8 }
  - { offsetInCU: 0x2981E, offset: 0x58451, size: 0x8, addend: 0x0, symName: __ZNSt3__16vectorINS_4pairImPKcEENS_9allocatorIS4_EEE7__clearB7v160006Ev, symObjAddr: 0xC9D8, symBinAddr: 0x10001D7A8, symSize: 0x28 }
  - { offsetInCU: 0x29842, offset: 0x58475, size: 0x8, addend: 0x0, symName: __ZNSt3__116allocator_traitsINS_9allocatorINS_4pairImPKcEEEEE10deallocateB7v160006ERS6_PS5_m, symObjAddr: 0xCA00, symBinAddr: 0x10001D7D0, symSize: 0x34 }
  - { offsetInCU: 0x29883, offset: 0x584B6, size: 0x8, addend: 0x0, symName: __ZNKSt3__16vectorINS_4pairImPKcEENS_9allocatorIS4_EEE8capacityB7v160006Ev, symObjAddr: 0xCA34, symBinAddr: 0x10001D804, symSize: 0x40 }
  - { offsetInCU: 0x298A7, offset: 0x584DA, size: 0x8, addend: 0x0, symName: __ZNKSt3__16vectorINS_4pairImPKcEENS_9allocatorIS4_EEE31__annotate_contiguous_containerB7v160006EPKvS9_S9_S9_, symObjAddr: 0xCA74, symBinAddr: 0x10001D844, symSize: 0x20 }
  - { offsetInCU: 0x298FB, offset: 0x5852E, size: 0x8, addend: 0x0, symName: __ZNKSt3__16vectorINS_4pairImPKcEENS_9allocatorIS4_EEE4dataB7v160006Ev, symObjAddr: 0xCA94, symBinAddr: 0x10001D864, symSize: 0x28 }
  - { offsetInCU: 0x2991F, offset: 0x58552, size: 0x8, addend: 0x0, symName: __ZNKSt3__16vectorINS_4pairImPKcEENS_9allocatorIS4_EEE4sizeB7v160006Ev, symObjAddr: 0xCABC, symBinAddr: 0x10001D88C, symSize: 0x28 }
  - { offsetInCU: 0x29943, offset: 0x58576, size: 0x8, addend: 0x0, symName: __ZNSt3__16vectorINS_4pairImPKcEENS_9allocatorIS4_EEE22__base_destruct_at_endB7v160006EPS4_, symObjAddr: 0xCAF8, symBinAddr: 0x10001D8C8, symSize: 0x8C }
  - { offsetInCU: 0x29985, offset: 0x585B8, size: 0x8, addend: 0x0, symName: __ZNSt3__116allocator_traitsINS_9allocatorINS_4pairImPKcEEEEE7destroyB7v160006IS5_vEEvRS6_PT_, symObjAddr: 0xCB84, symBinAddr: 0x10001D954, symSize: 0x2C }
  - { offsetInCU: 0x299C2, offset: 0x585F5, size: 0x8, addend: 0x0, symName: __ZNSt3__19allocatorINS_4pairImPKcEEE7destroyB7v160006EPS4_, symObjAddr: 0xCBB0, symBinAddr: 0x10001D980, symSize: 0x14 }
  - { offsetInCU: 0x299F4, offset: 0x58627, size: 0x8, addend: 0x0, symName: __ZNSt3__19allocatorINS_4pairImPKcEEE10deallocateB7v160006EPS4_m, symObjAddr: 0xCBC4, symBinAddr: 0x10001D994, symSize: 0x40 }
  - { offsetInCU: 0x29A34, offset: 0x58667, size: 0x8, addend: 0x0, symName: __ZNKSt3__16vectorINS_4pairImPKcEENS_9allocatorIS4_EEE9__end_capB7v160006Ev, symObjAddr: 0xCC04, symBinAddr: 0x10001D9D4, symSize: 0x28 }
  - { offsetInCU: 0x29A58, offset: 0x5868B, size: 0x8, addend: 0x0, symName: __ZNKSt3__117__compressed_pairIPNS_4pairImPKcEENS_9allocatorIS4_EEE5firstB7v160006Ev, symObjAddr: 0xCC2C, symBinAddr: 0x10001D9FC, symSize: 0x24 }
  - { offsetInCU: 0x29A7C, offset: 0x586AF, size: 0x8, addend: 0x0, symName: __ZNKSt3__122__compressed_pair_elemIPNS_4pairImPKcEELi0ELb0EE5__getB7v160006Ev, symObjAddr: 0xCC50, symBinAddr: 0x10001DA20, symSize: 0x14 }
  - { offsetInCU: 0x29AA0, offset: 0x586D3, size: 0x8, addend: 0x0, symName: __ZNSt3__16vectorINS_9sub_matchIPKcEENS_9allocatorIS4_EEE8__appendEmRKS4_, symObjAddr: 0xCC64, symBinAddr: 0x10001DA34, symSize: 0x114 }
  - { offsetInCU: 0x29B08, offset: 0x5873B, size: 0x8, addend: 0x0, symName: __ZNSt3__114__split_bufferINS_9sub_matchIPKcEERNS_9allocatorIS4_EEEC1EmmS7_, symObjAddr: 0xCD78, symBinAddr: 0x10001DB48, symSize: 0x44 }
  - { offsetInCU: 0x29B5D, offset: 0x58790, size: 0x8, addend: 0x0, symName: __ZNSt3__114__split_bufferINS_9sub_matchIPKcEERNS_9allocatorIS4_EEE18__construct_at_endEmRKS4_, symObjAddr: 0xCDBC, symBinAddr: 0x10001DB8C, symSize: 0xBC }
  - { offsetInCU: 0x29BAD, offset: 0x587E0, size: 0x8, addend: 0x0, symName: __ZNSt3__114__split_bufferINS_9sub_matchIPKcEERNS_9allocatorIS4_EEED1Ev, symObjAddr: 0xCF90, symBinAddr: 0x10001DD60, symSize: 0x2C }
  - { offsetInCU: 0x29BD8, offset: 0x5880B, size: 0x8, addend: 0x0, symName: __ZNSt3__114__split_bufferINS_9sub_matchIPKcEERNS_9allocatorIS4_EEEC2EmmS7_, symObjAddr: 0xCFBC, symBinAddr: 0x10001DD8C, symSize: 0xE0 }
  - { offsetInCU: 0x29C4B, offset: 0x5887E, size: 0x8, addend: 0x0, symName: __ZNSt3__117__compressed_pairIPNS_9sub_matchIPKcEERNS_9allocatorIS4_EEEC1B7v160006IDnS8_EEOT_OT0_, symObjAddr: 0xD09C, symBinAddr: 0x10001DE6C, symSize: 0x3C }
  - { offsetInCU: 0x29CA1, offset: 0x588D4, size: 0x8, addend: 0x0, symName: __ZNSt3__114__split_bufferINS_9sub_matchIPKcEERNS_9allocatorIS4_EEE7__allocB7v160006Ev, symObjAddr: 0xD0D8, symBinAddr: 0x10001DEA8, symSize: 0x28 }
  - { offsetInCU: 0x29CC5, offset: 0x588F8, size: 0x8, addend: 0x0, symName: __ZNSt3__114__split_bufferINS_9sub_matchIPKcEERNS_9allocatorIS4_EEE9__end_capB7v160006Ev, symObjAddr: 0xD100, symBinAddr: 0x10001DED0, symSize: 0x28 }
  - { offsetInCU: 0x29CE9, offset: 0x5891C, size: 0x8, addend: 0x0, symName: __ZNSt3__117__compressed_pairIPNS_9sub_matchIPKcEERNS_9allocatorIS4_EEEC2B7v160006IDnS8_EEOT_OT0_, symObjAddr: 0xD128, symBinAddr: 0x10001DEF8, symSize: 0x48 }
  - { offsetInCU: 0x29D3F, offset: 0x58972, size: 0x8, addend: 0x0, symName: __ZNSt3__122__compressed_pair_elemIRNS_9allocatorINS_9sub_matchIPKcEEEELi1ELb0EEC2B7v160006IS7_vEEOT_, symObjAddr: 0xD170, symBinAddr: 0x10001DF40, symSize: 0x20 }
  - { offsetInCU: 0x29D80, offset: 0x589B3, size: 0x8, addend: 0x0, symName: __ZNSt3__117__compressed_pairIPNS_9sub_matchIPKcEERNS_9allocatorIS4_EEE6secondB7v160006Ev, symObjAddr: 0xD190, symBinAddr: 0x10001DF60, symSize: 0x28 }
  - { offsetInCU: 0x29DA4, offset: 0x589D7, size: 0x8, addend: 0x0, symName: __ZNSt3__122__compressed_pair_elemIRNS_9allocatorINS_9sub_matchIPKcEEEELi1ELb0EE5__getB7v160006Ev, symObjAddr: 0xD1B8, symBinAddr: 0x10001DF88, symSize: 0x18 }
  - { offsetInCU: 0x29DC8, offset: 0x589FB, size: 0x8, addend: 0x0, symName: __ZNSt3__117__compressed_pairIPNS_9sub_matchIPKcEERNS_9allocatorIS4_EEE5firstB7v160006Ev, symObjAddr: 0xD1D0, symBinAddr: 0x10001DFA0, symSize: 0x24 }
  - { offsetInCU: 0x29DF6, offset: 0x58A29, size: 0x8, addend: 0x0, symName: __ZNSt3__114__split_bufferINS_9sub_matchIPKcEERNS_9allocatorIS4_EEE21_ConstructTransactionC1B7v160006EPPS4_m, symObjAddr: 0xD1F4, symBinAddr: 0x10001DFC4, symSize: 0x3C }
  - { offsetInCU: 0x29E3A, offset: 0x58A6D, size: 0x8, addend: 0x0, symName: __ZNSt3__114__split_bufferINS_9sub_matchIPKcEERNS_9allocatorIS4_EEE21_ConstructTransactionD1B7v160006Ev, symObjAddr: 0xD230, symBinAddr: 0x10001E000, symSize: 0x2C }
  - { offsetInCU: 0x29E62, offset: 0x58A95, size: 0x8, addend: 0x0, symName: __ZNSt3__114__split_bufferINS_9sub_matchIPKcEERNS_9allocatorIS4_EEE21_ConstructTransactionC2B7v160006EPPS4_m, symObjAddr: 0xD25C, symBinAddr: 0x10001E02C, symSize: 0x4C }
  - { offsetInCU: 0x29EA6, offset: 0x58AD9, size: 0x8, addend: 0x0, symName: __ZNSt3__114__split_bufferINS_9sub_matchIPKcEERNS_9allocatorIS4_EEE21_ConstructTransactionD2B7v160006Ev, symObjAddr: 0xD2A8, symBinAddr: 0x10001E078, symSize: 0x20 }
  - { offsetInCU: 0x29ECE, offset: 0x58B01, size: 0x8, addend: 0x0, symName: __ZNSt3__116reverse_iteratorIPNS_9sub_matchIPKcEEEC1B7v160006ES5_, symObjAddr: 0xD3F4, symBinAddr: 0x10001E1C4, symSize: 0x34 }
  - { offsetInCU: 0x29F04, offset: 0x58B37, size: 0x8, addend: 0x0, symName: __ZNKSt3__116reverse_iteratorIPNS_9sub_matchIPKcEEE4baseB7v160006Ev, symObjAddr: 0xD428, symBinAddr: 0x10001E1F8, symSize: 0x18 }
  - { offsetInCU: 0x29F28, offset: 0x58B5B, size: 0x8, addend: 0x0, symName: __ZNSt3__129_AllocatorDestroyRangeReverseINS_9allocatorINS_9sub_matchIPKcEEEENS_16reverse_iteratorIPS5_EEEC1B7v160006ERS6_RS9_SC_, symObjAddr: 0xD4C8, symBinAddr: 0x10001E298, symSize: 0x44 }
  - { offsetInCU: 0x29F82, offset: 0x58BB5, size: 0x8, addend: 0x0, symName: __ZNSt3__116allocator_traitsINS_9allocatorINS_9sub_matchIPKcEEEEE9constructB7v160006IS5_JS5_EvEEvRS6_PT_DpOT0_, symObjAddr: 0xD554, symBinAddr: 0x10001E324, symSize: 0x34 }
  - { offsetInCU: 0x29FDA, offset: 0x58C0D, size: 0x8, addend: 0x0, symName: __ZNKSt3__116reverse_iteratorIPNS_9sub_matchIPKcEEEdeB7v160006Ev, symObjAddr: 0xD5AC, symBinAddr: 0x10001E37C, symSize: 0x28 }
  - { offsetInCU: 0x2A00C, offset: 0x58C3F, size: 0x8, addend: 0x0, symName: __ZNSt3__116reverse_iteratorIPNS_9sub_matchIPKcEEEppB7v160006Ev, symObjAddr: 0xD5D4, symBinAddr: 0x10001E3A4, symSize: 0x20 }
  - { offsetInCU: 0x2A030, offset: 0x58C63, size: 0x8, addend: 0x0, symName: __ZNSt3__128__exception_guard_exceptionsINS_29_AllocatorDestroyRangeReverseINS_9allocatorINS_9sub_matchIPKcEEEENS_16reverse_iteratorIPS6_EEEEE10__completeB7v160006Ev, symObjAddr: 0xD5F4, symBinAddr: 0x10001E3C4, symSize: 0x1C }
  - { offsetInCU: 0x2A054, offset: 0x58C87, size: 0x8, addend: 0x0, symName: __ZNSt3__128__exception_guard_exceptionsINS_29_AllocatorDestroyRangeReverseINS_9allocatorINS_9sub_matchIPKcEEEENS_16reverse_iteratorIPS6_EEEEED1B7v160006Ev, symObjAddr: 0xD610, symBinAddr: 0x10001E3E0, symSize: 0x2C }
  - { offsetInCU: 0x2A07C, offset: 0x58CAF, size: 0x8, addend: 0x0, symName: __ZNSt3__128__exception_guard_exceptionsINS_29_AllocatorDestroyRangeReverseINS_9allocatorINS_9sub_matchIPKcEEEENS_16reverse_iteratorIPS6_EEEEEC1B7v160006ESB_, symObjAddr: 0xD63C, symBinAddr: 0x10001E40C, symSize: 0x34 }
  - { offsetInCU: 0x2A0B3, offset: 0x58CE6, size: 0x8, addend: 0x0, symName: __ZNSt3__128__exception_guard_exceptionsINS_29_AllocatorDestroyRangeReverseINS_9allocatorINS_9sub_matchIPKcEEEENS_16reverse_iteratorIPS6_EEEEEC2B7v160006ESB_, symObjAddr: 0xD670, symBinAddr: 0x10001E440, symSize: 0x30 }
  - { offsetInCU: 0x2A0EA, offset: 0x58D1D, size: 0x8, addend: 0x0, symName: __ZNSt3__129_AllocatorDestroyRangeReverseINS_9allocatorINS_9sub_matchIPKcEEEENS_16reverse_iteratorIPS5_EEEC2B7v160006ERS6_RS9_SC_, symObjAddr: 0xD6A0, symBinAddr: 0x10001E470, symSize: 0x38 }
  - { offsetInCU: 0x2A13F, offset: 0x58D72, size: 0x8, addend: 0x0, symName: __ZNSt3__19allocatorINS_9sub_matchIPKcEEE9constructB7v160006IS4_JS4_EEEvPT_DpOT0_, symObjAddr: 0xD6D8, symBinAddr: 0x10001E4A8, symSize: 0x30 }
  - { offsetInCU: 0x2A199, offset: 0x58DCC, size: 0x8, addend: 0x0, symName: __ZNSt3__119__to_address_helperINS_16reverse_iteratorIPNS_9sub_matchIPKcEEEEvE6__callB7v160006ERKS7_, symObjAddr: 0xD708, symBinAddr: 0x10001E4D8, symSize: 0x38 }
  - { offsetInCU: 0x2A1BB, offset: 0x58DEE, size: 0x8, addend: 0x0, symName: __ZNKSt3__116reverse_iteratorIPNS_9sub_matchIPKcEEEptB7v160006Ev, symObjAddr: 0xD740, symBinAddr: 0x10001E510, symSize: 0x24 }
  - { offsetInCU: 0x2A1DF, offset: 0x58E12, size: 0x8, addend: 0x0, symName: __ZNSt3__128__exception_guard_exceptionsINS_29_AllocatorDestroyRangeReverseINS_9allocatorINS_9sub_matchIPKcEEEENS_16reverse_iteratorIPS6_EEEEED2B7v160006Ev, symObjAddr: 0xD764, symBinAddr: 0x10001E534, symSize: 0x50 }
  - { offsetInCU: 0x2A207, offset: 0x58E3A, size: 0x8, addend: 0x0, symName: __ZNKSt3__129_AllocatorDestroyRangeReverseINS_9allocatorINS_9sub_matchIPKcEEEENS_16reverse_iteratorIPS5_EEEclB7v160006Ev, symObjAddr: 0xD7B4, symBinAddr: 0x10001E584, symSize: 0xB4 }
  - { offsetInCU: 0x2A22C, offset: 0x58E5F, size: 0x8, addend: 0x0, symName: __ZNSt3__116reverse_iteratorINS0_IPNS_9sub_matchIPKcEEEEEC1B7v160006ES6_, symObjAddr: 0xD8D8, symBinAddr: 0x10001E6A8, symSize: 0x3C }
  - { offsetInCU: 0x2A262, offset: 0x58E95, size: 0x8, addend: 0x0, symName: __ZNSt3__116reverse_iteratorINS0_IPNS_9sub_matchIPKcEEEEEppB7v160006Ev, symObjAddr: 0xD998, symBinAddr: 0x10001E768, symSize: 0x30 }
  - { offsetInCU: 0x2A286, offset: 0x58EB9, size: 0x8, addend: 0x0, symName: __ZNKSt3__116reverse_iteratorINS0_IPNS_9sub_matchIPKcEEEEE4baseB7v160006Ev, symObjAddr: 0xD9C8, symBinAddr: 0x10001E798, symSize: 0x24 }
  - { offsetInCU: 0x2A2AF, offset: 0x58EE2, size: 0x8, addend: 0x0, symName: __ZNSt3__119__to_address_helperINS_16reverse_iteratorINS1_IPNS_9sub_matchIPKcEEEEEEvE6__callB7v160006ERKS8_, symObjAddr: 0xD9EC, symBinAddr: 0x10001E7BC, symSize: 0x38 }
  - { offsetInCU: 0x2A2D1, offset: 0x58F04, size: 0x8, addend: 0x0, symName: __ZNKSt3__116reverse_iteratorINS0_IPNS_9sub_matchIPKcEEEEEptB7v160006Ev, symObjAddr: 0xDA24, symBinAddr: 0x10001E7F4, symSize: 0x24 }
  - { offsetInCU: 0x2A2F5, offset: 0x58F28, size: 0x8, addend: 0x0, symName: __ZNKSt3__116reverse_iteratorINS0_IPNS_9sub_matchIPKcEEEEEdeB7v160006Ev, symObjAddr: 0xDA48, symBinAddr: 0x10001E818, symSize: 0x34 }
  - { offsetInCU: 0x2A327, offset: 0x58F5A, size: 0x8, addend: 0x0, symName: __ZNSt3__116reverse_iteratorIPNS_9sub_matchIPKcEEEmmB7v160006Ev, symObjAddr: 0xDA7C, symBinAddr: 0x10001E84C, symSize: 0x20 }
  - { offsetInCU: 0x2A34B, offset: 0x58F7E, size: 0x8, addend: 0x0, symName: __ZNSt3__116reverse_iteratorINS0_IPNS_9sub_matchIPKcEEEEEC2B7v160006ES6_, symObjAddr: 0xDA9C, symBinAddr: 0x10001E86C, symSize: 0x2C }
  - { offsetInCU: 0x2A381, offset: 0x58FB4, size: 0x8, addend: 0x0, symName: __ZNSt3__116reverse_iteratorIPNS_9sub_matchIPKcEEEC2B7v160006ES5_, symObjAddr: 0xDAC8, symBinAddr: 0x10001E898, symSize: 0x28 }
  - { offsetInCU: 0x2A3B7, offset: 0x58FEA, size: 0x8, addend: 0x0, symName: __ZNSt3__114__split_bufferINS_9sub_matchIPKcEERNS_9allocatorIS4_EEED2Ev, symObjAddr: 0xDAF0, symBinAddr: 0x10001E8C0, symSize: 0x8C }
  - { offsetInCU: 0x2A3E2, offset: 0x59015, size: 0x8, addend: 0x0, symName: __ZNSt3__114__split_bufferINS_9sub_matchIPKcEERNS_9allocatorIS4_EEE5clearB7v160006Ev, symObjAddr: 0xDB7C, symBinAddr: 0x10001E94C, symSize: 0x28 }
  - { offsetInCU: 0x2A406, offset: 0x59039, size: 0x8, addend: 0x0, symName: __ZNKSt3__114__split_bufferINS_9sub_matchIPKcEERNS_9allocatorIS4_EEE8capacityB7v160006Ev, symObjAddr: 0xDBA4, symBinAddr: 0x10001E974, symSize: 0x40 }
  - { offsetInCU: 0x2A42A, offset: 0x5905D, size: 0x8, addend: 0x0, symName: __ZNSt3__114__split_bufferINS_9sub_matchIPKcEERNS_9allocatorIS4_EEE17__destruct_at_endB7v160006EPS4_, symObjAddr: 0xDBE4, symBinAddr: 0x10001E9B4, symSize: 0x2C }
  - { offsetInCU: 0x2A45C, offset: 0x5908F, size: 0x8, addend: 0x0, symName: __ZNSt3__114__split_bufferINS_9sub_matchIPKcEERNS_9allocatorIS4_EEE17__destruct_at_endB7v160006EPS4_NS_17integral_constantIbLb0EEE, symObjAddr: 0xDC10, symBinAddr: 0x10001E9E0, symSize: 0x80 }
  - { offsetInCU: 0x2A49A, offset: 0x590CD, size: 0x8, addend: 0x0, symName: __ZNKSt3__114__split_bufferINS_9sub_matchIPKcEERNS_9allocatorIS4_EEE9__end_capB7v160006Ev, symObjAddr: 0xDC90, symBinAddr: 0x10001EA60, symSize: 0x28 }
  - { offsetInCU: 0x2A4BE, offset: 0x590F1, size: 0x8, addend: 0x0, symName: __ZNKSt3__117__compressed_pairIPNS_9sub_matchIPKcEERNS_9allocatorIS4_EEE5firstB7v160006Ev, symObjAddr: 0xDCB8, symBinAddr: 0x10001EA88, symSize: 0x24 }
  - { offsetInCU: 0x2A4E2, offset: 0x59115, size: 0x8, addend: 0x0, symName: __ZNSt3__16vectorINS_4pairImPKcEENS_9allocatorIS4_EEE8__appendEm, symObjAddr: 0xDCDC, symBinAddr: 0x10001EAAC, symSize: 0x108 }
  - { offsetInCU: 0x2A53B, offset: 0x5916E, size: 0x8, addend: 0x0, symName: __ZNSt3__16vectorINS_4pairImPKcEENS_9allocatorIS4_EEE17__destruct_at_endB7v160006EPS4_, symObjAddr: 0xDDE4, symBinAddr: 0x10001EBB4, symSize: 0x60 }
  - { offsetInCU: 0x2A57D, offset: 0x591B0, size: 0x8, addend: 0x0, symName: __ZNSt3__16vectorINS_4pairImPKcEENS_9allocatorIS4_EEE18__construct_at_endEm, symObjAddr: 0xDE44, symBinAddr: 0x10001EC14, symSize: 0xC8 }
  - { offsetInCU: 0x2A5EE, offset: 0x59221, size: 0x8, addend: 0x0, symName: __ZNKSt3__16vectorINS_4pairImPKcEENS_9allocatorIS4_EEE11__recommendB7v160006Em, symObjAddr: 0xDF0C, symBinAddr: 0x10001ECDC, symSize: 0xB4 }
  - { offsetInCU: 0x2A641, offset: 0x59274, size: 0x8, addend: 0x0, symName: __ZNSt3__114__split_bufferINS_4pairImPKcEERNS_9allocatorIS4_EEEC1EmmS7_, symObjAddr: 0xDFC0, symBinAddr: 0x10001ED90, symSize: 0x44 }
  - { offsetInCU: 0x2A696, offset: 0x592C9, size: 0x8, addend: 0x0, symName: __ZNSt3__114__split_bufferINS_4pairImPKcEERNS_9allocatorIS4_EEE18__construct_at_endEm, symObjAddr: 0xE004, symBinAddr: 0x10001EDD4, symSize: 0xB4 }
  - { offsetInCU: 0x2A6D8, offset: 0x5930B, size: 0x8, addend: 0x0, symName: __ZNSt3__114__split_bufferINS_4pairImPKcEERNS_9allocatorIS4_EEED1Ev, symObjAddr: 0xE1D0, symBinAddr: 0x10001EFA0, symSize: 0x2C }
  - { offsetInCU: 0x2A71C, offset: 0x5934F, size: 0x8, addend: 0x0, symName: __ZNSt3__16vectorINS_4pairImPKcEENS_9allocatorIS4_EEE21_ConstructTransactionC1B7v160006ERS7_m, symObjAddr: 0xE1FC, symBinAddr: 0x10001EFCC, symSize: 0x3C }
  - { offsetInCU: 0x2A762, offset: 0x59395, size: 0x8, addend: 0x0, symName: __ZNSt3__116allocator_traitsINS_9allocatorINS_4pairImPKcEEEEE9constructB7v160006IS5_JEvEEvRS6_PT_DpOT0_, symObjAddr: 0xE238, symBinAddr: 0x10001F008, symSize: 0x2C }
  - { offsetInCU: 0x2A7A5, offset: 0x593D8, size: 0x8, addend: 0x0, symName: __ZNSt3__16vectorINS_4pairImPKcEENS_9allocatorIS4_EEE21_ConstructTransactionD1B7v160006Ev, symObjAddr: 0xE264, symBinAddr: 0x10001F034, symSize: 0x2C }
  - { offsetInCU: 0x2A7CD, offset: 0x59400, size: 0x8, addend: 0x0, symName: __ZNSt3__16vectorINS_4pairImPKcEENS_9allocatorIS4_EEE21_ConstructTransactionC2B7v160006ERS7_m, symObjAddr: 0xE290, symBinAddr: 0x10001F060, symSize: 0x44 }
  - { offsetInCU: 0x2A813, offset: 0x59446, size: 0x8, addend: 0x0, symName: __ZNSt3__19allocatorINS_4pairImPKcEEE9constructB7v160006IS4_JEEEvPT_DpOT0_, symObjAddr: 0xE2D4, symBinAddr: 0x10001F0A4, symSize: 0x28 }
  - { offsetInCU: 0x2A854, offset: 0x59487, size: 0x8, addend: 0x0, symName: __ZNSt3__14pairImPKcEC1B7v160006ILb1ELPv0EEEv, symObjAddr: 0xE2FC, symBinAddr: 0x10001F0CC, symSize: 0x2C }
  - { offsetInCU: 0x2A88D, offset: 0x594C0, size: 0x8, addend: 0x0, symName: __ZNSt3__14pairImPKcEC2B7v160006ILb1ELPv0EEEv, symObjAddr: 0xE328, symBinAddr: 0x10001F0F8, symSize: 0x1C }
  - { offsetInCU: 0x2A8C6, offset: 0x594F9, size: 0x8, addend: 0x0, symName: __ZNSt3__16vectorINS_4pairImPKcEENS_9allocatorIS4_EEE21_ConstructTransactionD2B7v160006Ev, symObjAddr: 0xE344, symBinAddr: 0x10001F114, symSize: 0x20 }
  - { offsetInCU: 0x2A8EE, offset: 0x59521, size: 0x8, addend: 0x0, symName: __ZNKSt3__16vectorINS_4pairImPKcEENS_9allocatorIS4_EEE8max_sizeEv, symObjAddr: 0xE364, symBinAddr: 0x10001F134, symSize: 0x60 }
  - { offsetInCU: 0x2A914, offset: 0x59547, size: 0x8, addend: 0x0, symName: __ZNKSt3__16vectorINS_4pairImPKcEENS_9allocatorIS4_EEE20__throw_length_errorB7v160006Ev, symObjAddr: 0xE3C4, symBinAddr: 0x10001F194, symSize: 0x1C }
  - { offsetInCU: 0x2A942, offset: 0x59575, size: 0x8, addend: 0x0, symName: __ZNSt3__116allocator_traitsINS_9allocatorINS_4pairImPKcEEEEE8max_sizeB7v160006IS6_vEEmRKS6_, symObjAddr: 0xE3E0, symBinAddr: 0x10001F1B0, symSize: 0x24 }
  - { offsetInCU: 0x2A970, offset: 0x595A3, size: 0x8, addend: 0x0, symName: __ZNKSt3__16vectorINS_4pairImPKcEENS_9allocatorIS4_EEE7__allocB7v160006Ev, symObjAddr: 0xE404, symBinAddr: 0x10001F1D4, symSize: 0x28 }
  - { offsetInCU: 0x2A994, offset: 0x595C7, size: 0x8, addend: 0x0, symName: __ZNKSt3__19allocatorINS_4pairImPKcEEE8max_sizeB7v160006Ev, symObjAddr: 0xE42C, symBinAddr: 0x10001F1FC, symSize: 0x14 }
  - { offsetInCU: 0x2A9B8, offset: 0x595EB, size: 0x8, addend: 0x0, symName: __ZNKSt3__117__compressed_pairIPNS_4pairImPKcEENS_9allocatorIS4_EEE6secondB7v160006Ev, symObjAddr: 0xE440, symBinAddr: 0x10001F210, symSize: 0x24 }
  - { offsetInCU: 0x2A9DC, offset: 0x5960F, size: 0x8, addend: 0x0, symName: __ZNKSt3__122__compressed_pair_elemINS_9allocatorINS_4pairImPKcEEEELi1ELb1EE5__getB7v160006Ev, symObjAddr: 0xE464, symBinAddr: 0x10001F234, symSize: 0x14 }
  - { offsetInCU: 0x2AA00, offset: 0x59633, size: 0x8, addend: 0x0, symName: __ZNSt3__114__split_bufferINS_4pairImPKcEERNS_9allocatorIS4_EEEC2EmmS7_, symObjAddr: 0xE478, symBinAddr: 0x10001F248, symSize: 0xD4 }
  - { offsetInCU: 0x2AA73, offset: 0x596A6, size: 0x8, addend: 0x0, symName: __ZNSt3__117__compressed_pairIPNS_4pairImPKcEERNS_9allocatorIS4_EEEC1B7v160006IDnS8_EEOT_OT0_, symObjAddr: 0xE54C, symBinAddr: 0x10001F31C, symSize: 0x3C }
  - { offsetInCU: 0x2AAC9, offset: 0x596FC, size: 0x8, addend: 0x0, symName: __ZNSt3__114__split_bufferINS_4pairImPKcEERNS_9allocatorIS4_EEE7__allocB7v160006Ev, symObjAddr: 0xE5C8, symBinAddr: 0x10001F398, symSize: 0x28 }
  - { offsetInCU: 0x2AAED, offset: 0x59720, size: 0x8, addend: 0x0, symName: __ZNSt3__114__split_bufferINS_4pairImPKcEERNS_9allocatorIS4_EEE9__end_capB7v160006Ev, symObjAddr: 0xE5F0, symBinAddr: 0x10001F3C0, symSize: 0x28 }
  - { offsetInCU: 0x2AB11, offset: 0x59744, size: 0x8, addend: 0x0, symName: __ZNSt3__117__compressed_pairIPNS_4pairImPKcEERNS_9allocatorIS4_EEEC2B7v160006IDnS8_EEOT_OT0_, symObjAddr: 0xE618, symBinAddr: 0x10001F3E8, symSize: 0x48 }
  - { offsetInCU: 0x2AB67, offset: 0x5979A, size: 0x8, addend: 0x0, symName: __ZNSt3__122__compressed_pair_elemIRNS_9allocatorINS_4pairImPKcEEEELi1ELb0EEC2B7v160006IS7_vEEOT_, symObjAddr: 0xE660, symBinAddr: 0x10001F430, symSize: 0x20 }
  - { offsetInCU: 0x2ABA8, offset: 0x597DB, size: 0x8, addend: 0x0, symName: __ZNSt3__19allocatorINS_4pairImPKcEEE8allocateB7v160006Em, symObjAddr: 0xE680, symBinAddr: 0x10001F450, symSize: 0x58 }
  - { offsetInCU: 0x2ABDA, offset: 0x5980D, size: 0x8, addend: 0x0, symName: __ZNSt3__117__compressed_pairIPNS_4pairImPKcEERNS_9allocatorIS4_EEE6secondB7v160006Ev, symObjAddr: 0xE6D8, symBinAddr: 0x10001F4A8, symSize: 0x28 }
  - { offsetInCU: 0x2ABFE, offset: 0x59831, size: 0x8, addend: 0x0, symName: __ZNSt3__122__compressed_pair_elemIRNS_9allocatorINS_4pairImPKcEEEELi1ELb0EE5__getB7v160006Ev, symObjAddr: 0xE700, symBinAddr: 0x10001F4D0, symSize: 0x18 }
  - { offsetInCU: 0x2AC22, offset: 0x59855, size: 0x8, addend: 0x0, symName: __ZNSt3__117__compressed_pairIPNS_4pairImPKcEERNS_9allocatorIS4_EEE5firstB7v160006Ev, symObjAddr: 0xE718, symBinAddr: 0x10001F4E8, symSize: 0x24 }
  - { offsetInCU: 0x2AC50, offset: 0x59883, size: 0x8, addend: 0x0, symName: __ZNSt3__114__split_bufferINS_4pairImPKcEERNS_9allocatorIS4_EEE21_ConstructTransactionC1B7v160006EPPS4_m, symObjAddr: 0xE73C, symBinAddr: 0x10001F50C, symSize: 0x3C }
  - { offsetInCU: 0x2AC94, offset: 0x598C7, size: 0x8, addend: 0x0, symName: __ZNSt3__114__split_bufferINS_4pairImPKcEERNS_9allocatorIS4_EEE21_ConstructTransactionD1B7v160006Ev, symObjAddr: 0xE778, symBinAddr: 0x10001F548, symSize: 0x2C }
  - { offsetInCU: 0x2ACBC, offset: 0x598EF, size: 0x8, addend: 0x0, symName: __ZNSt3__114__split_bufferINS_4pairImPKcEERNS_9allocatorIS4_EEE21_ConstructTransactionC2B7v160006EPPS4_m, symObjAddr: 0xE7A4, symBinAddr: 0x10001F574, symSize: 0x44 }
  - { offsetInCU: 0x2AD00, offset: 0x59933, size: 0x8, addend: 0x0, symName: __ZNSt3__114__split_bufferINS_4pairImPKcEERNS_9allocatorIS4_EEE21_ConstructTransactionD2B7v160006Ev, symObjAddr: 0xE7E8, symBinAddr: 0x10001F5B8, symSize: 0x20 }
  - { offsetInCU: 0x2AD28, offset: 0x5995B, size: 0x8, addend: 0x0, symName: __ZNSt3__116reverse_iteratorIPNS_4pairImPKcEEEC1B7v160006ES5_, symObjAddr: 0xE934, symBinAddr: 0x10001F704, symSize: 0x34 }
  - { offsetInCU: 0x2AD5E, offset: 0x59991, size: 0x8, addend: 0x0, symName: __ZNKSt3__116reverse_iteratorIPNS_4pairImPKcEEE4baseB7v160006Ev, symObjAddr: 0xE968, symBinAddr: 0x10001F738, symSize: 0x18 }
  - { offsetInCU: 0x2AD82, offset: 0x599B5, size: 0x8, addend: 0x0, symName: __ZNKSt3__16vectorINS_4pairImPKcEENS_9allocatorIS4_EEE14__annotate_newB7v160006Em, symObjAddr: 0xE9BC, symBinAddr: 0x10001F78C, symSize: 0xAC }
  - { offsetInCU: 0x2ADB5, offset: 0x599E8, size: 0x8, addend: 0x0, symName: __ZNSt3__129_AllocatorDestroyRangeReverseINS_9allocatorINS_4pairImPKcEEEENS_16reverse_iteratorIPS5_EEEC1B7v160006ERS6_RS9_SC_, symObjAddr: 0xEAC4, symBinAddr: 0x10001F894, symSize: 0x44 }
  - { offsetInCU: 0x2AE0A, offset: 0x59A3D, size: 0x8, addend: 0x0, symName: __ZNSt3__116allocator_traitsINS_9allocatorINS_4pairImPKcEEEEE9constructB7v160006IS5_JS5_EvEEvRS6_PT_DpOT0_, symObjAddr: 0xEB50, symBinAddr: 0x10001F920, symSize: 0x34 }
  - { offsetInCU: 0x2AE62, offset: 0x59A95, size: 0x8, addend: 0x0, symName: __ZNKSt3__116reverse_iteratorIPNS_4pairImPKcEEEdeB7v160006Ev, symObjAddr: 0xEBA8, symBinAddr: 0x10001F978, symSize: 0x28 }
  - { offsetInCU: 0x2AE94, offset: 0x59AC7, size: 0x8, addend: 0x0, symName: __ZNSt3__116reverse_iteratorIPNS_4pairImPKcEEEppB7v160006Ev, symObjAddr: 0xEBD0, symBinAddr: 0x10001F9A0, symSize: 0x20 }
  - { offsetInCU: 0x2AEB8, offset: 0x59AEB, size: 0x8, addend: 0x0, symName: __ZNSt3__128__exception_guard_exceptionsINS_29_AllocatorDestroyRangeReverseINS_9allocatorINS_4pairImPKcEEEENS_16reverse_iteratorIPS6_EEEEE10__completeB7v160006Ev, symObjAddr: 0xEBF0, symBinAddr: 0x10001F9C0, symSize: 0x1C }
  - { offsetInCU: 0x2AEDC, offset: 0x59B0F, size: 0x8, addend: 0x0, symName: __ZNSt3__128__exception_guard_exceptionsINS_29_AllocatorDestroyRangeReverseINS_9allocatorINS_4pairImPKcEEEENS_16reverse_iteratorIPS6_EEEEED1B7v160006Ev, symObjAddr: 0xEC0C, symBinAddr: 0x10001F9DC, symSize: 0x2C }
  - { offsetInCU: 0x2AF04, offset: 0x59B37, size: 0x8, addend: 0x0, symName: __ZNSt3__128__exception_guard_exceptionsINS_29_AllocatorDestroyRangeReverseINS_9allocatorINS_4pairImPKcEEEENS_16reverse_iteratorIPS6_EEEEEC1B7v160006ESB_, symObjAddr: 0xEC38, symBinAddr: 0x10001FA08, symSize: 0x34 }
  - { offsetInCU: 0x2AF3B, offset: 0x59B6E, size: 0x8, addend: 0x0, symName: __ZNSt3__128__exception_guard_exceptionsINS_29_AllocatorDestroyRangeReverseINS_9allocatorINS_4pairImPKcEEEENS_16reverse_iteratorIPS6_EEEEEC2B7v160006ESB_, symObjAddr: 0xEC6C, symBinAddr: 0x10001FA3C, symSize: 0x30 }
  - { offsetInCU: 0x2AF72, offset: 0x59BA5, size: 0x8, addend: 0x0, symName: __ZNSt3__129_AllocatorDestroyRangeReverseINS_9allocatorINS_4pairImPKcEEEENS_16reverse_iteratorIPS5_EEEC2B7v160006ERS6_RS9_SC_, symObjAddr: 0xEC9C, symBinAddr: 0x10001FA6C, symSize: 0x38 }
  - { offsetInCU: 0x2AFC7, offset: 0x59BFA, size: 0x8, addend: 0x0, symName: __ZNSt3__19allocatorINS_4pairImPKcEEE9constructB7v160006IS4_JS4_EEEvPT_DpOT0_, symObjAddr: 0xECD4, symBinAddr: 0x10001FAA4, symSize: 0x28 }
  - { offsetInCU: 0x2B021, offset: 0x59C54, size: 0x8, addend: 0x0, symName: __ZNSt3__119__to_address_helperINS_16reverse_iteratorIPNS_4pairImPKcEEEEvE6__callB7v160006ERKS7_, symObjAddr: 0xECFC, symBinAddr: 0x10001FACC, symSize: 0x38 }
  - { offsetInCU: 0x2B043, offset: 0x59C76, size: 0x8, addend: 0x0, symName: __ZNKSt3__116reverse_iteratorIPNS_4pairImPKcEEEptB7v160006Ev, symObjAddr: 0xED34, symBinAddr: 0x10001FB04, symSize: 0x24 }
  - { offsetInCU: 0x2B067, offset: 0x59C9A, size: 0x8, addend: 0x0, symName: __ZNSt3__128__exception_guard_exceptionsINS_29_AllocatorDestroyRangeReverseINS_9allocatorINS_4pairImPKcEEEENS_16reverse_iteratorIPS6_EEEEED2B7v160006Ev, symObjAddr: 0xED58, symBinAddr: 0x10001FB28, symSize: 0x50 }
  - { offsetInCU: 0x2B08F, offset: 0x59CC2, size: 0x8, addend: 0x0, symName: __ZNKSt3__129_AllocatorDestroyRangeReverseINS_9allocatorINS_4pairImPKcEEEENS_16reverse_iteratorIPS5_EEEclB7v160006Ev, symObjAddr: 0xEDA8, symBinAddr: 0x10001FB78, symSize: 0xB4 }
  - { offsetInCU: 0x2B0B4, offset: 0x59CE7, size: 0x8, addend: 0x0, symName: __ZNSt3__116reverse_iteratorINS0_IPNS_4pairImPKcEEEEEC1B7v160006ES6_, symObjAddr: 0xEECC, symBinAddr: 0x10001FC9C, symSize: 0x3C }
  - { offsetInCU: 0x2B0EA, offset: 0x59D1D, size: 0x8, addend: 0x0, symName: __ZNSt3__116reverse_iteratorINS0_IPNS_4pairImPKcEEEEEppB7v160006Ev, symObjAddr: 0xEF8C, symBinAddr: 0x10001FD5C, symSize: 0x30 }
  - { offsetInCU: 0x2B10E, offset: 0x59D41, size: 0x8, addend: 0x0, symName: __ZNKSt3__116reverse_iteratorINS0_IPNS_4pairImPKcEEEEE4baseB7v160006Ev, symObjAddr: 0xEFBC, symBinAddr: 0x10001FD8C, symSize: 0x24 }
  - { offsetInCU: 0x2B137, offset: 0x59D6A, size: 0x8, addend: 0x0, symName: __ZNSt3__119__to_address_helperINS_16reverse_iteratorINS1_IPNS_4pairImPKcEEEEEEvE6__callB7v160006ERKS8_, symObjAddr: 0xEFE0, symBinAddr: 0x10001FDB0, symSize: 0x38 }
  - { offsetInCU: 0x2B159, offset: 0x59D8C, size: 0x8, addend: 0x0, symName: __ZNKSt3__116reverse_iteratorINS0_IPNS_4pairImPKcEEEEEptB7v160006Ev, symObjAddr: 0xF018, symBinAddr: 0x10001FDE8, symSize: 0x24 }
  - { offsetInCU: 0x2B17D, offset: 0x59DB0, size: 0x8, addend: 0x0, symName: __ZNKSt3__116reverse_iteratorINS0_IPNS_4pairImPKcEEEEEdeB7v160006Ev, symObjAddr: 0xF03C, symBinAddr: 0x10001FE0C, symSize: 0x34 }
  - { offsetInCU: 0x2B1AF, offset: 0x59DE2, size: 0x8, addend: 0x0, symName: __ZNSt3__116reverse_iteratorIPNS_4pairImPKcEEEmmB7v160006Ev, symObjAddr: 0xF070, symBinAddr: 0x10001FE40, symSize: 0x20 }
  - { offsetInCU: 0x2B1D3, offset: 0x59E06, size: 0x8, addend: 0x0, symName: __ZNSt3__116reverse_iteratorINS0_IPNS_4pairImPKcEEEEEC2B7v160006ES6_, symObjAddr: 0xF090, symBinAddr: 0x10001FE60, symSize: 0x2C }
  - { offsetInCU: 0x2B209, offset: 0x59E3C, size: 0x8, addend: 0x0, symName: __ZNSt3__116reverse_iteratorIPNS_4pairImPKcEEEC2B7v160006ES5_, symObjAddr: 0xF0BC, symBinAddr: 0x10001FE8C, symSize: 0x28 }
  - { offsetInCU: 0x2B23F, offset: 0x59E72, size: 0x8, addend: 0x0, symName: __ZNSt3__114__split_bufferINS_4pairImPKcEERNS_9allocatorIS4_EEED2Ev, symObjAddr: 0xF0E4, symBinAddr: 0x10001FEB4, symSize: 0x8C }
  - { offsetInCU: 0x2B26A, offset: 0x59E9D, size: 0x8, addend: 0x0, symName: __ZNSt3__114__split_bufferINS_4pairImPKcEERNS_9allocatorIS4_EEE5clearB7v160006Ev, symObjAddr: 0xF170, symBinAddr: 0x10001FF40, symSize: 0x28 }
  - { offsetInCU: 0x2B28E, offset: 0x59EC1, size: 0x8, addend: 0x0, symName: __ZNKSt3__114__split_bufferINS_4pairImPKcEERNS_9allocatorIS4_EEE8capacityB7v160006Ev, symObjAddr: 0xF198, symBinAddr: 0x10001FF68, symSize: 0x40 }
  - { offsetInCU: 0x2B2B2, offset: 0x59EE5, size: 0x8, addend: 0x0, symName: __ZNSt3__114__split_bufferINS_4pairImPKcEERNS_9allocatorIS4_EEE17__destruct_at_endB7v160006EPS4_, symObjAddr: 0xF1D8, symBinAddr: 0x10001FFA8, symSize: 0x2C }
  - { offsetInCU: 0x2B2E4, offset: 0x59F17, size: 0x8, addend: 0x0, symName: __ZNSt3__114__split_bufferINS_4pairImPKcEERNS_9allocatorIS4_EEE17__destruct_at_endB7v160006EPS4_NS_17integral_constantIbLb0EEE, symObjAddr: 0xF204, symBinAddr: 0x10001FFD4, symSize: 0x80 }
  - { offsetInCU: 0x2B322, offset: 0x59F55, size: 0x8, addend: 0x0, symName: __ZNKSt3__114__split_bufferINS_4pairImPKcEERNS_9allocatorIS4_EEE9__end_capB7v160006Ev, symObjAddr: 0xF284, symBinAddr: 0x100020054, symSize: 0x28 }
  - { offsetInCU: 0x2B346, offset: 0x59F79, size: 0x8, addend: 0x0, symName: __ZNKSt3__117__compressed_pairIPNS_4pairImPKcEERNS_9allocatorIS4_EEE5firstB7v160006Ev, symObjAddr: 0xF2AC, symBinAddr: 0x10002007C, symSize: 0x24 }
  - { offsetInCU: 0x2B36A, offset: 0x59F9D, size: 0x8, addend: 0x0, symName: __ZNSt3__16vectorINS_4pairImPKcEENS_9allocatorIS4_EEE27__invalidate_iterators_pastB7v160006EPS4_, symObjAddr: 0xF2D0, symBinAddr: 0x1000200A0, symSize: 0x14 }
  - { offsetInCU: 0x2B39F, offset: 0x59FD2, size: 0x8, addend: 0x0, symName: __ZNKSt3__16vectorINS_4pairImPKcEENS_9allocatorIS4_EEE17__annotate_shrinkB7v160006Em, symObjAddr: 0xF2E4, symBinAddr: 0x1000200B4, symSize: 0xB4 }
  - { offsetInCU: 0x2B3D2, offset: 0x5A005, size: 0x8, addend: 0x0, symName: __ZNSt3__16vectorINS_7__stateIcEENS_9allocatorIS2_EEE17__destruct_at_endB7v160006EPS2_, symObjAddr: 0xF398, symBinAddr: 0x100020168, symSize: 0x60 }
  - { offsetInCU: 0x2B414, offset: 0x5A047, size: 0x8, addend: 0x0, symName: __ZNSt3__16vectorINS_7__stateIcEENS_9allocatorIS2_EEE27__invalidate_iterators_pastB7v160006EPS2_, symObjAddr: 0xF3F8, symBinAddr: 0x1000201C8, symSize: 0x14 }
  - { offsetInCU: 0x2B449, offset: 0x5A07C, size: 0x8, addend: 0x0, symName: __ZNSt3__16vectorINS_7__stateIcEENS_9allocatorIS2_EEE22__base_destruct_at_endB7v160006EPS2_, symObjAddr: 0xF40C, symBinAddr: 0x1000201DC, symSize: 0x8C }
  - { offsetInCU: 0x2B48B, offset: 0x5A0BE, size: 0x8, addend: 0x0, symName: __ZNKSt3__16vectorINS_7__stateIcEENS_9allocatorIS2_EEE17__annotate_shrinkB7v160006Em, symObjAddr: 0xF498, symBinAddr: 0x100020268, symSize: 0xD0 }
  - { offsetInCU: 0x2B4BE, offset: 0x5A0F1, size: 0x8, addend: 0x0, symName: __ZNSt3__17__stateIcEC2ERKS1_, symObjAddr: 0xF568, symBinAddr: 0x100020338, symSize: 0xA4 }
  - { offsetInCU: 0x2B4F3, offset: 0x5A126, size: 0x8, addend: 0x0, symName: __ZNSt3__16vectorINS_9sub_matchIPKcEENS_9allocatorIS4_EEEC1ERKS7_, symObjAddr: 0xF60C, symBinAddr: 0x1000203DC, symSize: 0x34 }
  - { offsetInCU: 0x2B52D, offset: 0x5A160, size: 0x8, addend: 0x0, symName: __ZNSt3__16vectorINS_4pairImPKcEENS_9allocatorIS4_EEEC1ERKS7_, symObjAddr: 0xF640, symBinAddr: 0x100020410, symSize: 0x34 }
  - { offsetInCU: 0x2B567, offset: 0x5A19A, size: 0x8, addend: 0x0, symName: __ZNSt3__16vectorINS_9sub_matchIPKcEENS_9allocatorIS4_EEEC2ERKS7_, symObjAddr: 0xF674, symBinAddr: 0x100020444, symSize: 0x110 }
  - { offsetInCU: 0x2B5C5, offset: 0x5A1F8, size: 0x8, addend: 0x0, symName: __ZNSt3__116allocator_traitsINS_9allocatorINS_9sub_matchIPKcEEEEE37select_on_container_copy_constructionB7v160006IS6_vvEES6_RKS6_, symObjAddr: 0xF784, symBinAddr: 0x100020554, symSize: 0x10 }
  - { offsetInCU: 0x2B5F5, offset: 0x5A228, size: 0x8, addend: 0x0, symName: __ZNSt3__16vectorINS_9sub_matchIPKcEENS_9allocatorIS4_EEE18__construct_at_endIPS4_Li0EEEvT_SA_m, symObjAddr: 0xF7D4, symBinAddr: 0x1000205A4, symSize: 0x8C }
  - { offsetInCU: 0x2B667, offset: 0x5A29A, size: 0x8, addend: 0x0, symName: __ZNSt3__128__exception_guard_exceptionsINS_6vectorINS_9sub_matchIPKcEENS_9allocatorIS5_EEE16__destroy_vectorEE10__completeB7v160006Ev, symObjAddr: 0xF860, symBinAddr: 0x100020630, symSize: 0x1C }
  - { offsetInCU: 0x2B68B, offset: 0x5A2BE, size: 0x8, addend: 0x0, symName: __ZNSt3__128__exception_guard_exceptionsINS_6vectorINS_9sub_matchIPKcEENS_9allocatorIS5_EEE16__destroy_vectorEED1B7v160006Ev, symObjAddr: 0xF87C, symBinAddr: 0x10002064C, symSize: 0x2C }
  - { offsetInCU: 0x2B6B3, offset: 0x5A2E6, size: 0x8, addend: 0x0, symName: __ZNSt3__128__exception_guard_exceptionsINS_6vectorINS_9sub_matchIPKcEENS_9allocatorIS5_EEE16__destroy_vectorEEC1B7v160006ES9_, symObjAddr: 0xF8A8, symBinAddr: 0x100020678, symSize: 0x34 }
  - { offsetInCU: 0x2B6E9, offset: 0x5A31C, size: 0x8, addend: 0x0, symName: __ZNSt3__128__exception_guard_exceptionsINS_6vectorINS_9sub_matchIPKcEENS_9allocatorIS5_EEE16__destroy_vectorEEC2B7v160006ES9_, symObjAddr: 0xF8DC, symBinAddr: 0x1000206AC, symSize: 0x24 }
  - { offsetInCU: 0x2B71F, offset: 0x5A352, size: 0x8, addend: 0x0, symName: __ZNSt3__129_AllocatorDestroyRangeReverseINS_9allocatorINS_9sub_matchIPKcEEEEPS5_EC1B7v160006ERS6_RS7_SA_, symObjAddr: 0xFA40, symBinAddr: 0x100020810, symSize: 0x44 }
  - { offsetInCU: 0x2B774, offset: 0x5A3A7, size: 0x8, addend: 0x0, symName: __ZNSt3__116allocator_traitsINS_9allocatorINS_9sub_matchIPKcEEEEE9constructB7v160006IS5_JRS5_EvEEvRS6_PT_DpOT0_, symObjAddr: 0xFA84, symBinAddr: 0x100020854, symSize: 0x34 }
  - { offsetInCU: 0x2B7CC, offset: 0x5A3FF, size: 0x8, addend: 0x0, symName: __ZNSt3__128__exception_guard_exceptionsINS_29_AllocatorDestroyRangeReverseINS_9allocatorINS_9sub_matchIPKcEEEEPS6_EEE10__completeB7v160006Ev, symObjAddr: 0xFAB8, symBinAddr: 0x100020888, symSize: 0x1C }
  - { offsetInCU: 0x2B7F0, offset: 0x5A423, size: 0x8, addend: 0x0, symName: __ZNSt3__128__exception_guard_exceptionsINS_29_AllocatorDestroyRangeReverseINS_9allocatorINS_9sub_matchIPKcEEEEPS6_EEED1B7v160006Ev, symObjAddr: 0xFAD4, symBinAddr: 0x1000208A4, symSize: 0x2C }
  - { offsetInCU: 0x2B818, offset: 0x5A44B, size: 0x8, addend: 0x0, symName: __ZNSt3__128__exception_guard_exceptionsINS_29_AllocatorDestroyRangeReverseINS_9allocatorINS_9sub_matchIPKcEEEEPS6_EEEC1B7v160006ES9_, symObjAddr: 0xFB00, symBinAddr: 0x1000208D0, symSize: 0x34 }
  - { offsetInCU: 0x2B84F, offset: 0x5A482, size: 0x8, addend: 0x0, symName: __ZNSt3__128__exception_guard_exceptionsINS_29_AllocatorDestroyRangeReverseINS_9allocatorINS_9sub_matchIPKcEEEEPS6_EEEC2B7v160006ES9_, symObjAddr: 0xFB34, symBinAddr: 0x100020904, symSize: 0x30 }
  - { offsetInCU: 0x2B886, offset: 0x5A4B9, size: 0x8, addend: 0x0, symName: __ZNSt3__129_AllocatorDestroyRangeReverseINS_9allocatorINS_9sub_matchIPKcEEEEPS5_EC2B7v160006ERS6_RS7_SA_, symObjAddr: 0xFB64, symBinAddr: 0x100020934, symSize: 0x38 }
  - { offsetInCU: 0x2B8DB, offset: 0x5A50E, size: 0x8, addend: 0x0, symName: __ZNSt3__19allocatorINS_9sub_matchIPKcEEE9constructB7v160006IS4_JRS4_EEEvPT_DpOT0_, symObjAddr: 0xFB9C, symBinAddr: 0x10002096C, symSize: 0x30 }
  - { offsetInCU: 0x2B930, offset: 0x5A563, size: 0x8, addend: 0x0, symName: __ZNSt3__128__exception_guard_exceptionsINS_29_AllocatorDestroyRangeReverseINS_9allocatorINS_9sub_matchIPKcEEEEPS6_EEED2B7v160006Ev, symObjAddr: 0xFBCC, symBinAddr: 0x10002099C, symSize: 0x50 }
  - { offsetInCU: 0x2B958, offset: 0x5A58B, size: 0x8, addend: 0x0, symName: __ZNKSt3__129_AllocatorDestroyRangeReverseINS_9allocatorINS_9sub_matchIPKcEEEEPS5_EclB7v160006Ev, symObjAddr: 0xFC1C, symBinAddr: 0x1000209EC, symSize: 0x68 }
  - { offsetInCU: 0x2B97C, offset: 0x5A5AF, size: 0x8, addend: 0x0, symName: __ZNSt3__128__exception_guard_exceptionsINS_6vectorINS_9sub_matchIPKcEENS_9allocatorIS5_EEE16__destroy_vectorEED2B7v160006Ev, symObjAddr: 0xFCF4, symBinAddr: 0x100020AC4, symSize: 0x50 }
  - { offsetInCU: 0x2B9A4, offset: 0x5A5D7, size: 0x8, addend: 0x0, symName: __ZNSt3__16vectorINS_4pairImPKcEENS_9allocatorIS4_EEEC2ERKS7_, symObjAddr: 0xFD44, symBinAddr: 0x100020B14, symSize: 0x110 }
  - { offsetInCU: 0x2BA02, offset: 0x5A635, size: 0x8, addend: 0x0, symName: __ZNSt3__116allocator_traitsINS_9allocatorINS_4pairImPKcEEEEE37select_on_container_copy_constructionB7v160006IS6_vvEES6_RKS6_, symObjAddr: 0xFE54, symBinAddr: 0x100020C24, symSize: 0x10 }
  - { offsetInCU: 0x2BA32, offset: 0x5A665, size: 0x8, addend: 0x0, symName: __ZNSt3__16vectorINS_4pairImPKcEENS_9allocatorIS4_EEE11__vallocateB7v160006Em, symObjAddr: 0xFEA4, symBinAddr: 0x100020C74, symSize: 0xAC }
  - { offsetInCU: 0x2BA74, offset: 0x5A6A7, size: 0x8, addend: 0x0, symName: __ZNSt3__16vectorINS_4pairImPKcEENS_9allocatorIS4_EEE18__construct_at_endIPS4_Li0EEEvT_SA_m, symObjAddr: 0xFF50, symBinAddr: 0x100020D20, symSize: 0x8C }
  - { offsetInCU: 0x2BAE6, offset: 0x5A719, size: 0x8, addend: 0x0, symName: __ZNSt3__128__exception_guard_exceptionsINS_6vectorINS_4pairImPKcEENS_9allocatorIS5_EEE16__destroy_vectorEE10__completeB7v160006Ev, symObjAddr: 0xFFDC, symBinAddr: 0x100020DAC, symSize: 0x1C }
  - { offsetInCU: 0x2BB0A, offset: 0x5A73D, size: 0x8, addend: 0x0, symName: __ZNSt3__128__exception_guard_exceptionsINS_6vectorINS_4pairImPKcEENS_9allocatorIS5_EEE16__destroy_vectorEED1B7v160006Ev, symObjAddr: 0xFFF8, symBinAddr: 0x100020DC8, symSize: 0x2C }
  - { offsetInCU: 0x2BB32, offset: 0x5A765, size: 0x8, addend: 0x0, symName: __ZNSt3__128__exception_guard_exceptionsINS_6vectorINS_4pairImPKcEENS_9allocatorIS5_EEE16__destroy_vectorEEC1B7v160006ES9_, symObjAddr: 0x10024, symBinAddr: 0x100020DF4, symSize: 0x34 }
  - { offsetInCU: 0x2BB68, offset: 0x5A79B, size: 0x8, addend: 0x0, symName: __ZNSt3__128__exception_guard_exceptionsINS_6vectorINS_4pairImPKcEENS_9allocatorIS5_EEE16__destroy_vectorEEC2B7v160006ES9_, symObjAddr: 0x10058, symBinAddr: 0x100020E28, symSize: 0x24 }
  - { offsetInCU: 0x2BB9E, offset: 0x5A7D1, size: 0x8, addend: 0x0, symName: __ZNSt3__129_AllocatorDestroyRangeReverseINS_9allocatorINS_4pairImPKcEEEEPS5_EC1B7v160006ERS6_RS7_SA_, symObjAddr: 0x101BC, symBinAddr: 0x100020F8C, symSize: 0x44 }
  - { offsetInCU: 0x2BBF3, offset: 0x5A826, size: 0x8, addend: 0x0, symName: __ZNSt3__116allocator_traitsINS_9allocatorINS_4pairImPKcEEEEE9constructB7v160006IS5_JRS5_EvEEvRS6_PT_DpOT0_, symObjAddr: 0x10200, symBinAddr: 0x100020FD0, symSize: 0x34 }
  - { offsetInCU: 0x2BC4B, offset: 0x5A87E, size: 0x8, addend: 0x0, symName: __ZNSt3__128__exception_guard_exceptionsINS_29_AllocatorDestroyRangeReverseINS_9allocatorINS_4pairImPKcEEEEPS6_EEE10__completeB7v160006Ev, symObjAddr: 0x10234, symBinAddr: 0x100021004, symSize: 0x1C }
  - { offsetInCU: 0x2BC6F, offset: 0x5A8A2, size: 0x8, addend: 0x0, symName: __ZNSt3__128__exception_guard_exceptionsINS_29_AllocatorDestroyRangeReverseINS_9allocatorINS_4pairImPKcEEEEPS6_EEED1B7v160006Ev, symObjAddr: 0x10250, symBinAddr: 0x100021020, symSize: 0x2C }
  - { offsetInCU: 0x2BC97, offset: 0x5A8CA, size: 0x8, addend: 0x0, symName: __ZNSt3__128__exception_guard_exceptionsINS_29_AllocatorDestroyRangeReverseINS_9allocatorINS_4pairImPKcEEEEPS6_EEEC1B7v160006ES9_, symObjAddr: 0x1027C, symBinAddr: 0x10002104C, symSize: 0x34 }
  - { offsetInCU: 0x2BCCE, offset: 0x5A901, size: 0x8, addend: 0x0, symName: __ZNSt3__128__exception_guard_exceptionsINS_29_AllocatorDestroyRangeReverseINS_9allocatorINS_4pairImPKcEEEEPS6_EEEC2B7v160006ES9_, symObjAddr: 0x102B0, symBinAddr: 0x100021080, symSize: 0x30 }
  - { offsetInCU: 0x2BD05, offset: 0x5A938, size: 0x8, addend: 0x0, symName: __ZNSt3__129_AllocatorDestroyRangeReverseINS_9allocatorINS_4pairImPKcEEEEPS5_EC2B7v160006ERS6_RS7_SA_, symObjAddr: 0x102E0, symBinAddr: 0x1000210B0, symSize: 0x38 }
  - { offsetInCU: 0x2BD5A, offset: 0x5A98D, size: 0x8, addend: 0x0, symName: __ZNSt3__19allocatorINS_4pairImPKcEEE9constructB7v160006IS4_JRS4_EEEvPT_DpOT0_, symObjAddr: 0x10318, symBinAddr: 0x1000210E8, symSize: 0x28 }
  - { offsetInCU: 0x2BDAF, offset: 0x5A9E2, size: 0x8, addend: 0x0, symName: __ZNSt3__128__exception_guard_exceptionsINS_29_AllocatorDestroyRangeReverseINS_9allocatorINS_4pairImPKcEEEEPS6_EEED2B7v160006Ev, symObjAddr: 0x10340, symBinAddr: 0x100021110, symSize: 0x50 }
  - { offsetInCU: 0x2BDD7, offset: 0x5AA0A, size: 0x8, addend: 0x0, symName: __ZNKSt3__129_AllocatorDestroyRangeReverseINS_9allocatorINS_4pairImPKcEEEEPS5_EclB7v160006Ev, symObjAddr: 0x10390, symBinAddr: 0x100021160, symSize: 0x68 }
  - { offsetInCU: 0x2BDFB, offset: 0x5AA2E, size: 0x8, addend: 0x0, symName: __ZNSt3__128__exception_guard_exceptionsINS_6vectorINS_4pairImPKcEENS_9allocatorIS5_EEE16__destroy_vectorEED2B7v160006Ev, symObjAddr: 0x10468, symBinAddr: 0x100021238, symSize: 0x50 }
  - { offsetInCU: 0x2BE23, offset: 0x5AA56, size: 0x8, addend: 0x0, symName: __ZNSt3__16vectorINS_7__stateIcEENS_9allocatorIS2_EEED2B7v160006Ev, symObjAddr: 0x104B8, symBinAddr: 0x100021288, symSize: 0x44 }
  - { offsetInCU: 0x2BE4B, offset: 0x5AA7E, size: 0x8, addend: 0x0, symName: __ZNSt3__16vectorINS_7__stateIcEENS_9allocatorIS2_EEE16__destroy_vectorC1ERS5_, symObjAddr: 0x104FC, symBinAddr: 0x1000212CC, symSize: 0x34 }
  - { offsetInCU: 0x2BE82, offset: 0x5AAB5, size: 0x8, addend: 0x0, symName: __ZNSt3__16vectorINS_7__stateIcEENS_9allocatorIS2_EEE16__destroy_vectorclB7v160006Ev, symObjAddr: 0x10530, symBinAddr: 0x100021300, symSize: 0x9C }
  - { offsetInCU: 0x2BEA6, offset: 0x5AAD9, size: 0x8, addend: 0x0, symName: __ZNSt3__16vectorINS_7__stateIcEENS_9allocatorIS2_EEE16__destroy_vectorC2ERS5_, symObjAddr: 0x105CC, symBinAddr: 0x10002139C, symSize: 0x20 }
  - { offsetInCU: 0x2BEDD, offset: 0x5AB10, size: 0x8, addend: 0x0, symName: __ZNSt3__16vectorINS_7__stateIcEENS_9allocatorIS2_EEE7__clearB7v160006Ev, symObjAddr: 0x105FC, symBinAddr: 0x1000213CC, symSize: 0x28 }
  - { offsetInCU: 0x2BF01, offset: 0x5AB34, size: 0x8, addend: 0x0, symName: __ZNSt3__14pairIPKcS2_EaSB7v160006ERKS3_, symObjAddr: 0x10624, symBinAddr: 0x1000213F4, symSize: 0x30 }
  - { offsetInCU: 0x2BF34, offset: 0x5AB67, size: 0x8, addend: 0x0, symName: __ZNSt3__113match_resultsIPKcNS_9allocatorINS_9sub_matchIS2_EEEEED2Ev, symObjAddr: 0x10654, symBinAddr: 0x100021424, symSize: 0x2C }
  - { offsetInCU: 0x2BF60, offset: 0x5AB93, size: 0x8, addend: 0x0, symName: __ZNSt3__111basic_regexIcNS_12regex_traitsIcEEE28__push_match_any_but_newlineEv, symObjAddr: 0x10680, symBinAddr: 0x100021450, symSize: 0xA0 }
  - { offsetInCU: 0x2BF86, offset: 0x5ABB9, size: 0x8, addend: 0x0, symName: __ZNSt3__111basic_regexIcNS_12regex_traitsIcEEE19__parse_atom_escapeIPKcEET_S7_S7_, symObjAddr: 0x10720, symBinAddr: 0x1000214F0, symSize: 0x144 }
  - { offsetInCU: 0x2C000, offset: 0x5AC33, size: 0x8, addend: 0x0, symName: __ZNSt3__111basic_regexIcNS_12regex_traitsIcEEE26__parse_bracket_expressionIPKcEET_S7_S7_, symObjAddr: 0x10864, symBinAddr: 0x100021634, symSize: 0x1E8 }
  - { offsetInCU: 0x2C07A, offset: 0x5ACAD, size: 0x8, addend: 0x0, symName: __ZNSt3__111basic_regexIcNS_12regex_traitsIcEEE33__push_begin_marked_subexpressionEv, symObjAddr: 0x10A4C, symBinAddr: 0x10002181C, symSize: 0xD4 }
  - { offsetInCU: 0x2C0A0, offset: 0x5ACD3, size: 0x8, addend: 0x0, symName: __ZNSt3__111basic_regexIcNS_12regex_traitsIcEEE31__push_end_marked_subexpressionEj, symObjAddr: 0x10B20, symBinAddr: 0x1000218F0, symSize: 0xD0 }
  - { offsetInCU: 0x2C0D5, offset: 0x5AD08, size: 0x8, addend: 0x0, symName: __ZNSt3__111basic_regexIcNS_12regex_traitsIcEEE25__parse_pattern_characterIPKcEET_S7_S7_, symObjAddr: 0x10C50, symBinAddr: 0x100021A20, symSize: 0xA8 }
  - { offsetInCU: 0x2C136, offset: 0x5AD69, size: 0x8, addend: 0x0, symName: __ZNSt3__123__match_any_but_newlineIcEC1B7v160006EPNS_6__nodeIcEE, symObjAddr: 0x10E60, symBinAddr: 0x100021C30, symSize: 0x34 }
  - { offsetInCU: 0x2C16D, offset: 0x5ADA0, size: 0x8, addend: 0x0, symName: __ZNSt3__123__match_any_but_newlineIcEC2B7v160006EPNS_6__nodeIcEE, symObjAddr: 0x10E94, symBinAddr: 0x100021C64, symSize: 0x4C }
  - { offsetInCU: 0x2C1A4, offset: 0x5ADD7, size: 0x8, addend: 0x0, symName: __ZNSt3__123__match_any_but_newlineIcED1Ev, symObjAddr: 0x10EE0, symBinAddr: 0x100021CB0, symSize: 0x2C }
  - { offsetInCU: 0x2C1D0, offset: 0x5AE03, size: 0x8, addend: 0x0, symName: __ZNSt3__123__match_any_but_newlineIcED0Ev, symObjAddr: 0x10F0C, symBinAddr: 0x100021CDC, symSize: 0x30 }
  - { offsetInCU: 0x2C1FC, offset: 0x5AE2F, size: 0x8, addend: 0x0, symName: __ZNSt3__123__match_any_but_newlineIcED2Ev, symObjAddr: 0x10F3C, symBinAddr: 0x100021D0C, symSize: 0x2C }
  - { offsetInCU: 0x2C228, offset: 0x5AE5B, size: 0x8, addend: 0x0, symName: __ZNSt3__111basic_regexIcNS_12regex_traitsIcEEE22__parse_decimal_escapeIPKcEET_S7_S7_, symObjAddr: 0x10FC8, symBinAddr: 0x100021D98, symSize: 0x1EC }
  - { offsetInCU: 0x2C293, offset: 0x5AEC6, size: 0x8, addend: 0x0, symName: __ZNSt3__111basic_regexIcNS_12regex_traitsIcEEE30__parse_character_class_escapeIPKcEET_S7_S7_, symObjAddr: 0x111B4, symBinAddr: 0x100021F84, symSize: 0x1BC }
  - { offsetInCU: 0x2C2FE, offset: 0x5AF31, size: 0x8, addend: 0x0, symName: __ZNSt3__111basic_regexIcNS_12regex_traitsIcEEE24__parse_character_escapeIPKcEET_S7_S7_PNS_12basic_stringIcNS_11char_traitsIcEENS_9allocatorIcEEEE, symObjAddr: 0x11440, symBinAddr: 0x100022210, symSize: 0x5D4 }
  - { offsetInCU: 0x2C396, offset: 0x5AFC9, size: 0x8, addend: 0x0, symName: __ZNSt3__111basic_regexIcNS_12regex_traitsIcEEE11__push_charEc, symObjAddr: 0x11B38, symBinAddr: 0x100022908, symSize: 0x1D4 }
  - { offsetInCU: 0x2C3CB, offset: 0x5AFFE, size: 0x8, addend: 0x0, symName: __ZNSt3__114numeric_limitsIjE3maxB7v160006Ev, symObjAddr: 0x11D0C, symBinAddr: 0x100022ADC, symSize: 0x14 }
  - { offsetInCU: 0x2C3DF, offset: 0x5B012, size: 0x8, addend: 0x0, symName: __ZNSt3__111basic_regexIcNS_12regex_traitsIcEEE15__push_back_refEi, symObjAddr: 0x11D80, symBinAddr: 0x100022B50, symSize: 0x1D4 }
  - { offsetInCU: 0x2C414, offset: 0x5B047, size: 0x8, addend: 0x0, symName: __ZNKSt3__111basic_regexIcNS_12regex_traitsIcEEE5flagsB7v160006Ev, symObjAddr: 0x11F54, symBinAddr: 0x100022D24, symSize: 0x18 }
  - { offsetInCU: 0x2C456, offset: 0x5B089, size: 0x8, addend: 0x0, symName: __ZNSt3__118__match_char_icaseIcNS_12regex_traitsIcEEEC1B7v160006ERKS2_cPNS_6__nodeIcEE, symObjAddr: 0x11F6C, symBinAddr: 0x100022D3C, symSize: 0x44 }
  - { offsetInCU: 0x2C4C9, offset: 0x5B0FC, size: 0x8, addend: 0x0, symName: __ZNSt3__120__match_char_collateIcNS_12regex_traitsIcEEEC1B7v160006ERKS2_cPNS_6__nodeIcEE, symObjAddr: 0x11FB0, symBinAddr: 0x100022D80, symSize: 0x44 }
  - { offsetInCU: 0x2C53C, offset: 0x5B16F, size: 0x8, addend: 0x0, symName: __ZNSt3__112__match_charIcEC1B7v160006EcPNS_6__nodeIcEE, symObjAddr: 0x11FF4, symBinAddr: 0x100022DC4, symSize: 0x3C }
  - { offsetInCU: 0x2C582, offset: 0x5B1B5, size: 0x8, addend: 0x0, symName: __ZNSt3__118__match_char_icaseIcNS_12regex_traitsIcEEEC2B7v160006ERKS2_cPNS_6__nodeIcEE, symObjAddr: 0x12030, symBinAddr: 0x100022E00, symSize: 0xB0 }
  - { offsetInCU: 0x2C5D7, offset: 0x5B20A, size: 0x8, addend: 0x0, symName: __ZNKSt3__112regex_traitsIcE16translate_nocaseEc, symObjAddr: 0x120E0, symBinAddr: 0x100022EB0, symSize: 0x34 }
  - { offsetInCU: 0x2C60C, offset: 0x5B23F, size: 0x8, addend: 0x0, symName: __ZNSt3__118__match_char_icaseIcNS_12regex_traitsIcEEED1Ev, symObjAddr: 0x12114, symBinAddr: 0x100022EE4, symSize: 0x2C }
  - { offsetInCU: 0x2C638, offset: 0x5B26B, size: 0x8, addend: 0x0, symName: __ZNSt3__118__match_char_icaseIcNS_12regex_traitsIcEEED0Ev, symObjAddr: 0x12140, symBinAddr: 0x100022F10, symSize: 0x30 }
  - { offsetInCU: 0x2C664, offset: 0x5B297, size: 0x8, addend: 0x0, symName: __ZNKSt3__118__match_char_icaseIcNS_12regex_traitsIcEEE6__execERNS_7__stateIcEE, symObjAddr: 0x12170, symBinAddr: 0x100022F40, symSize: 0xC0 }
  - { offsetInCU: 0x2C699, offset: 0x5B2CC, size: 0x8, addend: 0x0, symName: __ZNKSt3__15ctypeIcE7tolowerB7v160006Ec, symObjAddr: 0x12230, symBinAddr: 0x100023000, symSize: 0x38 }
  - { offsetInCU: 0x2C6CC, offset: 0x5B2FF, size: 0x8, addend: 0x0, symName: __ZNSt3__118__match_char_icaseIcNS_12regex_traitsIcEEED2Ev, symObjAddr: 0x12268, symBinAddr: 0x100023038, symSize: 0x48 }
  - { offsetInCU: 0x2C6F8, offset: 0x5B32B, size: 0x8, addend: 0x0, symName: __ZNSt3__120__match_char_collateIcNS_12regex_traitsIcEEEC2B7v160006ERKS2_cPNS_6__nodeIcEE, symObjAddr: 0x122B0, symBinAddr: 0x100023080, symSize: 0xB0 }
  - { offsetInCU: 0x2C74D, offset: 0x5B380, size: 0x8, addend: 0x0, symName: __ZNKSt3__112regex_traitsIcE9translateB7v160006Ec, symObjAddr: 0x12360, symBinAddr: 0x100023130, symSize: 0x18 }
  - { offsetInCU: 0x2C780, offset: 0x5B3B3, size: 0x8, addend: 0x0, symName: __ZNSt3__120__match_char_collateIcNS_12regex_traitsIcEEED1Ev, symObjAddr: 0x12378, symBinAddr: 0x100023148, symSize: 0x2C }
  - { offsetInCU: 0x2C7AC, offset: 0x5B3DF, size: 0x8, addend: 0x0, symName: __ZNSt3__120__match_char_collateIcNS_12regex_traitsIcEEED0Ev, symObjAddr: 0x123A4, symBinAddr: 0x100023174, symSize: 0x30 }
  - { offsetInCU: 0x2C7D8, offset: 0x5B40B, size: 0x8, addend: 0x0, symName: __ZNKSt3__120__match_char_collateIcNS_12regex_traitsIcEEE6__execERNS_7__stateIcEE, symObjAddr: 0x123D4, symBinAddr: 0x1000231A4, symSize: 0xC0 }
  - { offsetInCU: 0x2C80D, offset: 0x5B440, size: 0x8, addend: 0x0, symName: __ZNSt3__120__match_char_collateIcNS_12regex_traitsIcEEED2Ev, symObjAddr: 0x12494, symBinAddr: 0x100023264, symSize: 0x48 }
  - { offsetInCU: 0x2C839, offset: 0x5B46C, size: 0x8, addend: 0x0, symName: __ZNSt3__112__match_charIcEC2B7v160006EcPNS_6__nodeIcEE, symObjAddr: 0x124DC, symBinAddr: 0x1000232AC, symSize: 0x58 }
  - { offsetInCU: 0x2C87F, offset: 0x5B4B2, size: 0x8, addend: 0x0, symName: __ZNSt3__112__match_charIcED1Ev, symObjAddr: 0x12534, symBinAddr: 0x100023304, symSize: 0x2C }
  - { offsetInCU: 0x2C8AB, offset: 0x5B4DE, size: 0x8, addend: 0x0, symName: __ZNSt3__112__match_charIcED0Ev, symObjAddr: 0x12560, symBinAddr: 0x100023330, symSize: 0x30 }
  - { offsetInCU: 0x2C8D7, offset: 0x5B50A, size: 0x8, addend: 0x0, symName: __ZNKSt3__112__match_charIcE6__execERNS_7__stateIcEE, symObjAddr: 0x12590, symBinAddr: 0x100023360, symSize: 0xB4 }
  - { offsetInCU: 0x2C90C, offset: 0x5B53F, size: 0x8, addend: 0x0, symName: __ZNSt3__112__match_charIcED2Ev, symObjAddr: 0x12644, symBinAddr: 0x100023414, symSize: 0x2C }
  - { offsetInCU: 0x2C938, offset: 0x5B56B, size: 0x8, addend: 0x0, symName: __ZNSt3__123__libcpp_numeric_limitsIjLb1EE3maxB7v160006Ev, symObjAddr: 0x12670, symBinAddr: 0x100023440, symSize: 0x8 }
  - { offsetInCU: 0x2C95F, offset: 0x5B592, size: 0x8, addend: 0x0, symName: __ZNSt3__116__back_ref_icaseIcNS_12regex_traitsIcEEEC1B7v160006ERKS2_jPNS_6__nodeIcEE, symObjAddr: 0x12678, symBinAddr: 0x100023448, symSize: 0x44 }
  - { offsetInCU: 0x2C9C8, offset: 0x5B5FB, size: 0x8, addend: 0x0, symName: __ZNSt3__118__back_ref_collateIcNS_12regex_traitsIcEEEC1B7v160006ERKS2_jPNS_6__nodeIcEE, symObjAddr: 0x126BC, symBinAddr: 0x10002348C, symSize: 0x44 }
  - { offsetInCU: 0x2CA31, offset: 0x5B664, size: 0x8, addend: 0x0, symName: __ZNSt3__110__back_refIcEC1B7v160006EjPNS_6__nodeIcEE, symObjAddr: 0x12700, symBinAddr: 0x1000234D0, symSize: 0x3C }
  - { offsetInCU: 0x2CA77, offset: 0x5B6AA, size: 0x8, addend: 0x0, symName: __ZNSt3__116__back_ref_icaseIcNS_12regex_traitsIcEEEC2B7v160006ERKS2_jPNS_6__nodeIcEE, symObjAddr: 0x1273C, symBinAddr: 0x10002350C, symSize: 0x6C }
  - { offsetInCU: 0x2CACC, offset: 0x5B6FF, size: 0x8, addend: 0x0, symName: __ZNSt3__116__back_ref_icaseIcNS_12regex_traitsIcEEED1Ev, symObjAddr: 0x127A8, symBinAddr: 0x100023578, symSize: 0x2C }
  - { offsetInCU: 0x2CAF8, offset: 0x5B72B, size: 0x8, addend: 0x0, symName: __ZNSt3__116__back_ref_icaseIcNS_12regex_traitsIcEEED0Ev, symObjAddr: 0x127D4, symBinAddr: 0x1000235A4, symSize: 0x30 }
  - { offsetInCU: 0x2CB24, offset: 0x5B757, size: 0x8, addend: 0x0, symName: __ZNKSt3__116__back_ref_icaseIcNS_12regex_traitsIcEEE6__execERNS_7__stateIcEE, symObjAddr: 0x12804, symBinAddr: 0x1000235D4, symSize: 0x18C }
  - { offsetInCU: 0x2CBB5, offset: 0x5B7E8, size: 0x8, addend: 0x0, symName: __ZNSt3__116__back_ref_icaseIcNS_12regex_traitsIcEEED2Ev, symObjAddr: 0x12990, symBinAddr: 0x100023760, symSize: 0x48 }
  - { offsetInCU: 0x2CBE1, offset: 0x5B814, size: 0x8, addend: 0x0, symName: __ZNSt3__118__back_ref_collateIcNS_12regex_traitsIcEEEC2B7v160006ERKS2_jPNS_6__nodeIcEE, symObjAddr: 0x129D8, symBinAddr: 0x1000237A8, symSize: 0x6C }
  - { offsetInCU: 0x2CC36, offset: 0x5B869, size: 0x8, addend: 0x0, symName: __ZNSt3__118__back_ref_collateIcNS_12regex_traitsIcEEED1Ev, symObjAddr: 0x12A44, symBinAddr: 0x100023814, symSize: 0x2C }
  - { offsetInCU: 0x2CC62, offset: 0x5B895, size: 0x8, addend: 0x0, symName: __ZNSt3__118__back_ref_collateIcNS_12regex_traitsIcEEED0Ev, symObjAddr: 0x12A70, symBinAddr: 0x100023840, symSize: 0x30 }
  - { offsetInCU: 0x2CC8E, offset: 0x5B8C1, size: 0x8, addend: 0x0, symName: __ZNKSt3__118__back_ref_collateIcNS_12regex_traitsIcEEE6__execERNS_7__stateIcEE, symObjAddr: 0x12AA0, symBinAddr: 0x100023870, symSize: 0x18C }
  - { offsetInCU: 0x2CD1F, offset: 0x5B952, size: 0x8, addend: 0x0, symName: __ZNSt3__118__back_ref_collateIcNS_12regex_traitsIcEEED2Ev, symObjAddr: 0x12C2C, symBinAddr: 0x1000239FC, symSize: 0x48 }
  - { offsetInCU: 0x2CD4B, offset: 0x5B97E, size: 0x8, addend: 0x0, symName: __ZNSt3__110__back_refIcEC2B7v160006EjPNS_6__nodeIcEE, symObjAddr: 0x12C74, symBinAddr: 0x100023A44, symSize: 0x58 }
  - { offsetInCU: 0x2CD91, offset: 0x5B9C4, size: 0x8, addend: 0x0, symName: __ZNSt3__110__back_refIcED1Ev, symObjAddr: 0x12CCC, symBinAddr: 0x100023A9C, symSize: 0x2C }
  - { offsetInCU: 0x2CDBD, offset: 0x5B9F0, size: 0x8, addend: 0x0, symName: __ZNSt3__110__back_refIcED0Ev, symObjAddr: 0x12CF8, symBinAddr: 0x100023AC8, symSize: 0x30 }
  - { offsetInCU: 0x2CDE9, offset: 0x5BA1C, size: 0x8, addend: 0x0, symName: __ZNKSt3__110__back_refIcE6__execERNS_7__stateIcEE, symObjAddr: 0x12D28, symBinAddr: 0x100023AF8, symSize: 0x150 }
  - { offsetInCU: 0x2CE4B, offset: 0x5BA7E, size: 0x8, addend: 0x0, symName: __ZNSt3__110__back_refIcED2Ev, symObjAddr: 0x12E78, symBinAddr: 0x100023C48, symSize: 0x2C }
  - { offsetInCU: 0x2CE81, offset: 0x5BAB4, size: 0x8, addend: 0x0, symName: __ZNKSt3__110__equal_toclB7v160006IccEEbRKT_RKT0_, symObjAddr: 0x12F84, symBinAddr: 0x100023D54, symSize: 0x34 }
  - { offsetInCU: 0x2CED3, offset: 0x5BB06, size: 0x8, addend: 0x0, symName: __ZNSt3__111basic_regexIcNS_12regex_traitsIcEEE21__start_matching_listEb, symObjAddr: 0x12FB8, symBinAddr: 0x100023D88, symSize: 0x114 }
  - { offsetInCU: 0x2CF17, offset: 0x5BB4A, size: 0x8, addend: 0x0, symName: __ZNSt3__120__bracket_expressionIcNS_12regex_traitsIcEEE11__add_classB7v160006Ej, symObjAddr: 0x130CC, symBinAddr: 0x100023E9C, symSize: 0x28 }
  - { offsetInCU: 0x2CF4A, offset: 0x5BB7D, size: 0x8, addend: 0x0, symName: __ZNSt3__120__bracket_expressionIcNS_12regex_traitsIcEEE10__add_charB7v160006Ec, symObjAddr: 0x130F4, symBinAddr: 0x100023EC4, symSize: 0xBC }
  - { offsetInCU: 0x2CF7D, offset: 0x5BBB0, size: 0x8, addend: 0x0, symName: __ZNSt3__120__bracket_expressionIcNS_12regex_traitsIcEEEC1B7v160006ERKS2_PNS_6__nodeIcEEbbb, symObjAddr: 0x131B0, symBinAddr: 0x100023F80, symSize: 0x70 }
  - { offsetInCU: 0x2CFF0, offset: 0x5BC23, size: 0x8, addend: 0x0, symName: __ZNSt3__120__bracket_expressionIcNS_12regex_traitsIcEEEC2B7v160006ERKS2_PNS_6__nodeIcEEbbb, symObjAddr: 0x13220, symBinAddr: 0x100023FF0, symSize: 0x1CC }
  - { offsetInCU: 0x2D063, offset: 0x5BC96, size: 0x8, addend: 0x0, symName: __ZNSt3__16vectorIcNS_9allocatorIcEEEC1B7v160006Ev, symObjAddr: 0x133EC, symBinAddr: 0x1000241BC, symSize: 0x2C }
  - { offsetInCU: 0x2D08B, offset: 0x5BCBE, size: 0x8, addend: 0x0, symName: __ZNSt3__16vectorINS_4pairINS_12basic_stringIcNS_11char_traitsIcEENS_9allocatorIcEEEES7_EENS5_IS8_EEEC1B7v160006Ev, symObjAddr: 0x13418, symBinAddr: 0x1000241E8, symSize: 0x2C }
  - { offsetInCU: 0x2D0B3, offset: 0x5BCE6, size: 0x8, addend: 0x0, symName: __ZNSt3__16vectorINS_4pairIccEENS_9allocatorIS2_EEEC1B7v160006Ev, symObjAddr: 0x13444, symBinAddr: 0x100024214, symSize: 0x2C }
  - { offsetInCU: 0x2D0DB, offset: 0x5BD0E, size: 0x8, addend: 0x0, symName: __ZNSt3__16vectorINS_12basic_stringIcNS_11char_traitsIcEENS_9allocatorIcEEEENS4_IS6_EEEC1B7v160006Ev, symObjAddr: 0x13470, symBinAddr: 0x100024240, symSize: 0x2C }
  - { offsetInCU: 0x2D103, offset: 0x5BD36, size: 0x8, addend: 0x0, symName: __ZNKSt3__112regex_traitsIcE6getlocB7v160006Ev, symObjAddr: 0x134D0, symBinAddr: 0x10002426C, symSize: 0x38 }
  - { offsetInCU: 0x2D127, offset: 0x5BD5A, size: 0x8, addend: 0x0, symName: __ZNSt3__16vectorINS_12basic_stringIcNS_11char_traitsIcEENS_9allocatorIcEEEENS4_IS6_EEED1B7v160006Ev, symObjAddr: 0x13508, symBinAddr: 0x1000242A4, symSize: 0x2C }
  - { offsetInCU: 0x2D14F, offset: 0x5BD82, size: 0x8, addend: 0x0, symName: __ZNSt3__16vectorINS_4pairIccEENS_9allocatorIS2_EEED1B7v160006Ev, symObjAddr: 0x13534, symBinAddr: 0x1000242D0, symSize: 0x2C }
  - { offsetInCU: 0x2D177, offset: 0x5BDAA, size: 0x8, addend: 0x0, symName: __ZNSt3__16vectorINS_4pairINS_12basic_stringIcNS_11char_traitsIcEENS_9allocatorIcEEEES7_EENS5_IS8_EEED1B7v160006Ev, symObjAddr: 0x13560, symBinAddr: 0x1000242FC, symSize: 0x2C }
  - { offsetInCU: 0x2D19F, offset: 0x5BDD2, size: 0x8, addend: 0x0, symName: __ZNSt3__16vectorIcNS_9allocatorIcEEED1B7v160006Ev, symObjAddr: 0x1358C, symBinAddr: 0x100024328, symSize: 0x2C }
  - { offsetInCU: 0x2D1C7, offset: 0x5BDFA, size: 0x8, addend: 0x0, symName: __ZNSt3__120__bracket_expressionIcNS_12regex_traitsIcEEED1Ev, symObjAddr: 0x135B8, symBinAddr: 0x100024354, symSize: 0x2C }
  - { offsetInCU: 0x2D1F3, offset: 0x5BE26, size: 0x8, addend: 0x0, symName: __ZNSt3__120__bracket_expressionIcNS_12regex_traitsIcEEED0Ev, symObjAddr: 0x135E4, symBinAddr: 0x100024380, symSize: 0x30 }
  - { offsetInCU: 0x2D21F, offset: 0x5BE52, size: 0x8, addend: 0x0, symName: __ZNKSt3__120__bracket_expressionIcNS_12regex_traitsIcEEE6__execERNS_7__stateIcEE, symObjAddr: 0x13614, symBinAddr: 0x1000243B0, symSize: 0x8D4 }
  - { offsetInCU: 0x2D41F, offset: 0x5C052, size: 0x8, addend: 0x0, symName: __ZNSt3__16vectorIcNS_9allocatorIcEEEC2B7v160006Ev, symObjAddr: 0x13EE8, symBinAddr: 0x100024C84, symSize: 0x58 }
  - { offsetInCU: 0x2D447, offset: 0x5C07A, size: 0x8, addend: 0x0, symName: __ZNSt3__117__compressed_pairIPcNS_9allocatorIcEEEC1B7v160006IDnNS_18__default_init_tagEEEOT_OT0_, symObjAddr: 0x13F40, symBinAddr: 0x100024CDC, symSize: 0x3C }
  - { offsetInCU: 0x2D49D, offset: 0x5C0D0, size: 0x8, addend: 0x0, symName: __ZNSt3__117__compressed_pairIPcNS_9allocatorIcEEEC2B7v160006IDnNS_18__default_init_tagEEEOT_OT0_, symObjAddr: 0x13F8C, symBinAddr: 0x100024D28, symSize: 0x40 }
  - { offsetInCU: 0x2D4F3, offset: 0x5C126, size: 0x8, addend: 0x0, symName: __ZNSt3__122__compressed_pair_elemIPcLi0ELb0EEC2B7v160006IDnvEEOT_, symObjAddr: 0x13FCC, symBinAddr: 0x100024D68, symSize: 0x1C }
  - { offsetInCU: 0x2D534, offset: 0x5C167, size: 0x8, addend: 0x0, symName: __ZNSt3__16vectorINS_4pairINS_12basic_stringIcNS_11char_traitsIcEENS_9allocatorIcEEEES7_EENS5_IS8_EEEC2B7v160006Ev, symObjAddr: 0x13FE8, symBinAddr: 0x100024D84, symSize: 0x58 }
  - { offsetInCU: 0x2D55C, offset: 0x5C18F, size: 0x8, addend: 0x0, symName: __ZNSt3__117__compressed_pairIPNS_4pairINS_12basic_stringIcNS_11char_traitsIcEENS_9allocatorIcEEEES7_EENS5_IS8_EEEC1B7v160006IDnNS_18__default_init_tagEEEOT_OT0_, symObjAddr: 0x14040, symBinAddr: 0x100024DDC, symSize: 0x3C }
  - { offsetInCU: 0x2D5B2, offset: 0x5C1E5, size: 0x8, addend: 0x0, symName: __ZNSt3__117__compressed_pairIPNS_4pairINS_12basic_stringIcNS_11char_traitsIcEENS_9allocatorIcEEEES7_EENS5_IS8_EEEC2B7v160006IDnNS_18__default_init_tagEEEOT_OT0_, symObjAddr: 0x1408C, symBinAddr: 0x100024E28, symSize: 0x40 }
  - { offsetInCU: 0x2D608, offset: 0x5C23B, size: 0x8, addend: 0x0, symName: __ZNSt3__122__compressed_pair_elemIPNS_4pairINS_12basic_stringIcNS_11char_traitsIcEENS_9allocatorIcEEEES7_EELi0ELb0EEC2B7v160006IDnvEEOT_, symObjAddr: 0x140CC, symBinAddr: 0x100024E68, symSize: 0x1C }
  - { offsetInCU: 0x2D649, offset: 0x5C27C, size: 0x8, addend: 0x0, symName: __ZNSt3__122__compressed_pair_elemINS_9allocatorINS_4pairINS_12basic_stringIcNS_11char_traitsIcEENS1_IcEEEES7_EEEELi1ELb1EEC2B7v160006ENS_18__default_init_tagE, symObjAddr: 0x140E8, symBinAddr: 0x100024E84, symSize: 0x2C }
  - { offsetInCU: 0x2D67B, offset: 0x5C2AE, size: 0x8, addend: 0x0, symName: __ZNSt3__19allocatorINS_4pairINS_12basic_stringIcNS_11char_traitsIcEENS0_IcEEEES6_EEEC2B7v160006Ev, symObjAddr: 0x14114, symBinAddr: 0x100024EB0, symSize: 0x2C }
  - { offsetInCU: 0x2D6A3, offset: 0x5C2D6, size: 0x8, addend: 0x0, symName: __ZNSt3__116__non_trivial_ifILb1ENS_9allocatorINS_4pairINS_12basic_stringIcNS_11char_traitsIcEENS1_IcEEEES7_EEEEEC2B7v160006Ev, symObjAddr: 0x14140, symBinAddr: 0x100024EDC, symSize: 0x14 }
  - { offsetInCU: 0x2D6CB, offset: 0x5C2FE, size: 0x8, addend: 0x0, symName: __ZNSt3__16vectorINS_4pairIccEENS_9allocatorIS2_EEEC2B7v160006Ev, symObjAddr: 0x14154, symBinAddr: 0x100024EF0, symSize: 0x58 }
  - { offsetInCU: 0x2D6F3, offset: 0x5C326, size: 0x8, addend: 0x0, symName: __ZNSt3__117__compressed_pairIPNS_4pairIccEENS_9allocatorIS2_EEEC1B7v160006IDnNS_18__default_init_tagEEEOT_OT0_, symObjAddr: 0x141AC, symBinAddr: 0x100024F48, symSize: 0x3C }
  - { offsetInCU: 0x2D749, offset: 0x5C37C, size: 0x8, addend: 0x0, symName: __ZNSt3__117__compressed_pairIPNS_4pairIccEENS_9allocatorIS2_EEEC2B7v160006IDnNS_18__default_init_tagEEEOT_OT0_, symObjAddr: 0x141F8, symBinAddr: 0x100024F94, symSize: 0x40 }
  - { offsetInCU: 0x2D79F, offset: 0x5C3D2, size: 0x8, addend: 0x0, symName: __ZNSt3__122__compressed_pair_elemIPNS_4pairIccEELi0ELb0EEC2B7v160006IDnvEEOT_, symObjAddr: 0x14238, symBinAddr: 0x100024FD4, symSize: 0x1C }
  - { offsetInCU: 0x2D7E0, offset: 0x5C413, size: 0x8, addend: 0x0, symName: __ZNSt3__122__compressed_pair_elemINS_9allocatorINS_4pairIccEEEELi1ELb1EEC2B7v160006ENS_18__default_init_tagE, symObjAddr: 0x14254, symBinAddr: 0x100024FF0, symSize: 0x2C }
  - { offsetInCU: 0x2D812, offset: 0x5C445, size: 0x8, addend: 0x0, symName: __ZNSt3__19allocatorINS_4pairIccEEEC2B7v160006Ev, symObjAddr: 0x14280, symBinAddr: 0x10002501C, symSize: 0x2C }
  - { offsetInCU: 0x2D83A, offset: 0x5C46D, size: 0x8, addend: 0x0, symName: __ZNSt3__116__non_trivial_ifILb1ENS_9allocatorINS_4pairIccEEEEEC2B7v160006Ev, symObjAddr: 0x142AC, symBinAddr: 0x100025048, symSize: 0x14 }
  - { offsetInCU: 0x2D862, offset: 0x5C495, size: 0x8, addend: 0x0, symName: __ZNSt3__16vectorINS_12basic_stringIcNS_11char_traitsIcEENS_9allocatorIcEEEENS4_IS6_EEEC2B7v160006Ev, symObjAddr: 0x142C0, symBinAddr: 0x10002505C, symSize: 0x58 }
  - { offsetInCU: 0x2D88A, offset: 0x5C4BD, size: 0x8, addend: 0x0, symName: __ZNSt3__117__compressed_pairIPNS_12basic_stringIcNS_11char_traitsIcEENS_9allocatorIcEEEENS4_IS6_EEEC1B7v160006IDnNS_18__default_init_tagEEEOT_OT0_, symObjAddr: 0x14318, symBinAddr: 0x1000250B4, symSize: 0x3C }
  - { offsetInCU: 0x2D8E0, offset: 0x5C513, size: 0x8, addend: 0x0, symName: __ZNSt3__117__compressed_pairIPNS_12basic_stringIcNS_11char_traitsIcEENS_9allocatorIcEEEENS4_IS6_EEEC2B7v160006IDnNS_18__default_init_tagEEEOT_OT0_, symObjAddr: 0x14364, symBinAddr: 0x100025100, symSize: 0x40 }
  - { offsetInCU: 0x2D936, offset: 0x5C569, size: 0x8, addend: 0x0, symName: __ZNSt3__122__compressed_pair_elemIPNS_12basic_stringIcNS_11char_traitsIcEENS_9allocatorIcEEEELi0ELb0EEC2B7v160006IDnvEEOT_, symObjAddr: 0x143A4, symBinAddr: 0x100025140, symSize: 0x1C }
  - { offsetInCU: 0x2D977, offset: 0x5C5AA, size: 0x8, addend: 0x0, symName: __ZNSt3__122__compressed_pair_elemINS_9allocatorINS_12basic_stringIcNS_11char_traitsIcEENS1_IcEEEEEELi1ELb1EEC2B7v160006ENS_18__default_init_tagE, symObjAddr: 0x143C0, symBinAddr: 0x10002515C, symSize: 0x2C }
  - { offsetInCU: 0x2D9A9, offset: 0x5C5DC, size: 0x8, addend: 0x0, symName: __ZNSt3__19allocatorINS_12basic_stringIcNS_11char_traitsIcEENS0_IcEEEEEC2B7v160006Ev, symObjAddr: 0x143EC, symBinAddr: 0x100025188, symSize: 0x2C }
  - { offsetInCU: 0x2D9D1, offset: 0x5C604, size: 0x8, addend: 0x0, symName: __ZNSt3__116__non_trivial_ifILb1ENS_9allocatorINS_12basic_stringIcNS_11char_traitsIcEENS1_IcEEEEEEEC2B7v160006Ev, symObjAddr: 0x14418, symBinAddr: 0x1000251B4, symSize: 0x14 }
  - { offsetInCU: 0x2D9F9, offset: 0x5C62C, size: 0x8, addend: 0x0, symName: __ZNSt3__16vectorINS_12basic_stringIcNS_11char_traitsIcEENS_9allocatorIcEEEENS4_IS6_EEED2B7v160006Ev, symObjAddr: 0x144D8, symBinAddr: 0x1000251C8, symSize: 0x44 }
  - { offsetInCU: 0x2DA21, offset: 0x5C654, size: 0x8, addend: 0x0, symName: __ZNSt3__16vectorINS_12basic_stringIcNS_11char_traitsIcEENS_9allocatorIcEEEENS4_IS6_EEE16__destroy_vectorC1ERS8_, symObjAddr: 0x1451C, symBinAddr: 0x10002520C, symSize: 0x34 }
  - { offsetInCU: 0x2DA58, offset: 0x5C68B, size: 0x8, addend: 0x0, symName: __ZNSt3__16vectorINS_12basic_stringIcNS_11char_traitsIcEENS_9allocatorIcEEEENS4_IS6_EEE16__destroy_vectorclB7v160006Ev, symObjAddr: 0x14550, symBinAddr: 0x100025240, symSize: 0x9C }
  - { offsetInCU: 0x2DA7C, offset: 0x5C6AF, size: 0x8, addend: 0x0, symName: __ZNSt3__16vectorINS_12basic_stringIcNS_11char_traitsIcEENS_9allocatorIcEEEENS4_IS6_EEE16__destroy_vectorC2ERS8_, symObjAddr: 0x145EC, symBinAddr: 0x1000252DC, symSize: 0x20 }
  - { offsetInCU: 0x2DAB3, offset: 0x5C6E6, size: 0x8, addend: 0x0, symName: __ZNKSt3__16vectorINS_12basic_stringIcNS_11char_traitsIcEENS_9allocatorIcEEEENS4_IS6_EEE17__annotate_deleteB7v160006Ev, symObjAddr: 0x1460C, symBinAddr: 0x1000252FC, symSize: 0xD4 }
  - { offsetInCU: 0x2DAD7, offset: 0x5C70A, size: 0x8, addend: 0x0, symName: __ZNSt3__16vectorINS_12basic_stringIcNS_11char_traitsIcEENS_9allocatorIcEEEENS4_IS6_EEE7__clearB7v160006Ev, symObjAddr: 0x146F0, symBinAddr: 0x1000253E0, symSize: 0x28 }
  - { offsetInCU: 0x2DAFB, offset: 0x5C72E, size: 0x8, addend: 0x0, symName: __ZNSt3__116allocator_traitsINS_9allocatorINS_12basic_stringIcNS_11char_traitsIcEENS1_IcEEEEEEE10deallocateB7v160006ERS7_PS6_m, symObjAddr: 0x14718, symBinAddr: 0x100025408, symSize: 0x34 }
  - { offsetInCU: 0x2DB3C, offset: 0x5C76F, size: 0x8, addend: 0x0, symName: __ZNSt3__16vectorINS_12basic_stringIcNS_11char_traitsIcEENS_9allocatorIcEEEENS4_IS6_EEE7__allocB7v160006Ev, symObjAddr: 0x1474C, symBinAddr: 0x10002543C, symSize: 0x28 }
  - { offsetInCU: 0x2DB60, offset: 0x5C793, size: 0x8, addend: 0x0, symName: __ZNKSt3__16vectorINS_12basic_stringIcNS_11char_traitsIcEENS_9allocatorIcEEEENS4_IS6_EEE8capacityB7v160006Ev, symObjAddr: 0x14774, symBinAddr: 0x100025464, symSize: 0x40 }
  - { offsetInCU: 0x2DB84, offset: 0x5C7B7, size: 0x8, addend: 0x0, symName: __ZNKSt3__16vectorINS_12basic_stringIcNS_11char_traitsIcEENS_9allocatorIcEEEENS4_IS6_EEE31__annotate_contiguous_containerB7v160006EPKvSA_SA_SA_, symObjAddr: 0x147B4, symBinAddr: 0x1000254A4, symSize: 0x20 }
  - { offsetInCU: 0x2DBD8, offset: 0x5C80B, size: 0x8, addend: 0x0, symName: __ZNKSt3__16vectorINS_12basic_stringIcNS_11char_traitsIcEENS_9allocatorIcEEEENS4_IS6_EEE4dataB7v160006Ev, symObjAddr: 0x147D4, symBinAddr: 0x1000254C4, symSize: 0x28 }
  - { offsetInCU: 0x2DBFC, offset: 0x5C82F, size: 0x8, addend: 0x0, symName: __ZNKSt3__16vectorINS_12basic_stringIcNS_11char_traitsIcEENS_9allocatorIcEEEENS4_IS6_EEE4sizeB7v160006Ev, symObjAddr: 0x147FC, symBinAddr: 0x1000254EC, symSize: 0x28 }
  - { offsetInCU: 0x2DC20, offset: 0x5C853, size: 0x8, addend: 0x0, symName: __ZNSt3__16vectorINS_12basic_stringIcNS_11char_traitsIcEENS_9allocatorIcEEEENS4_IS6_EEE22__base_destruct_at_endB7v160006EPS6_, symObjAddr: 0x14838, symBinAddr: 0x100025528, symSize: 0x8C }
  - { offsetInCU: 0x2DC62, offset: 0x5C895, size: 0x8, addend: 0x0, symName: __ZNSt3__116allocator_traitsINS_9allocatorINS_12basic_stringIcNS_11char_traitsIcEENS1_IcEEEEEEE7destroyB7v160006IS6_vEEvRS7_PT_, symObjAddr: 0x148C4, symBinAddr: 0x1000255B4, symSize: 0x2C }
  - { offsetInCU: 0x2DC9F, offset: 0x5C8D2, size: 0x8, addend: 0x0, symName: __ZNSt3__19allocatorINS_12basic_stringIcNS_11char_traitsIcEENS0_IcEEEEE7destroyB7v160006EPS5_, symObjAddr: 0x148F0, symBinAddr: 0x1000255E0, symSize: 0x28 }
  - { offsetInCU: 0x2DCD1, offset: 0x5C904, size: 0x8, addend: 0x0, symName: __ZNSt3__19allocatorINS_12basic_stringIcNS_11char_traitsIcEENS0_IcEEEEE10deallocateB7v160006EPS5_m, symObjAddr: 0x14918, symBinAddr: 0x100025608, symSize: 0x44 }
  - { offsetInCU: 0x2DD11, offset: 0x5C944, size: 0x8, addend: 0x0, symName: __ZNSt3__117__compressed_pairIPNS_12basic_stringIcNS_11char_traitsIcEENS_9allocatorIcEEEENS4_IS6_EEE6secondB7v160006Ev, symObjAddr: 0x1495C, symBinAddr: 0x10002564C, symSize: 0x24 }
  - { offsetInCU: 0x2DD35, offset: 0x5C968, size: 0x8, addend: 0x0, symName: __ZNSt3__122__compressed_pair_elemINS_9allocatorINS_12basic_stringIcNS_11char_traitsIcEENS1_IcEEEEEELi1ELb1EE5__getB7v160006Ev, symObjAddr: 0x14980, symBinAddr: 0x100025670, symSize: 0x14 }
  - { offsetInCU: 0x2DD59, offset: 0x5C98C, size: 0x8, addend: 0x0, symName: __ZNKSt3__16vectorINS_12basic_stringIcNS_11char_traitsIcEENS_9allocatorIcEEEENS4_IS6_EEE9__end_capB7v160006Ev, symObjAddr: 0x14994, symBinAddr: 0x100025684, symSize: 0x28 }
  - { offsetInCU: 0x2DD7D, offset: 0x5C9B0, size: 0x8, addend: 0x0, symName: __ZNKSt3__117__compressed_pairIPNS_12basic_stringIcNS_11char_traitsIcEENS_9allocatorIcEEEENS4_IS6_EEE5firstB7v160006Ev, symObjAddr: 0x149BC, symBinAddr: 0x1000256AC, symSize: 0x24 }
  - { offsetInCU: 0x2DDA1, offset: 0x5C9D4, size: 0x8, addend: 0x0, symName: __ZNKSt3__122__compressed_pair_elemIPNS_12basic_stringIcNS_11char_traitsIcEENS_9allocatorIcEEEELi0ELb0EE5__getB7v160006Ev, symObjAddr: 0x149E0, symBinAddr: 0x1000256D0, symSize: 0x14 }
  - { offsetInCU: 0x2DDC5, offset: 0x5C9F8, size: 0x8, addend: 0x0, symName: __ZNSt3__16vectorINS_4pairIccEENS_9allocatorIS2_EEED2B7v160006Ev, symObjAddr: 0x149F4, symBinAddr: 0x1000256E4, symSize: 0x44 }
  - { offsetInCU: 0x2DDED, offset: 0x5CA20, size: 0x8, addend: 0x0, symName: __ZNSt3__16vectorINS_4pairIccEENS_9allocatorIS2_EEE16__destroy_vectorC1ERS5_, symObjAddr: 0x14A38, symBinAddr: 0x100025728, symSize: 0x34 }
  - { offsetInCU: 0x2DE24, offset: 0x5CA57, size: 0x8, addend: 0x0, symName: __ZNSt3__16vectorINS_4pairIccEENS_9allocatorIS2_EEE16__destroy_vectorclB7v160006Ev, symObjAddr: 0x14A6C, symBinAddr: 0x10002575C, symSize: 0x9C }
  - { offsetInCU: 0x2DE48, offset: 0x5CA7B, size: 0x8, addend: 0x0, symName: __ZNSt3__16vectorINS_4pairIccEENS_9allocatorIS2_EEE16__destroy_vectorC2ERS5_, symObjAddr: 0x14B08, symBinAddr: 0x1000257F8, symSize: 0x20 }
  - { offsetInCU: 0x2DE7F, offset: 0x5CAB2, size: 0x8, addend: 0x0, symName: __ZNKSt3__16vectorINS_4pairIccEENS_9allocatorIS2_EEE17__annotate_deleteB7v160006Ev, symObjAddr: 0x14B28, symBinAddr: 0x100025818, symSize: 0xB8 }
  - { offsetInCU: 0x2DEA3, offset: 0x5CAD6, size: 0x8, addend: 0x0, symName: __ZNSt3__16vectorINS_4pairIccEENS_9allocatorIS2_EEE7__clearB7v160006Ev, symObjAddr: 0x14BF0, symBinAddr: 0x1000258E0, symSize: 0x28 }
  - { offsetInCU: 0x2DEC7, offset: 0x5CAFA, size: 0x8, addend: 0x0, symName: __ZNSt3__116allocator_traitsINS_9allocatorINS_4pairIccEEEEE10deallocateB7v160006ERS4_PS3_m, symObjAddr: 0x14C18, symBinAddr: 0x100025908, symSize: 0x34 }
  - { offsetInCU: 0x2DF08, offset: 0x5CB3B, size: 0x8, addend: 0x0, symName: __ZNSt3__16vectorINS_4pairIccEENS_9allocatorIS2_EEE7__allocB7v160006Ev, symObjAddr: 0x14C4C, symBinAddr: 0x10002593C, symSize: 0x28 }
  - { offsetInCU: 0x2DF2C, offset: 0x5CB5F, size: 0x8, addend: 0x0, symName: __ZNKSt3__16vectorINS_4pairIccEENS_9allocatorIS2_EEE8capacityB7v160006Ev, symObjAddr: 0x14C74, symBinAddr: 0x100025964, symSize: 0x40 }
  - { offsetInCU: 0x2DF50, offset: 0x5CB83, size: 0x8, addend: 0x0, symName: __ZNKSt3__16vectorINS_4pairIccEENS_9allocatorIS2_EEE31__annotate_contiguous_containerB7v160006EPKvS7_S7_S7_, symObjAddr: 0x14CB4, symBinAddr: 0x1000259A4, symSize: 0x20 }
  - { offsetInCU: 0x2DFA4, offset: 0x5CBD7, size: 0x8, addend: 0x0, symName: __ZNKSt3__16vectorINS_4pairIccEENS_9allocatorIS2_EEE4dataB7v160006Ev, symObjAddr: 0x14CD4, symBinAddr: 0x1000259C4, symSize: 0x28 }
  - { offsetInCU: 0x2DFC8, offset: 0x5CBFB, size: 0x8, addend: 0x0, symName: __ZNKSt3__16vectorINS_4pairIccEENS_9allocatorIS2_EEE4sizeB7v160006Ev, symObjAddr: 0x14CFC, symBinAddr: 0x1000259EC, symSize: 0x28 }
  - { offsetInCU: 0x2DFEC, offset: 0x5CC1F, size: 0x8, addend: 0x0, symName: __ZNSt3__16vectorINS_4pairIccEENS_9allocatorIS2_EEE22__base_destruct_at_endB7v160006EPS2_, symObjAddr: 0x14D38, symBinAddr: 0x100025A28, symSize: 0x8C }
  - { offsetInCU: 0x2E02E, offset: 0x5CC61, size: 0x8, addend: 0x0, symName: __ZNSt3__116allocator_traitsINS_9allocatorINS_4pairIccEEEEE7destroyB7v160006IS3_vEEvRS4_PT_, symObjAddr: 0x14DC4, symBinAddr: 0x100025AB4, symSize: 0x2C }
  - { offsetInCU: 0x2E06B, offset: 0x5CC9E, size: 0x8, addend: 0x0, symName: __ZNSt3__19allocatorINS_4pairIccEEE7destroyB7v160006EPS2_, symObjAddr: 0x14DF0, symBinAddr: 0x100025AE0, symSize: 0x14 }
  - { offsetInCU: 0x2E09D, offset: 0x5CCD0, size: 0x8, addend: 0x0, symName: __ZNSt3__19allocatorINS_4pairIccEEE10deallocateB7v160006EPS2_m, symObjAddr: 0x14E04, symBinAddr: 0x100025AF4, symSize: 0x40 }
  - { offsetInCU: 0x2E0DD, offset: 0x5CD10, size: 0x8, addend: 0x0, symName: __ZNSt3__117__compressed_pairIPNS_4pairIccEENS_9allocatorIS2_EEE6secondB7v160006Ev, symObjAddr: 0x14E44, symBinAddr: 0x100025B34, symSize: 0x24 }
  - { offsetInCU: 0x2E101, offset: 0x5CD34, size: 0x8, addend: 0x0, symName: __ZNSt3__122__compressed_pair_elemINS_9allocatorINS_4pairIccEEEELi1ELb1EE5__getB7v160006Ev, symObjAddr: 0x14E68, symBinAddr: 0x100025B58, symSize: 0x14 }
  - { offsetInCU: 0x2E125, offset: 0x5CD58, size: 0x8, addend: 0x0, symName: __ZNKSt3__16vectorINS_4pairIccEENS_9allocatorIS2_EEE9__end_capB7v160006Ev, symObjAddr: 0x14E7C, symBinAddr: 0x100025B6C, symSize: 0x28 }
  - { offsetInCU: 0x2E149, offset: 0x5CD7C, size: 0x8, addend: 0x0, symName: __ZNKSt3__117__compressed_pairIPNS_4pairIccEENS_9allocatorIS2_EEE5firstB7v160006Ev, symObjAddr: 0x14EA4, symBinAddr: 0x100025B94, symSize: 0x24 }
  - { offsetInCU: 0x2E16D, offset: 0x5CDA0, size: 0x8, addend: 0x0, symName: __ZNKSt3__122__compressed_pair_elemIPNS_4pairIccEELi0ELb0EE5__getB7v160006Ev, symObjAddr: 0x14EC8, symBinAddr: 0x100025BB8, symSize: 0x14 }
  - { offsetInCU: 0x2E191, offset: 0x5CDC4, size: 0x8, addend: 0x0, symName: __ZNSt3__16vectorINS_4pairINS_12basic_stringIcNS_11char_traitsIcEENS_9allocatorIcEEEES7_EENS5_IS8_EEED2B7v160006Ev, symObjAddr: 0x14EDC, symBinAddr: 0x100025BCC, symSize: 0x44 }
  - { offsetInCU: 0x2E1B9, offset: 0x5CDEC, size: 0x8, addend: 0x0, symName: __ZNSt3__16vectorINS_4pairINS_12basic_stringIcNS_11char_traitsIcEENS_9allocatorIcEEEES7_EENS5_IS8_EEE16__destroy_vectorC1ERSA_, symObjAddr: 0x14F20, symBinAddr: 0x100025C10, symSize: 0x34 }
  - { offsetInCU: 0x2E1F0, offset: 0x5CE23, size: 0x8, addend: 0x0, symName: __ZNSt3__16vectorINS_4pairINS_12basic_stringIcNS_11char_traitsIcEENS_9allocatorIcEEEES7_EENS5_IS8_EEE16__destroy_vectorclB7v160006Ev, symObjAddr: 0x14F54, symBinAddr: 0x100025C44, symSize: 0x9C }
  - { offsetInCU: 0x2E214, offset: 0x5CE47, size: 0x8, addend: 0x0, symName: __ZNSt3__16vectorINS_4pairINS_12basic_stringIcNS_11char_traitsIcEENS_9allocatorIcEEEES7_EENS5_IS8_EEE16__destroy_vectorC2ERSA_, symObjAddr: 0x14FF0, symBinAddr: 0x100025CE0, symSize: 0x20 }
  - { offsetInCU: 0x2E24B, offset: 0x5CE7E, size: 0x8, addend: 0x0, symName: __ZNKSt3__16vectorINS_4pairINS_12basic_stringIcNS_11char_traitsIcEENS_9allocatorIcEEEES7_EENS5_IS8_EEE17__annotate_deleteB7v160006Ev, symObjAddr: 0x15010, symBinAddr: 0x100025D00, symSize: 0xD4 }
  - { offsetInCU: 0x2E26F, offset: 0x5CEA2, size: 0x8, addend: 0x0, symName: __ZNSt3__16vectorINS_4pairINS_12basic_stringIcNS_11char_traitsIcEENS_9allocatorIcEEEES7_EENS5_IS8_EEE7__clearB7v160006Ev, symObjAddr: 0x150F4, symBinAddr: 0x100025DE4, symSize: 0x28 }
  - { offsetInCU: 0x2E293, offset: 0x5CEC6, size: 0x8, addend: 0x0, symName: __ZNSt3__116allocator_traitsINS_9allocatorINS_4pairINS_12basic_stringIcNS_11char_traitsIcEENS1_IcEEEES7_EEEEE10deallocateB7v160006ERS9_PS8_m, symObjAddr: 0x1511C, symBinAddr: 0x100025E0C, symSize: 0x34 }
  - { offsetInCU: 0x2E2D4, offset: 0x5CF07, size: 0x8, addend: 0x0, symName: __ZNSt3__16vectorINS_4pairINS_12basic_stringIcNS_11char_traitsIcEENS_9allocatorIcEEEES7_EENS5_IS8_EEE7__allocB7v160006Ev, symObjAddr: 0x15150, symBinAddr: 0x100025E40, symSize: 0x28 }
  - { offsetInCU: 0x2E2F8, offset: 0x5CF2B, size: 0x8, addend: 0x0, symName: __ZNKSt3__16vectorINS_4pairINS_12basic_stringIcNS_11char_traitsIcEENS_9allocatorIcEEEES7_EENS5_IS8_EEE8capacityB7v160006Ev, symObjAddr: 0x15178, symBinAddr: 0x100025E68, symSize: 0x40 }
  - { offsetInCU: 0x2E31C, offset: 0x5CF4F, size: 0x8, addend: 0x0, symName: __ZNKSt3__16vectorINS_4pairINS_12basic_stringIcNS_11char_traitsIcEENS_9allocatorIcEEEES7_EENS5_IS8_EEE31__annotate_contiguous_containerB7v160006EPKvSC_SC_SC_, symObjAddr: 0x151B8, symBinAddr: 0x100025EA8, symSize: 0x20 }
  - { offsetInCU: 0x2E370, offset: 0x5CFA3, size: 0x8, addend: 0x0, symName: __ZNKSt3__16vectorINS_4pairINS_12basic_stringIcNS_11char_traitsIcEENS_9allocatorIcEEEES7_EENS5_IS8_EEE4dataB7v160006Ev, symObjAddr: 0x151D8, symBinAddr: 0x100025EC8, symSize: 0x28 }
  - { offsetInCU: 0x2E394, offset: 0x5CFC7, size: 0x8, addend: 0x0, symName: __ZNKSt3__16vectorINS_4pairINS_12basic_stringIcNS_11char_traitsIcEENS_9allocatorIcEEEES7_EENS5_IS8_EEE4sizeB7v160006Ev, symObjAddr: 0x15200, symBinAddr: 0x100025EF0, symSize: 0x28 }
  - { offsetInCU: 0x2E3B8, offset: 0x5CFEB, size: 0x8, addend: 0x0, symName: __ZNSt3__16vectorINS_4pairINS_12basic_stringIcNS_11char_traitsIcEENS_9allocatorIcEEEES7_EENS5_IS8_EEE22__base_destruct_at_endB7v160006EPS8_, symObjAddr: 0x1523C, symBinAddr: 0x100025F2C, symSize: 0x8C }
  - { offsetInCU: 0x2E3FA, offset: 0x5D02D, size: 0x8, addend: 0x0, symName: __ZNSt3__116allocator_traitsINS_9allocatorINS_4pairINS_12basic_stringIcNS_11char_traitsIcEENS1_IcEEEES7_EEEEE7destroyB7v160006IS8_vEEvRS9_PT_, symObjAddr: 0x152C8, symBinAddr: 0x100025FB8, symSize: 0x2C }
  - { offsetInCU: 0x2E437, offset: 0x5D06A, size: 0x8, addend: 0x0, symName: __ZNSt3__19allocatorINS_4pairINS_12basic_stringIcNS_11char_traitsIcEENS0_IcEEEES6_EEE7destroyB7v160006EPS7_, symObjAddr: 0x152F4, symBinAddr: 0x100025FE4, symSize: 0x28 }
  - { offsetInCU: 0x2E469, offset: 0x5D09C, size: 0x8, addend: 0x0, symName: __ZNSt3__14pairINS_12basic_stringIcNS_11char_traitsIcEENS_9allocatorIcEEEES6_ED1Ev, symObjAddr: 0x1531C, symBinAddr: 0x10002600C, symSize: 0x2C }
  - { offsetInCU: 0x2E494, offset: 0x5D0C7, size: 0x8, addend: 0x0, symName: __ZNSt3__14pairINS_12basic_stringIcNS_11char_traitsIcEENS_9allocatorIcEEEES6_ED2Ev, symObjAddr: 0x15348, symBinAddr: 0x100026038, symSize: 0x38 }
  - { offsetInCU: 0x2E4BF, offset: 0x5D0F2, size: 0x8, addend: 0x0, symName: __ZNSt3__19allocatorINS_4pairINS_12basic_stringIcNS_11char_traitsIcEENS0_IcEEEES6_EEE10deallocateB7v160006EPS7_m, symObjAddr: 0x15380, symBinAddr: 0x100026070, symSize: 0x44 }
  - { offsetInCU: 0x2E4FF, offset: 0x5D132, size: 0x8, addend: 0x0, symName: __ZNSt3__117__compressed_pairIPNS_4pairINS_12basic_stringIcNS_11char_traitsIcEENS_9allocatorIcEEEES7_EENS5_IS8_EEE6secondB7v160006Ev, symObjAddr: 0x153C4, symBinAddr: 0x1000260B4, symSize: 0x24 }
  - { offsetInCU: 0x2E523, offset: 0x5D156, size: 0x8, addend: 0x0, symName: __ZNSt3__122__compressed_pair_elemINS_9allocatorINS_4pairINS_12basic_stringIcNS_11char_traitsIcEENS1_IcEEEES7_EEEELi1ELb1EE5__getB7v160006Ev, symObjAddr: 0x153E8, symBinAddr: 0x1000260D8, symSize: 0x14 }
  - { offsetInCU: 0x2E547, offset: 0x5D17A, size: 0x8, addend: 0x0, symName: __ZNKSt3__16vectorINS_4pairINS_12basic_stringIcNS_11char_traitsIcEENS_9allocatorIcEEEES7_EENS5_IS8_EEE9__end_capB7v160006Ev, symObjAddr: 0x153FC, symBinAddr: 0x1000260EC, symSize: 0x28 }
  - { offsetInCU: 0x2E56B, offset: 0x5D19E, size: 0x8, addend: 0x0, symName: __ZNKSt3__117__compressed_pairIPNS_4pairINS_12basic_stringIcNS_11char_traitsIcEENS_9allocatorIcEEEES7_EENS5_IS8_EEE5firstB7v160006Ev, symObjAddr: 0x15424, symBinAddr: 0x100026114, symSize: 0x24 }
  - { offsetInCU: 0x2E58F, offset: 0x5D1C2, size: 0x8, addend: 0x0, symName: __ZNKSt3__122__compressed_pair_elemIPNS_4pairINS_12basic_stringIcNS_11char_traitsIcEENS_9allocatorIcEEEES7_EELi0ELb0EE5__getB7v160006Ev, symObjAddr: 0x15448, symBinAddr: 0x100026138, symSize: 0x14 }
  - { offsetInCU: 0x2E5B3, offset: 0x5D1E6, size: 0x8, addend: 0x0, symName: __ZNSt3__16vectorIcNS_9allocatorIcEEED2B7v160006Ev, symObjAddr: 0x1545C, symBinAddr: 0x10002614C, symSize: 0x44 }
  - { offsetInCU: 0x2E5DB, offset: 0x5D20E, size: 0x8, addend: 0x0, symName: __ZNSt3__16vectorIcNS_9allocatorIcEEE16__destroy_vectorC1ERS3_, symObjAddr: 0x154A0, symBinAddr: 0x100026190, symSize: 0x34 }
  - { offsetInCU: 0x2E612, offset: 0x5D245, size: 0x8, addend: 0x0, symName: __ZNSt3__16vectorIcNS_9allocatorIcEEE16__destroy_vectorclB7v160006Ev, symObjAddr: 0x154D4, symBinAddr: 0x1000261C4, symSize: 0x9C }
  - { offsetInCU: 0x2E636, offset: 0x5D269, size: 0x8, addend: 0x0, symName: __ZNSt3__16vectorIcNS_9allocatorIcEEE16__destroy_vectorC2ERS3_, symObjAddr: 0x15570, symBinAddr: 0x100026260, symSize: 0x20 }
  - { offsetInCU: 0x2E66D, offset: 0x5D2A0, size: 0x8, addend: 0x0, symName: __ZNKSt3__16vectorIcNS_9allocatorIcEEE17__annotate_deleteB7v160006Ev, symObjAddr: 0x15590, symBinAddr: 0x100026280, symSize: 0xB8 }
  - { offsetInCU: 0x2E691, offset: 0x5D2C4, size: 0x8, addend: 0x0, symName: __ZNSt3__16vectorIcNS_9allocatorIcEEE7__clearB7v160006Ev, symObjAddr: 0x15658, symBinAddr: 0x100026348, symSize: 0x28 }
  - { offsetInCU: 0x2E6B5, offset: 0x5D2E8, size: 0x8, addend: 0x0, symName: __ZNSt3__116allocator_traitsINS_9allocatorIcEEE10deallocateB7v160006ERS2_Pcm, symObjAddr: 0x15680, symBinAddr: 0x100026370, symSize: 0x34 }
  - { offsetInCU: 0x2E6F6, offset: 0x5D329, size: 0x8, addend: 0x0, symName: __ZNSt3__16vectorIcNS_9allocatorIcEEE7__allocB7v160006Ev, symObjAddr: 0x156B4, symBinAddr: 0x1000263A4, symSize: 0x28 }
  - { offsetInCU: 0x2E71A, offset: 0x5D34D, size: 0x8, addend: 0x0, symName: __ZNKSt3__16vectorIcNS_9allocatorIcEEE8capacityB7v160006Ev, symObjAddr: 0x156DC, symBinAddr: 0x1000263CC, symSize: 0x38 }
  - { offsetInCU: 0x2E73E, offset: 0x5D371, size: 0x8, addend: 0x0, symName: __ZNKSt3__16vectorIcNS_9allocatorIcEEE31__annotate_contiguous_containerB7v160006EPKvS5_S5_S5_, symObjAddr: 0x15714, symBinAddr: 0x100026404, symSize: 0x20 }
  - { offsetInCU: 0x2E792, offset: 0x5D3C5, size: 0x8, addend: 0x0, symName: __ZNKSt3__16vectorIcNS_9allocatorIcEEE4dataB7v160006Ev, symObjAddr: 0x15734, symBinAddr: 0x100026424, symSize: 0x28 }
  - { offsetInCU: 0x2E7B6, offset: 0x5D3E9, size: 0x8, addend: 0x0, symName: __ZNKSt3__16vectorIcNS_9allocatorIcEEE4sizeB7v160006Ev, symObjAddr: 0x1575C, symBinAddr: 0x10002644C, symSize: 0x20 }
  - { offsetInCU: 0x2E7DA, offset: 0x5D40D, size: 0x8, addend: 0x0, symName: __ZNSt3__16vectorIcNS_9allocatorIcEEE22__base_destruct_at_endB7v160006EPc, symObjAddr: 0x1577C, symBinAddr: 0x10002646C, symSize: 0x8C }
  - { offsetInCU: 0x2E81C, offset: 0x5D44F, size: 0x8, addend: 0x0, symName: __ZNSt3__116allocator_traitsINS_9allocatorIcEEE7destroyB7v160006IcvEEvRS2_PT_, symObjAddr: 0x15808, symBinAddr: 0x1000264F8, symSize: 0x2C }
  - { offsetInCU: 0x2E859, offset: 0x5D48C, size: 0x8, addend: 0x0, symName: __ZNSt3__19allocatorIcE7destroyB7v160006EPc, symObjAddr: 0x15834, symBinAddr: 0x100026524, symSize: 0x14 }
  - { offsetInCU: 0x2E88B, offset: 0x5D4BE, size: 0x8, addend: 0x0, symName: __ZNSt3__19allocatorIcE10deallocateB7v160006EPcm, symObjAddr: 0x15848, symBinAddr: 0x100026538, symSize: 0x40 }
  - { offsetInCU: 0x2E8CB, offset: 0x5D4FE, size: 0x8, addend: 0x0, symName: __ZNSt3__117__compressed_pairIPcNS_9allocatorIcEEE6secondB7v160006Ev, symObjAddr: 0x15888, symBinAddr: 0x100026578, symSize: 0x24 }
  - { offsetInCU: 0x2E8EF, offset: 0x5D522, size: 0x8, addend: 0x0, symName: __ZNSt3__122__compressed_pair_elemINS_9allocatorIcEELi1ELb1EE5__getB7v160006Ev, symObjAddr: 0x158AC, symBinAddr: 0x10002659C, symSize: 0x14 }
  - { offsetInCU: 0x2E913, offset: 0x5D546, size: 0x8, addend: 0x0, symName: __ZNKSt3__16vectorIcNS_9allocatorIcEEE9__end_capB7v160006Ev, symObjAddr: 0x158C0, symBinAddr: 0x1000265B0, symSize: 0x28 }
  - { offsetInCU: 0x2E937, offset: 0x5D56A, size: 0x8, addend: 0x0, symName: __ZNKSt3__117__compressed_pairIPcNS_9allocatorIcEEE5firstB7v160006Ev, symObjAddr: 0x158E8, symBinAddr: 0x1000265D8, symSize: 0x24 }
  - { offsetInCU: 0x2E95B, offset: 0x5D58E, size: 0x8, addend: 0x0, symName: __ZNKSt3__122__compressed_pair_elemIPcLi0ELb0EE5__getB7v160006Ev, symObjAddr: 0x1590C, symBinAddr: 0x1000265FC, symSize: 0x14 }
  - { offsetInCU: 0x2E97F, offset: 0x5D5B2, size: 0x8, addend: 0x0, symName: __ZNSt3__120__bracket_expressionIcNS_12regex_traitsIcEEED2Ev, symObjAddr: 0x15920, symBinAddr: 0x100026610, symSize: 0x84 }
  - { offsetInCU: 0x2E9AB, offset: 0x5D5DE, size: 0x8, addend: 0x0, symName: __ZNSt3__14pairIccEC1B7v160006ILb1ELPv0EEERKcS5_, symObjAddr: 0x159A4, symBinAddr: 0x100026694, symSize: 0x3C }
  - { offsetInCU: 0x2EA00, offset: 0x5D633, size: 0x8, addend: 0x0, symName: __ZNKSt3__112regex_traitsIcE18lookup_collatenameB7v160006IPcEENS_12basic_stringIcNS_11char_traitsIcEENS_9allocatorIcEEEET_SA_, symObjAddr: 0x159E0, symBinAddr: 0x1000266D0, symSize: 0x40 }
  - { offsetInCU: 0x2EA4B, offset: 0x5D67E, size: 0x8, addend: 0x0, symName: __ZNKSt3__112basic_stringIcNS_11char_traitsIcEENS_9allocatorIcEEE5emptyB7v160006Ev, symObjAddr: 0x15A20, symBinAddr: 0x100026710, symSize: 0x30 }
  - { offsetInCU: 0x2EA6F, offset: 0x5D6A2, size: 0x8, addend: 0x0, symName: __ZNKSt3__16vectorINS_4pairIccEENS_9allocatorIS2_EEEixB7v160006Em, symObjAddr: 0x15AB4, symBinAddr: 0x1000267A4, symSize: 0x24 }
  - { offsetInCU: 0x2EAA4, offset: 0x5D6D7, size: 0x8, addend: 0x0, symName: __ZNKSt3__16vectorINS_4pairINS_12basic_stringIcNS_11char_traitsIcEENS_9allocatorIcEEEES7_EENS5_IS8_EEE5emptyB7v160006Ev, symObjAddr: 0x15AD8, symBinAddr: 0x1000267C8, symSize: 0x28 }
  - { offsetInCU: 0x2EAF8, offset: 0x5D72B, size: 0x8, addend: 0x0, symName: __ZNKSt3__112regex_traitsIcE9transformIPcEENS_12basic_stringIcNS_11char_traitsIcEENS_9allocatorIcEEEET_SA_, symObjAddr: 0x15B00, symBinAddr: 0x1000267F0, symSize: 0xF0 }
  - { offsetInCU: 0x2EB87, offset: 0x5D7BA, size: 0x8, addend: 0x0, symName: __ZNKSt3__16vectorINS_4pairINS_12basic_stringIcNS_11char_traitsIcEENS_9allocatorIcEEEES7_EENS5_IS8_EEEixB7v160006Em, symObjAddr: 0x15C24, symBinAddr: 0x100026914, symSize: 0x2C }
  - { offsetInCU: 0x2EBBC, offset: 0x5D7EF, size: 0x8, addend: 0x0, symName: __ZNKSt3__16vectorINS_12basic_stringIcNS_11char_traitsIcEENS_9allocatorIcEEEENS4_IS6_EEE5emptyB7v160006Ev, symObjAddr: 0x15C50, symBinAddr: 0x100026940, symSize: 0x28 }
  - { offsetInCU: 0x2EBE0, offset: 0x5D813, size: 0x8, addend: 0x0, symName: __ZNKSt3__112regex_traitsIcE17transform_primaryB7v160006IPcEENS_12basic_stringIcNS_11char_traitsIcEENS_9allocatorIcEEEET_SA_, symObjAddr: 0x15C78, symBinAddr: 0x100026968, symSize: 0x40 }
  - { offsetInCU: 0x2EC2B, offset: 0x5D85E, size: 0x8, addend: 0x0, symName: __ZNKSt3__16vectorINS_12basic_stringIcNS_11char_traitsIcEENS_9allocatorIcEEEENS4_IS6_EEEixB7v160006Em, symObjAddr: 0x15E00, symBinAddr: 0x100026AF0, symSize: 0x2C }
  - { offsetInCU: 0x2EC60, offset: 0x5D893, size: 0x8, addend: 0x0, symName: __ZNKSt3__16vectorIcNS_9allocatorIcEEEixB7v160006Em, symObjAddr: 0x15E2C, symBinAddr: 0x100026B1C, symSize: 0x24 }
  - { offsetInCU: 0x2EC95, offset: 0x5D8C8, size: 0x8, addend: 0x0, symName: __ZNKSt3__16vectorIcNS_9allocatorIcEEE5emptyB7v160006Ev, symObjAddr: 0x15E50, symBinAddr: 0x100026B40, symSize: 0x28 }
  - { offsetInCU: 0x2ECB9, offset: 0x5D8EC, size: 0x8, addend: 0x0, symName: __ZNKSt3__16vectorIcNS_9allocatorIcEEE5beginB7v160006Ev, symObjAddr: 0x15F2C, symBinAddr: 0x100026C1C, symSize: 0x30 }
  - { offsetInCU: 0x2ECDF, offset: 0x5D912, size: 0x8, addend: 0x0, symName: __ZNKSt3__16vectorIcNS_9allocatorIcEEE3endB7v160006Ev, symObjAddr: 0x15F5C, symBinAddr: 0x100026C4C, symSize: 0x30 }
  - { offsetInCU: 0x2ED05, offset: 0x5D938, size: 0x8, addend: 0x0, symName: __ZNSt3__14pairIccEC2B7v160006ILb1ELPv0EEERKcS5_, symObjAddr: 0x15F8C, symBinAddr: 0x100026C7C, symSize: 0x34 }
  - { offsetInCU: 0x2ED5A, offset: 0x5D98D, size: 0x8, addend: 0x0, symName: __ZNKSt3__112regex_traitsIcE20__lookup_collatenameIPcEENS_12basic_stringIcNS_11char_traitsIcEENS_9allocatorIcEEEET_SA_c, symObjAddr: 0x15FC0, symBinAddr: 0x100026CB0, symSize: 0x220 }
  - { offsetInCU: 0x2EE0D, offset: 0x5DA40, size: 0x8, addend: 0x0, symName: __ZNSt3__112basic_stringIcNS_11char_traitsIcEENS_9allocatorIcEEEC1B7v160006IPcvEET_S8_, symObjAddr: 0x161E0, symBinAddr: 0x100026ED0, symSize: 0x3C }
  - { offsetInCU: 0x2EE5E, offset: 0x5DA91, size: 0x8, addend: 0x0, symName: __ZNSt3__112basic_stringIcNS_11char_traitsIcEENS_9allocatorIcEEEaSB7v160006EOS5_, symObjAddr: 0x16240, symBinAddr: 0x100026F0C, symSize: 0x34 }
  - { offsetInCU: 0x2EE91, offset: 0x5DAC4, size: 0x8, addend: 0x0, symName: __ZNSt3__112basic_stringIcNS_11char_traitsIcEENS_9allocatorIcEEE5clearB7v160006Ev, symObjAddr: 0x16274, symBinAddr: 0x100026F40, symSize: 0x88 }
  - { offsetInCU: 0x2EEB7, offset: 0x5DAEA, size: 0x8, addend: 0x0, symName: __ZNSt3__112basic_stringIcNS_11char_traitsIcEENS_9allocatorIcEEEC2B7v160006IPcvEET_S8_, symObjAddr: 0x162FC, symBinAddr: 0x100026FC8, symSize: 0x54 }
  - { offsetInCU: 0x2EF08, offset: 0x5DB3B, size: 0x8, addend: 0x0, symName: __ZNSt3__112basic_stringIcNS_11char_traitsIcEENS_9allocatorIcEEE6__initIPcEENS_9enable_ifIXsr27__is_cpp17_forward_iteratorIT_EE5valueEvE4typeES9_S9_, symObjAddr: 0x16350, symBinAddr: 0x10002701C, symSize: 0x158 }
  - { offsetInCU: 0x2EF91, offset: 0x5DBC4, size: 0x8, addend: 0x0, symName: __ZNKSt3__112basic_stringIcNS_11char_traitsIcEENS_9allocatorIcEEE8max_sizeB7v160006Ev, symObjAddr: 0x164D4, symBinAddr: 0x1000271A0, symSize: 0xAC }
  - { offsetInCU: 0x2EFE2, offset: 0x5DC15, size: 0x8, addend: 0x0, symName: __ZNKSt3__112basic_stringIcNS_11char_traitsIcEENS_9allocatorIcEEE20__throw_length_errorB7v160006Ev, symObjAddr: 0x16580, symBinAddr: 0x10002724C, symSize: 0x1C }
  - { offsetInCU: 0x2F006, offset: 0x5DC39, size: 0x8, addend: 0x0, symName: __ZNSt3__112basic_stringIcNS_11char_traitsIcEENS_9allocatorIcEEE13__fits_in_ssoB7v160006Em, symObjAddr: 0x1659C, symBinAddr: 0x100027268, symSize: 0x20 }
  - { offsetInCU: 0x2F029, offset: 0x5DC5C, size: 0x8, addend: 0x0, symName: __ZNSt3__112basic_stringIcNS_11char_traitsIcEENS_9allocatorIcEEE16__set_short_sizeB7v160006Em, symObjAddr: 0x165BC, symBinAddr: 0x100027288, symSize: 0x78 }
  - { offsetInCU: 0x2F05C, offset: 0x5DC8F, size: 0x8, addend: 0x0, symName: __ZNSt3__112basic_stringIcNS_11char_traitsIcEENS_9allocatorIcEEE7__allocB7v160006Ev, symObjAddr: 0x16674, symBinAddr: 0x100027340, symSize: 0x24 }
  - { offsetInCU: 0x2F080, offset: 0x5DCB3, size: 0x8, addend: 0x0, symName: __ZNSt3__112basic_stringIcNS_11char_traitsIcEENS_9allocatorIcEEE11__recommendB7v160006Em, symObjAddr: 0x16698, symBinAddr: 0x100027364, symSize: 0x84 }
  - { offsetInCU: 0x2F0B2, offset: 0x5DCE5, size: 0x8, addend: 0x0, symName: __ZNSt3__112basic_stringIcNS_11char_traitsIcEENS_9allocatorIcEEE16__begin_lifetimeB7v160006EPcm, symObjAddr: 0x1671C, symBinAddr: 0x1000273E8, symSize: 0x14 }
  - { offsetInCU: 0x2F0E4, offset: 0x5DD17, size: 0x8, addend: 0x0, symName: __ZNSt3__112basic_stringIcNS_11char_traitsIcEENS_9allocatorIcEEE18__set_long_pointerB7v160006EPc, symObjAddr: 0x16730, symBinAddr: 0x1000273FC, symSize: 0x38 }
  - { offsetInCU: 0x2F117, offset: 0x5DD4A, size: 0x8, addend: 0x0, symName: __ZNSt3__112basic_stringIcNS_11char_traitsIcEENS_9allocatorIcEEE14__set_long_capB7v160006Em, symObjAddr: 0x16768, symBinAddr: 0x100027434, symSize: 0x70 }
  - { offsetInCU: 0x2F14A, offset: 0x5DD7D, size: 0x8, addend: 0x0, symName: __ZNSt3__112basic_stringIcNS_11char_traitsIcEENS_9allocatorIcEEE15__set_long_sizeB7v160006Em, symObjAddr: 0x167D8, symBinAddr: 0x1000274A4, symSize: 0x38 }
  - { offsetInCU: 0x2F17D, offset: 0x5DDB0, size: 0x8, addend: 0x0, symName: __ZNSt3__111char_traitsIcE6assignERcRKc, symObjAddr: 0x16810, symBinAddr: 0x1000274DC, symSize: 0x24 }
  - { offsetInCU: 0x2F1B7, offset: 0x5DDEA, size: 0x8, addend: 0x0, symName: __ZNSt3__116allocator_traitsINS_9allocatorIcEEE8max_sizeB7v160006IS2_vEEmRKS2_, symObjAddr: 0x16854, symBinAddr: 0x100027520, symSize: 0x24 }
  - { offsetInCU: 0x2F1E5, offset: 0x5DE18, size: 0x8, addend: 0x0, symName: __ZNSt3__114numeric_limitsImE3maxB7v160006Ev, symObjAddr: 0x16878, symBinAddr: 0x100027544, symSize: 0x14 }
  - { offsetInCU: 0x2F1F9, offset: 0x5DE2C, size: 0x8, addend: 0x0, symName: __ZNKSt3__19allocatorIcE8max_sizeB7v160006Ev, symObjAddr: 0x1688C, symBinAddr: 0x100027558, symSize: 0x14 }
  - { offsetInCU: 0x2F21D, offset: 0x5DE50, size: 0x8, addend: 0x0, symName: __ZNSt3__123__libcpp_numeric_limitsImLb1EE3maxB7v160006Ev, symObjAddr: 0x168A0, symBinAddr: 0x10002756C, symSize: 0x8 }
  - { offsetInCU: 0x2F230, offset: 0x5DE63, size: 0x8, addend: 0x0, symName: __ZNSt3__19allocatorIcE8allocateB7v160006Em, symObjAddr: 0x168A8, symBinAddr: 0x100027574, symSize: 0x58 }
  - { offsetInCU: 0x2F262, offset: 0x5DE95, size: 0x8, addend: 0x0, symName: __ZNSt3__117__compressed_pairINS_12basic_stringIcNS_11char_traitsIcEENS_9allocatorIcEEE5__repES5_E6secondB7v160006Ev, symObjAddr: 0x16900, symBinAddr: 0x1000275CC, symSize: 0x24 }
  - { offsetInCU: 0x2F286, offset: 0x5DEB9, size: 0x8, addend: 0x0, symName: __ZNSt3__112basic_stringIcNS_11char_traitsIcEENS_9allocatorIcEEE10__align_itB7v160006ILm16EEEmm, symObjAddr: 0x16924, symBinAddr: 0x1000275F0, symSize: 0x1C }
  - { offsetInCU: 0x2F2B3, offset: 0x5DEE6, size: 0x8, addend: 0x0, symName: __ZNSt3__112basic_stringIcNS_11char_traitsIcEENS_9allocatorIcEEE13__move_assignB7v160006ERS5_NS_17integral_constantIbLb1EEE, symObjAddr: 0x16940, symBinAddr: 0x10002760C, symSize: 0xC8 }
  - { offsetInCU: 0x2F2F4, offset: 0x5DF27, size: 0x8, addend: 0x0, symName: __ZNKSt3__112basic_stringIcNS_11char_traitsIcEENS_9allocatorIcEEE14__get_long_capB7v160006Ev, symObjAddr: 0x16A08, symBinAddr: 0x1000276D4, symSize: 0x30 }
  - { offsetInCU: 0x2F318, offset: 0x5DF4B, size: 0x8, addend: 0x0, symName: __ZNSt3__112basic_stringIcNS_11char_traitsIcEENS_9allocatorIcEEE19__move_assign_allocB7v160006ERS5_, symObjAddr: 0x16A38, symBinAddr: 0x100027704, symSize: 0x2C }
  - { offsetInCU: 0x2F34B, offset: 0x5DF7E, size: 0x8, addend: 0x0, symName: __ZNSt3__112basic_stringIcNS_11char_traitsIcEENS_9allocatorIcEEE19__move_assign_allocB7v160006ERS5_NS_17integral_constantIbLb1EEE, symObjAddr: 0x16A64, symBinAddr: 0x100027730, symSize: 0x38 }
  - { offsetInCU: 0x2F38A, offset: 0x5DFBD, size: 0x8, addend: 0x0, symName: __ZNKSt3__112basic_stringIcNS_11char_traitsIcEENS_9allocatorIcEEE7compareB7v160006ERKS5_, symObjAddr: 0x16AE4, symBinAddr: 0x1000277B0, symSize: 0x4C }
  - { offsetInCU: 0x2F3BF, offset: 0x5DFF2, size: 0x8, addend: 0x0, symName: __ZNKSt3__112basic_stringIcNS_11char_traitsIcEENS_9allocatorIcEEE7compareINS_17basic_string_viewIcS2_EEEENS_9enable_ifIXsr33__can_be_converted_to_string_viewIcS2_T_EE5valueEiE4typeERKSA_, symObjAddr: 0x16B30, symBinAddr: 0x1000277FC, symSize: 0x12C }
  - { offsetInCU: 0x2F43A, offset: 0x5E06D, size: 0x8, addend: 0x0, symName: __ZNKSt3__112basic_stringIcNS_11char_traitsIcEENS_9allocatorIcEEEcvNS_17basic_string_viewIcS2_EEB7v160006Ev, symObjAddr: 0x16C5C, symBinAddr: 0x100027928, symSize: 0x50 }
  - { offsetInCU: 0x2F45E, offset: 0x5E091, size: 0x8, addend: 0x0, symName: __ZNKSt3__117basic_string_viewIcNS_11char_traitsIcEEE4sizeB7v160006Ev, symObjAddr: 0x16CAC, symBinAddr: 0x100027978, symSize: 0x18 }
  - { offsetInCU: 0x2F482, offset: 0x5E0B5, size: 0x8, addend: 0x0, symName: __ZNSt3__111char_traitsIcE7compareEPKcS3_m, symObjAddr: 0x16CC4, symBinAddr: 0x100027990, symSize: 0x6C }
  - { offsetInCU: 0x2F4C0, offset: 0x5E0F3, size: 0x8, addend: 0x0, symName: __ZNKSt3__117basic_string_viewIcNS_11char_traitsIcEEE4dataB7v160006Ev, symObjAddr: 0x16D30, symBinAddr: 0x1000279FC, symSize: 0x18 }
  - { offsetInCU: 0x2F4E4, offset: 0x5E117, size: 0x8, addend: 0x0, symName: __ZNSt3__117basic_string_viewIcNS_11char_traitsIcEEEC1B7v160006EPKcm, symObjAddr: 0x16D7C, symBinAddr: 0x100027A48, symSize: 0x3C }
  - { offsetInCU: 0x2F52A, offset: 0x5E15D, size: 0x8, addend: 0x0, symName: __ZNSt3__117basic_string_viewIcNS_11char_traitsIcEEEC2B7v160006EPKcm, symObjAddr: 0x16DB8, symBinAddr: 0x100027A84, symSize: 0x50 }
  - { offsetInCU: 0x2F570, offset: 0x5E1A3, size: 0x8, addend: 0x0, symName: __ZNKSt3__112regex_traitsIcE19__transform_primaryIPcEENS_12basic_stringIcNS_11char_traitsIcEENS_9allocatorIcEEEET_SA_c, symObjAddr: 0x16E08, symBinAddr: 0x100027AD4, symSize: 0x19C }
  - { offsetInCU: 0x2F61C, offset: 0x5E24F, size: 0x8, addend: 0x0, symName: __ZNSt3__112basic_stringIcNS_11char_traitsIcEENS_9allocatorIcEEEixB7v160006Em, symObjAddr: 0x16FA4, symBinAddr: 0x100027C70, symSize: 0x30 }
  - { offsetInCU: 0x2F64F, offset: 0x5E282, size: 0x8, addend: 0x0, symName: __ZNKSt3__111__wrap_iterIPKcE4baseB7v160006Ev, symObjAddr: 0x1701C, symBinAddr: 0x100027CE8, symSize: 0x18 }
  - { offsetInCU: 0x2F673, offset: 0x5E2A6, size: 0x8, addend: 0x0, symName: __ZNKSt3__111__wrap_iterIPKcEdeB7v160006Ev, symObjAddr: 0x17034, symBinAddr: 0x100027D00, symSize: 0x18 }
  - { offsetInCU: 0x2F697, offset: 0x5E2CA, size: 0x8, addend: 0x0, symName: __ZNSt3__111__wrap_iterIPKcEppB7v160006Ev, symObjAddr: 0x1704C, symBinAddr: 0x100027D18, symSize: 0x20 }
  - { offsetInCU: 0x2F6BB, offset: 0x5E2EE, size: 0x8, addend: 0x0, symName: __ZNKSt3__16vectorIcNS_9allocatorIcEEE11__make_iterB7v160006EPKc, symObjAddr: 0x1706C, symBinAddr: 0x100027D38, symSize: 0x34 }
  - { offsetInCU: 0x2F6EE, offset: 0x5E321, size: 0x8, addend: 0x0, symName: __ZNSt3__111__wrap_iterIPKcEC1B7v160006EPKvS2_, symObjAddr: 0x170A0, symBinAddr: 0x100027D6C, symSize: 0x3C }
  - { offsetInCU: 0x2F732, offset: 0x5E365, size: 0x8, addend: 0x0, symName: __ZNSt3__111__wrap_iterIPKcEC2B7v160006EPKvS2_, symObjAddr: 0x170DC, symBinAddr: 0x100027DA8, symSize: 0x24 }
  - { offsetInCU: 0x2F776, offset: 0x5E3A9, size: 0x8, addend: 0x0, symName: __ZNSt3__16vectorIcNS_9allocatorIcEEE9push_backB7v160006EOc, symObjAddr: 0x17100, symBinAddr: 0x100027DCC, symSize: 0x6C }
  - { offsetInCU: 0x2F7AB, offset: 0x5E3DE, size: 0x8, addend: 0x0, symName: __ZNSt3__16vectorIcNS_9allocatorIcEEE9push_backB7v160006ERKc, symObjAddr: 0x1716C, symBinAddr: 0x100027E38, symSize: 0x6C }
  - { offsetInCU: 0x2F7E0, offset: 0x5E413, size: 0x8, addend: 0x0, symName: __ZNSt3__16vectorIcNS_9allocatorIcEEE9__end_capB7v160006Ev, symObjAddr: 0x171D8, symBinAddr: 0x100027EA4, symSize: 0x28 }
  - { offsetInCU: 0x2F809, offset: 0x5E43C, size: 0x8, addend: 0x0, symName: __ZNSt3__16vectorIcNS_9allocatorIcEEE22__construct_one_at_endB7v160006IJcEEEvDpOT_, symObjAddr: 0x17200, symBinAddr: 0x100027ECC, symSize: 0x90 }
  - { offsetInCU: 0x2F857, offset: 0x5E48A, size: 0x8, addend: 0x0, symName: __ZNSt3__16vectorIcNS_9allocatorIcEEE21__push_back_slow_pathIcEEvOT_, symObjAddr: 0x17290, symBinAddr: 0x100027F5C, symSize: 0xD8 }
  - { offsetInCU: 0x2F8B3, offset: 0x5E4E6, size: 0x8, addend: 0x0, symName: __ZNSt3__117__compressed_pairIPcNS_9allocatorIcEEE5firstB7v160006Ev, symObjAddr: 0x17368, symBinAddr: 0x100028034, symSize: 0x24 }
  - { offsetInCU: 0x2F8D7, offset: 0x5E50A, size: 0x8, addend: 0x0, symName: __ZNSt3__122__compressed_pair_elemIPcLi0ELb0EE5__getB7v160006Ev, symObjAddr: 0x1738C, symBinAddr: 0x100028058, symSize: 0x14 }
  - { offsetInCU: 0x2F914, offset: 0x5E547, size: 0x8, addend: 0x0, symName: __ZNSt3__16vectorIcNS_9allocatorIcEEE21_ConstructTransactionC1B7v160006ERS3_m, symObjAddr: 0x173A0, symBinAddr: 0x10002806C, symSize: 0x3C }
  - { offsetInCU: 0x2F95A, offset: 0x5E58D, size: 0x8, addend: 0x0, symName: __ZNSt3__116allocator_traitsINS_9allocatorIcEEE9constructB7v160006IcJcEvEEvRS2_PT_DpOT0_, symObjAddr: 0x173DC, symBinAddr: 0x1000280A8, symSize: 0x34 }
  - { offsetInCU: 0x2F9B2, offset: 0x5E5E5, size: 0x8, addend: 0x0, symName: __ZNSt3__16vectorIcNS_9allocatorIcEEE21_ConstructTransactionD1B7v160006Ev, symObjAddr: 0x17410, symBinAddr: 0x1000280DC, symSize: 0x2C }
  - { offsetInCU: 0x2F9DA, offset: 0x5E60D, size: 0x8, addend: 0x0, symName: __ZNSt3__16vectorIcNS_9allocatorIcEEE21_ConstructTransactionC2B7v160006ERS3_m, symObjAddr: 0x1743C, symBinAddr: 0x100028108, symSize: 0x44 }
  - { offsetInCU: 0x2FA20, offset: 0x5E653, size: 0x8, addend: 0x0, symName: __ZNSt3__19allocatorIcE9constructB7v160006IcJcEEEvPT_DpOT0_, symObjAddr: 0x17480, symBinAddr: 0x10002814C, symSize: 0x28 }
  - { offsetInCU: 0x2FA75, offset: 0x5E6A8, size: 0x8, addend: 0x0, symName: __ZNSt3__16vectorIcNS_9allocatorIcEEE21_ConstructTransactionD2B7v160006Ev, symObjAddr: 0x174A8, symBinAddr: 0x100028174, symSize: 0x20 }
  - { offsetInCU: 0x2FA9D, offset: 0x5E6D0, size: 0x8, addend: 0x0, symName: __ZNKSt3__16vectorIcNS_9allocatorIcEEE11__recommendB7v160006Em, symObjAddr: 0x174C8, symBinAddr: 0x100028194, symSize: 0xB4 }
  - { offsetInCU: 0x2FAF0, offset: 0x5E723, size: 0x8, addend: 0x0, symName: __ZNSt3__114__split_bufferIcRNS_9allocatorIcEEEC1EmmS3_, symObjAddr: 0x1757C, symBinAddr: 0x100028248, symSize: 0x44 }
  - { offsetInCU: 0x2FB45, offset: 0x5E778, size: 0x8, addend: 0x0, symName: __ZNSt3__114__split_bufferIcRNS_9allocatorIcEEED1Ev, symObjAddr: 0x176D8, symBinAddr: 0x1000283A4, symSize: 0x2C }
  - { offsetInCU: 0x2FB70, offset: 0x5E7A3, size: 0x8, addend: 0x0, symName: __ZNKSt3__16vectorIcNS_9allocatorIcEEE8max_sizeEv, symObjAddr: 0x17704, symBinAddr: 0x1000283D0, symSize: 0x60 }
  - { offsetInCU: 0x2FB96, offset: 0x5E7C9, size: 0x8, addend: 0x0, symName: __ZNKSt3__16vectorIcNS_9allocatorIcEEE20__throw_length_errorB7v160006Ev, symObjAddr: 0x17764, symBinAddr: 0x100028430, symSize: 0x1C }
  - { offsetInCU: 0x2FBBA, offset: 0x5E7ED, size: 0x8, addend: 0x0, symName: __ZNKSt3__16vectorIcNS_9allocatorIcEEE7__allocB7v160006Ev, symObjAddr: 0x17780, symBinAddr: 0x10002844C, symSize: 0x28 }
  - { offsetInCU: 0x2FBDE, offset: 0x5E811, size: 0x8, addend: 0x0, symName: __ZNKSt3__117__compressed_pairIPcNS_9allocatorIcEEE6secondB7v160006Ev, symObjAddr: 0x177A8, symBinAddr: 0x100028474, symSize: 0x24 }
  - { offsetInCU: 0x2FC02, offset: 0x5E835, size: 0x8, addend: 0x0, symName: __ZNSt3__114__split_bufferIcRNS_9allocatorIcEEEC2EmmS3_, symObjAddr: 0x177CC, symBinAddr: 0x100028498, symSize: 0xD4 }
  - { offsetInCU: 0x2FC75, offset: 0x5E8A8, size: 0x8, addend: 0x0, symName: __ZNSt3__117__compressed_pairIPcRNS_9allocatorIcEEEC1B7v160006IDnS4_EEOT_OT0_, symObjAddr: 0x178A0, symBinAddr: 0x10002856C, symSize: 0x3C }
  - { offsetInCU: 0x2FCCB, offset: 0x5E8FE, size: 0x8, addend: 0x0, symName: __ZNSt3__114__split_bufferIcRNS_9allocatorIcEEE7__allocB7v160006Ev, symObjAddr: 0x178DC, symBinAddr: 0x1000285A8, symSize: 0x28 }
  - { offsetInCU: 0x2FCEF, offset: 0x5E922, size: 0x8, addend: 0x0, symName: __ZNSt3__114__split_bufferIcRNS_9allocatorIcEEE9__end_capB7v160006Ev, symObjAddr: 0x17904, symBinAddr: 0x1000285D0, symSize: 0x28 }
  - { offsetInCU: 0x2FD13, offset: 0x5E946, size: 0x8, addend: 0x0, symName: __ZNSt3__117__compressed_pairIPcRNS_9allocatorIcEEEC2B7v160006IDnS4_EEOT_OT0_, symObjAddr: 0x1792C, symBinAddr: 0x1000285F8, symSize: 0x48 }
  - { offsetInCU: 0x2FD69, offset: 0x5E99C, size: 0x8, addend: 0x0, symName: __ZNSt3__122__compressed_pair_elemIRNS_9allocatorIcEELi1ELb0EEC2B7v160006IS3_vEEOT_, symObjAddr: 0x17974, symBinAddr: 0x100028640, symSize: 0x20 }
  - { offsetInCU: 0x2FDAA, offset: 0x5E9DD, size: 0x8, addend: 0x0, symName: __ZNSt3__117__compressed_pairIPcRNS_9allocatorIcEEE6secondB7v160006Ev, symObjAddr: 0x17994, symBinAddr: 0x100028660, symSize: 0x28 }
  - { offsetInCU: 0x2FDCE, offset: 0x5EA01, size: 0x8, addend: 0x0, symName: __ZNSt3__122__compressed_pair_elemIRNS_9allocatorIcEELi1ELb0EE5__getB7v160006Ev, symObjAddr: 0x179BC, symBinAddr: 0x100028688, symSize: 0x18 }
  - { offsetInCU: 0x2FDF2, offset: 0x5EA25, size: 0x8, addend: 0x0, symName: __ZNSt3__117__compressed_pairIPcRNS_9allocatorIcEEE5firstB7v160006Ev, symObjAddr: 0x179D4, symBinAddr: 0x1000286A0, symSize: 0x24 }
  - { offsetInCU: 0x2FE16, offset: 0x5EA49, size: 0x8, addend: 0x0, symName: __ZNSt3__116reverse_iteratorIPcEC1B7v160006ES1_, symObjAddr: 0x17A70, symBinAddr: 0x10002873C, symSize: 0x34 }
  - { offsetInCU: 0x2FE4C, offset: 0x5EA7F, size: 0x8, addend: 0x0, symName: __ZNKSt3__116reverse_iteratorIPcE4baseB7v160006Ev, symObjAddr: 0x17AA4, symBinAddr: 0x100028770, symSize: 0x18 }
  - { offsetInCU: 0x2FE70, offset: 0x5EAA3, size: 0x8, addend: 0x0, symName: __ZNKSt3__16vectorIcNS_9allocatorIcEEE14__annotate_newB7v160006Em, symObjAddr: 0x17AF8, symBinAddr: 0x1000287C4, symSize: 0xAC }
  - { offsetInCU: 0x2FEC6, offset: 0x5EAF9, size: 0x8, addend: 0x0, symName: __ZNKSt3__111__move_loopINS_17_ClassicAlgPolicyEEclB7v160006INS_16reverse_iteratorIPcEES6_S6_EENS_4pairIT_T1_EES8_T0_S9_, symObjAddr: 0x17EA4, symBinAddr: 0x100028B70, symSize: 0xA0 }
  - { offsetInCU: 0x2FF2F, offset: 0x5EB62, size: 0x8, addend: 0x0, symName: __ZNSt3__18_IterOpsINS_17_ClassicAlgPolicyEE11__iter_moveB7v160006IRNS_16reverse_iteratorIPcEEEENS_9enable_ifIXsr12is_referenceIDTdeclsr3stdE7declvalIRT_EEEEE5valueEDTclsr3stdE4movedeclsr3stdE7declvalISA_EEEEE4typeEOS9_, symObjAddr: 0x180D8, symBinAddr: 0x100028DA4, symSize: 0x28 }
  - { offsetInCU: 0x2FF5A, offset: 0x5EB8D, size: 0x8, addend: 0x0, symName: __ZNKSt3__116reverse_iteratorIPcEdeB7v160006Ev, symObjAddr: 0x18100, symBinAddr: 0x100028DCC, symSize: 0x28 }
  - { offsetInCU: 0x2FF8C, offset: 0x5EBBF, size: 0x8, addend: 0x0, symName: __ZNSt3__116reverse_iteratorIPcEppB7v160006Ev, symObjAddr: 0x18128, symBinAddr: 0x100028DF4, symSize: 0x20 }
  - { offsetInCU: 0x2FFB0, offset: 0x5EBE3, size: 0x8, addend: 0x0, symName: __ZNSt3__18_IterOpsINS_17_ClassicAlgPolicyEE25__validate_iter_referenceB7v160006IRNS_16reverse_iteratorIPcEEEEvv, symObjAddr: 0x18148, symBinAddr: 0x100028E14, symSize: 0x4 }
  - { offsetInCU: 0x2FFCD, offset: 0x5EC00, size: 0x8, addend: 0x0, symName: __ZNSt3__118__unwrap_iter_implINS_16reverse_iteratorIPcEELb0EE8__unwrapB7v160006ES3_, symObjAddr: 0x1814C, symBinAddr: 0x100028E18, symSize: 0x24 }
  - { offsetInCU: 0x2FFF4, offset: 0x5EC27, size: 0x8, addend: 0x0, symName: __ZNSt3__14pairINS_16reverse_iteratorIPcEES3_EC1B7v160006IS3_S3_LPv0EEEOT_OT0_, symObjAddr: 0x18170, symBinAddr: 0x100028E3C, symSize: 0x3C }
  - { offsetInCU: 0x30051, offset: 0x5EC84, size: 0x8, addend: 0x0, symName: __ZNSt3__14pairINS_16reverse_iteratorIPcEES3_EC2B7v160006IS3_S3_LPv0EEEOT_OT0_, symObjAddr: 0x181AC, symBinAddr: 0x100028E78, symSize: 0x34 }
  - { offsetInCU: 0x300AE, offset: 0x5ECE1, size: 0x8, addend: 0x0, symName: __ZNSt3__118__unwrap_iter_implINS_16reverse_iteratorIPcEELb0EE8__rewrapB7v160006ES3_S3_, symObjAddr: 0x181E0, symBinAddr: 0x100028EAC, symSize: 0x2C }
  - { offsetInCU: 0x300DA, offset: 0x5ED0D, size: 0x8, addend: 0x0, symName: __ZNSt3__116reverse_iteratorIPcEC2B7v160006ES1_, symObjAddr: 0x1820C, symBinAddr: 0x100028ED8, symSize: 0x28 }
  - { offsetInCU: 0x30110, offset: 0x5ED43, size: 0x8, addend: 0x0, symName: __ZNSt3__114__split_bufferIcRNS_9allocatorIcEEED2Ev, symObjAddr: 0x18234, symBinAddr: 0x100028F00, symSize: 0x8C }
  - { offsetInCU: 0x3013B, offset: 0x5ED6E, size: 0x8, addend: 0x0, symName: __ZNSt3__114__split_bufferIcRNS_9allocatorIcEEE5clearB7v160006Ev, symObjAddr: 0x182C0, symBinAddr: 0x100028F8C, symSize: 0x28 }
  - { offsetInCU: 0x3015F, offset: 0x5ED92, size: 0x8, addend: 0x0, symName: __ZNKSt3__114__split_bufferIcRNS_9allocatorIcEEE8capacityB7v160006Ev, symObjAddr: 0x182E8, symBinAddr: 0x100028FB4, symSize: 0x38 }
  - { offsetInCU: 0x30183, offset: 0x5EDB6, size: 0x8, addend: 0x0, symName: __ZNSt3__114__split_bufferIcRNS_9allocatorIcEEE17__destruct_at_endB7v160006EPc, symObjAddr: 0x18320, symBinAddr: 0x100028FEC, symSize: 0x2C }
  - { offsetInCU: 0x301B5, offset: 0x5EDE8, size: 0x8, addend: 0x0, symName: __ZNSt3__114__split_bufferIcRNS_9allocatorIcEEE17__destruct_at_endB7v160006EPcNS_17integral_constantIbLb0EEE, symObjAddr: 0x1834C, symBinAddr: 0x100029018, symSize: 0x80 }
  - { offsetInCU: 0x301F3, offset: 0x5EE26, size: 0x8, addend: 0x0, symName: __ZNKSt3__114__split_bufferIcRNS_9allocatorIcEEE9__end_capB7v160006Ev, symObjAddr: 0x183CC, symBinAddr: 0x100029098, symSize: 0x28 }
  - { offsetInCU: 0x30217, offset: 0x5EE4A, size: 0x8, addend: 0x0, symName: __ZNKSt3__117__compressed_pairIPcRNS_9allocatorIcEEE5firstB7v160006Ev, symObjAddr: 0x183F4, symBinAddr: 0x1000290C0, symSize: 0x24 }
  - { offsetInCU: 0x3023B, offset: 0x5EE6E, size: 0x8, addend: 0x0, symName: __ZNSt3__16vectorIcNS_9allocatorIcEEE22__construct_one_at_endB7v160006IJRKcEEEvDpOT_, symObjAddr: 0x18418, symBinAddr: 0x1000290E4, symSize: 0x90 }
  - { offsetInCU: 0x30289, offset: 0x5EEBC, size: 0x8, addend: 0x0, symName: __ZNSt3__16vectorIcNS_9allocatorIcEEE21__push_back_slow_pathIRKcEEvOT_, symObjAddr: 0x184A8, symBinAddr: 0x100029174, symSize: 0xD8 }
  - { offsetInCU: 0x302E5, offset: 0x5EF18, size: 0x8, addend: 0x0, symName: __ZNSt3__116allocator_traitsINS_9allocatorIcEEE9constructB7v160006IcJRKcEvEEvRS2_PT_DpOT0_, symObjAddr: 0x18580, symBinAddr: 0x10002924C, symSize: 0x34 }
  - { offsetInCU: 0x3033D, offset: 0x5EF70, size: 0x8, addend: 0x0, symName: __ZNSt3__19allocatorIcE9constructB7v160006IcJRKcEEEvPT_DpOT0_, symObjAddr: 0x185B4, symBinAddr: 0x100029280, symSize: 0x28 }
  - { offsetInCU: 0x30392, offset: 0x5EFC5, size: 0x8, addend: 0x0, symName: __ZNKSt3__112regex_traitsIcE5valueB7v160006Eci, symObjAddr: 0x185DC, symBinAddr: 0x1000292A8, symSize: 0x34 }
  - { offsetInCU: 0x303D4, offset: 0x5F007, size: 0x8, addend: 0x0, symName: __ZNKSt3__112regex_traitsIcE20__regex_traits_valueB7v160006Eci, symObjAddr: 0x18610, symBinAddr: 0x1000292DC, symSize: 0x30 }
  - { offsetInCU: 0x30416, offset: 0x5F049, size: 0x8, addend: 0x0, symName: __ZNSt3__112regex_traitsIcE20__regex_traits_valueEhi, symObjAddr: 0x18640, symBinAddr: 0x10002930C, symSize: 0xE8 }
  - { offsetInCU: 0x3044B, offset: 0x5F07E, size: 0x8, addend: 0x0, symName: __ZNSt3__111basic_regexIcNS_12regex_traitsIcEEE19__parse_follow_listIPKcEET_S7_S7_PNS_20__bracket_expressionIcS2_EE, symObjAddr: 0x187EC, symBinAddr: 0x1000294B8, symSize: 0x94 }
  - { offsetInCU: 0x304C5, offset: 0x5F0F8, size: 0x8, addend: 0x0, symName: __ZNSt3__111basic_regexIcNS_12regex_traitsIcEEE23__parse_expression_termIPKcEET_S7_S7_PNS_20__bracket_expressionIcS2_EE, symObjAddr: 0x18880, symBinAddr: 0x10002954C, symSize: 0x71C }
  - { offsetInCU: 0x3056C, offset: 0x5F19F, size: 0x8, addend: 0x0, symName: __ZNSt3__111basic_regexIcNS_12regex_traitsIcEEE25__parse_equivalence_classIPKcEET_S7_S7_PNS_20__bracket_expressionIcS2_EE, symObjAddr: 0x18F9C, symBinAddr: 0x100029C68, symSize: 0x238 }
  - { offsetInCU: 0x30606, offset: 0x5F239, size: 0x8, addend: 0x0, symName: __ZNSt3__111basic_regexIcNS_12regex_traitsIcEEE23__parse_character_classIPKcEET_S7_S7_PNS_20__bracket_expressionIcS2_EE, symObjAddr: 0x191D4, symBinAddr: 0x100029EA0, symSize: 0xF4 }
  - { offsetInCU: 0x3069B, offset: 0x5F2CE, size: 0x8, addend: 0x0, symName: __ZNSt3__111basic_regexIcNS_12regex_traitsIcEEE24__parse_collating_symbolIPKcEET_S7_S7_RNS_12basic_stringIcNS_11char_traitsIcEENS_9allocatorIcEEEE, symObjAddr: 0x192C8, symBinAddr: 0x100029F94, symSize: 0xDC }
  - { offsetInCU: 0x30715, offset: 0x5F348, size: 0x8, addend: 0x0, symName: __ZNSt3__111basic_regexIcNS_12regex_traitsIcEEE20__parse_class_escapeIPKcEET_S7_S7_RNS_12basic_stringIcNS_11char_traitsIcEENS_9allocatorIcEEEEPNS_20__bracket_expressionIcS2_EE, symObjAddr: 0x193A4, symBinAddr: 0x10002A070, symSize: 0x25C }
  - { offsetInCU: 0x30780, offset: 0x5F3B3, size: 0x8, addend: 0x0, symName: __ZNSt3__111basic_regexIcNS_12regex_traitsIcEEE18__parse_awk_escapeIPKcEET_S7_S7_PNS_12basic_stringIcNS_11char_traitsIcEENS_9allocatorIcEEEE, symObjAddr: 0x19600, symBinAddr: 0x10002A2CC, symSize: 0x484 }
  - { offsetInCU: 0x307FA, offset: 0x5F42D, size: 0x8, addend: 0x0, symName: __ZNSt3__120__bracket_expressionIcNS_12regex_traitsIcEEE11__add_rangeB7v160006ENS_12basic_stringIcNS_11char_traitsIcEENS_9allocatorIcEEEES9_, symObjAddr: 0x19BD8, symBinAddr: 0x10002A8A4, symSize: 0x4D4 }
  - { offsetInCU: 0x308B7, offset: 0x5F4EA, size: 0x8, addend: 0x0, symName: __ZNSt3__112basic_stringIcNS_11char_traitsIcEENS_9allocatorIcEEEC1B7v160006EOS5_, symObjAddr: 0x1A0AC, symBinAddr: 0x10002AD78, symSize: 0x34 }
  - { offsetInCU: 0x308EE, offset: 0x5F521, size: 0x8, addend: 0x0, symName: __ZNSt3__120__bracket_expressionIcNS_12regex_traitsIcEEE13__add_digraphB7v160006Ecc, symObjAddr: 0x1A0E0, symBinAddr: 0x10002ADAC, symSize: 0x13C }
  - { offsetInCU: 0x30930, offset: 0x5F563, size: 0x8, addend: 0x0, symName: __ZNKSt3__112regex_traitsIcE18lookup_collatenameB7v160006IPKcEENS_12basic_stringIcNS_11char_traitsIcEENS_9allocatorIcEEEET_SB_, symObjAddr: 0x1A258, symBinAddr: 0x10002AF24, symSize: 0x40 }
  - { offsetInCU: 0x3097B, offset: 0x5F5AE, size: 0x8, addend: 0x0, symName: __ZNKSt3__112regex_traitsIcE17transform_primaryB7v160006INS_11__wrap_iterIPcEEEENS_12basic_stringIcNS_11char_traitsIcEENS_9allocatorIcEEEET_SC_, symObjAddr: 0x1A2F8, symBinAddr: 0x10002AFC4, symSize: 0x50 }
  - { offsetInCU: 0x309C6, offset: 0x5F5F9, size: 0x8, addend: 0x0, symName: __ZNSt3__112basic_stringIcNS_11char_traitsIcEENS_9allocatorIcEEE5beginB7v160006Ev, symObjAddr: 0x1A348, symBinAddr: 0x10002B014, symSize: 0x4C }
  - { offsetInCU: 0x309EA, offset: 0x5F61D, size: 0x8, addend: 0x0, symName: __ZNSt3__112basic_stringIcNS_11char_traitsIcEENS_9allocatorIcEEE3endB7v160006Ev, symObjAddr: 0x1A394, symBinAddr: 0x10002B060, symSize: 0x54 }
  - { offsetInCU: 0x30A0E, offset: 0x5F641, size: 0x8, addend: 0x0, symName: __ZNSt3__120__bracket_expressionIcNS_12regex_traitsIcEEE17__add_equivalenceB7v160006ERKNS_12basic_stringIcNS_11char_traitsIcEENS_9allocatorIcEEEE, symObjAddr: 0x1A3E8, symBinAddr: 0x10002B0B4, symSize: 0x30 }
  - { offsetInCU: 0x30A46, offset: 0x5F679, size: 0x8, addend: 0x0, symName: __ZNSt3__14pairIPKcS2_EC1B7v160006IRS2_S5_LPv0EEEOT_OT0_, symObjAddr: 0x1A768, symBinAddr: 0x10002B434, symSize: 0x3C }
  - { offsetInCU: 0x30AA3, offset: 0x5F6D6, size: 0x8, addend: 0x0, symName: __ZNSt3__14pairIPKcS2_EC2B7v160006IRS2_S5_LPv0EEEOT_OT0_, symObjAddr: 0x1A7A4, symBinAddr: 0x10002B470, symSize: 0x34 }
  - { offsetInCU: 0x30B00, offset: 0x5F733, size: 0x8, addend: 0x0, symName: __ZNSt3__18_IterOpsINS_17_ClassicAlgPolicyEE12__advance_toB7v160006IPKcEEvRT_S6_, symObjAddr: 0x1A7D8, symBinAddr: 0x10002B4A4, symSize: 0x20 }
  - { offsetInCU: 0x30B43, offset: 0x5F776, size: 0x8, addend: 0x0, symName: __ZNKSt3__110__identityclIRKcEEOT_S5_, symObjAddr: 0x1A8C0, symBinAddr: 0x10002B58C, symSize: 0x18 }
  - { offsetInCU: 0x30B7E, offset: 0x5F7B1, size: 0x8, addend: 0x0, symName: __ZNKSt3__110__identityclIRcEEOT_S4_, symObjAddr: 0x1A8D8, symBinAddr: 0x10002B5A4, symSize: 0x18 }
  - { offsetInCU: 0x30BBE, offset: 0x5F7F1, size: 0x8, addend: 0x0, symName: __ZNSt3__14pairIPKcS2_EC1B7v160006IRS2_S2_LPv0EEEOT_OT0_, symObjAddr: 0x1A8F0, symBinAddr: 0x10002B5BC, symSize: 0x3C }
  - { offsetInCU: 0x30C1B, offset: 0x5F84E, size: 0x8, addend: 0x0, symName: __ZNSt3__14pairIPKcS2_EC2B7v160006IRS2_S2_LPv0EEEOT_OT0_, symObjAddr: 0x1A92C, symBinAddr: 0x10002B5F8, symSize: 0x34 }
  - { offsetInCU: 0x30C78, offset: 0x5F8AB, size: 0x8, addend: 0x0, symName: __ZNKSt3__112regex_traitsIcE20__lookup_collatenameIPKcEENS_12basic_stringIcNS_11char_traitsIcEENS_9allocatorIcEEEET_SB_c, symObjAddr: 0x1A960, symBinAddr: 0x10002B62C, symSize: 0x220 }
  - { offsetInCU: 0x30D26, offset: 0x5F959, size: 0x8, addend: 0x0, symName: __ZNSt3__112basic_stringIcNS_11char_traitsIcEENS_9allocatorIcEEEC1B7v160006IPKcvEET_S9_, symObjAddr: 0x1AB80, symBinAddr: 0x10002B84C, symSize: 0x3C }
  - { offsetInCU: 0x30D77, offset: 0x5F9AA, size: 0x8, addend: 0x0, symName: __ZNSt3__112basic_stringIcNS_11char_traitsIcEENS_9allocatorIcEEEC2B7v160006IPKcvEET_S9_, symObjAddr: 0x1ABBC, symBinAddr: 0x10002B888, symSize: 0x54 }
  - { offsetInCU: 0x30DC8, offset: 0x5F9FB, size: 0x8, addend: 0x0, symName: __ZNSt3__112basic_stringIcNS_11char_traitsIcEENS_9allocatorIcEEE6__initIPKcEENS_9enable_ifIXsr27__is_cpp17_forward_iteratorIT_EE5valueEvE4typeESA_SA_, symObjAddr: 0x1AC10, symBinAddr: 0x10002B8DC, symSize: 0x158 }
  - { offsetInCU: 0x30E51, offset: 0x5FA84, size: 0x8, addend: 0x0, symName: __ZNKSt3__112regex_traitsIcE19__transform_primaryINS_11__wrap_iterIPcEEEENS_12basic_stringIcNS_11char_traitsIcEENS_9allocatorIcEEEET_SC_c, symObjAddr: 0x1ADB4, symBinAddr: 0x10002BA80, symSize: 0x1AC }
  - { offsetInCU: 0x30EFD, offset: 0x5FB30, size: 0x8, addend: 0x0, symName: __ZNSt3__112basic_stringIcNS_11char_traitsIcEENS_9allocatorIcEEEC1B7v160006INS_11__wrap_iterIPcEEvEET_SA_, symObjAddr: 0x1AF60, symBinAddr: 0x10002BC2C, symSize: 0x3C }
  - { offsetInCU: 0x30F4E, offset: 0x5FB81, size: 0x8, addend: 0x0, symName: __ZNSt3__112basic_stringIcNS_11char_traitsIcEENS_9allocatorIcEEEC2B7v160006INS_11__wrap_iterIPcEEvEET_SA_, symObjAddr: 0x1AF9C, symBinAddr: 0x10002BC68, symSize: 0x64 }
  - { offsetInCU: 0x30F9F, offset: 0x5FBD2, size: 0x8, addend: 0x0, symName: __ZNSt3__112basic_stringIcNS_11char_traitsIcEENS_9allocatorIcEEE6__initINS_11__wrap_iterIPcEEEENS_9enable_ifIXsr27__is_cpp17_forward_iteratorIT_EE5valueEvE4typeESB_SB_, symObjAddr: 0x1B000, symBinAddr: 0x10002BCCC, symSize: 0x170 }
  - { offsetInCU: 0x31028, offset: 0x5FC5B, size: 0x8, addend: 0x0, symName: __ZNKSt3__111__wrap_iterIPcEdeB7v160006Ev, symObjAddr: 0x1B1E0, symBinAddr: 0x10002BEAC, symSize: 0x18 }
  - { offsetInCU: 0x3104C, offset: 0x5FC7F, size: 0x8, addend: 0x0, symName: __ZNSt3__111__wrap_iterIPcEppB7v160006Ev, symObjAddr: 0x1B1F8, symBinAddr: 0x10002BEC4, symSize: 0x20 }
  - { offsetInCU: 0x31070, offset: 0x5FCA3, size: 0x8, addend: 0x0, symName: __ZNKSt3__111__wrap_iterIPcE4baseB7v160006Ev, symObjAddr: 0x1B288, symBinAddr: 0x10002BF54, symSize: 0x18 }
  - { offsetInCU: 0x31094, offset: 0x5FCC7, size: 0x8, addend: 0x0, symName: __ZNSt3__112basic_stringIcNS_11char_traitsIcEENS_9allocatorIcEEE15__make_iteratorB7v160006EPc, symObjAddr: 0x1B2E8, symBinAddr: 0x10002BFB4, symSize: 0x34 }
  - { offsetInCU: 0x310C7, offset: 0x5FCFA, size: 0x8, addend: 0x0, symName: __ZNSt3__111__wrap_iterIPcEC1B7v160006EPKvS1_, symObjAddr: 0x1B31C, symBinAddr: 0x10002BFE8, symSize: 0x3C }
  - { offsetInCU: 0x3110B, offset: 0x5FD3E, size: 0x8, addend: 0x0, symName: __ZNSt3__111__wrap_iterIPcEC2B7v160006EPKvS1_, symObjAddr: 0x1B358, symBinAddr: 0x10002C024, symSize: 0x24 }
  - { offsetInCU: 0x3114F, offset: 0x5FD82, size: 0x8, addend: 0x0, symName: __ZNSt3__16vectorINS_12basic_stringIcNS_11char_traitsIcEENS_9allocatorIcEEEENS4_IS6_EEE9push_backB7v160006ERKS6_, symObjAddr: 0x1B37C, symBinAddr: 0x10002C048, symSize: 0x6C }
  - { offsetInCU: 0x31184, offset: 0x5FDB7, size: 0x8, addend: 0x0, symName: __ZNSt3__16vectorINS_12basic_stringIcNS_11char_traitsIcEENS_9allocatorIcEEEENS4_IS6_EEE9__end_capB7v160006Ev, symObjAddr: 0x1B3E8, symBinAddr: 0x10002C0B4, symSize: 0x28 }
  - { offsetInCU: 0x311A8, offset: 0x5FDDB, size: 0x8, addend: 0x0, symName: __ZNSt3__16vectorINS_12basic_stringIcNS_11char_traitsIcEENS_9allocatorIcEEEENS4_IS6_EEE22__construct_one_at_endB7v160006IJRKS6_EEEvDpOT_, symObjAddr: 0x1B410, symBinAddr: 0x10002C0DC, symSize: 0x90 }
  - { offsetInCU: 0x311F6, offset: 0x5FE29, size: 0x8, addend: 0x0, symName: __ZNSt3__16vectorINS_12basic_stringIcNS_11char_traitsIcEENS_9allocatorIcEEEENS4_IS6_EEE21__push_back_slow_pathIRKS6_EEvOT_, symObjAddr: 0x1B4A0, symBinAddr: 0x10002C16C, symSize: 0xD8 }
  - { offsetInCU: 0x31252, offset: 0x5FE85, size: 0x8, addend: 0x0, symName: __ZNSt3__117__compressed_pairIPNS_12basic_stringIcNS_11char_traitsIcEENS_9allocatorIcEEEENS4_IS6_EEE5firstB7v160006Ev, symObjAddr: 0x1B578, symBinAddr: 0x10002C244, symSize: 0x24 }
  - { offsetInCU: 0x31276, offset: 0x5FEA9, size: 0x8, addend: 0x0, symName: __ZNSt3__122__compressed_pair_elemIPNS_12basic_stringIcNS_11char_traitsIcEENS_9allocatorIcEEEELi0ELb0EE5__getB7v160006Ev, symObjAddr: 0x1B59C, symBinAddr: 0x10002C268, symSize: 0x14 }
  - { offsetInCU: 0x312B3, offset: 0x5FEE6, size: 0x8, addend: 0x0, symName: __ZNSt3__16vectorINS_12basic_stringIcNS_11char_traitsIcEENS_9allocatorIcEEEENS4_IS6_EEE21_ConstructTransactionC1B7v160006ERS8_m, symObjAddr: 0x1B5B0, symBinAddr: 0x10002C27C, symSize: 0x3C }
  - { offsetInCU: 0x312F9, offset: 0x5FF2C, size: 0x8, addend: 0x0, symName: __ZNSt3__116allocator_traitsINS_9allocatorINS_12basic_stringIcNS_11char_traitsIcEENS1_IcEEEEEEE9constructB7v160006IS6_JRKS6_EvEEvRS7_PT_DpOT0_, symObjAddr: 0x1B5EC, symBinAddr: 0x10002C2B8, symSize: 0x34 }
  - { offsetInCU: 0x31351, offset: 0x5FF84, size: 0x8, addend: 0x0, symName: __ZNSt3__16vectorINS_12basic_stringIcNS_11char_traitsIcEENS_9allocatorIcEEEENS4_IS6_EEE21_ConstructTransactionD1B7v160006Ev, symObjAddr: 0x1B620, symBinAddr: 0x10002C2EC, symSize: 0x2C }
  - { offsetInCU: 0x31379, offset: 0x5FFAC, size: 0x8, addend: 0x0, symName: __ZNSt3__16vectorINS_12basic_stringIcNS_11char_traitsIcEENS_9allocatorIcEEEENS4_IS6_EEE21_ConstructTransactionC2B7v160006ERS8_m, symObjAddr: 0x1B64C, symBinAddr: 0x10002C318, symSize: 0x4C }
  - { offsetInCU: 0x313BF, offset: 0x5FFF2, size: 0x8, addend: 0x0, symName: __ZNSt3__19allocatorINS_12basic_stringIcNS_11char_traitsIcEENS0_IcEEEEE9constructB7v160006IS5_JRKS5_EEEvPT_DpOT0_, symObjAddr: 0x1B698, symBinAddr: 0x10002C364, symSize: 0x30 }
  - { offsetInCU: 0x31414, offset: 0x60047, size: 0x8, addend: 0x0, symName: __ZNSt3__16vectorINS_12basic_stringIcNS_11char_traitsIcEENS_9allocatorIcEEEENS4_IS6_EEE21_ConstructTransactionD2B7v160006Ev, symObjAddr: 0x1B6C8, symBinAddr: 0x10002C394, symSize: 0x20 }
  - { offsetInCU: 0x3143C, offset: 0x6006F, size: 0x8, addend: 0x0, symName: __ZNKSt3__16vectorINS_12basic_stringIcNS_11char_traitsIcEENS_9allocatorIcEEEENS4_IS6_EEE11__recommendB7v160006Em, symObjAddr: 0x1B6E8, symBinAddr: 0x10002C3B4, symSize: 0xB4 }
  - { offsetInCU: 0x3148F, offset: 0x600C2, size: 0x8, addend: 0x0, symName: __ZNSt3__114__split_bufferINS_12basic_stringIcNS_11char_traitsIcEENS_9allocatorIcEEEERNS4_IS6_EEEC1EmmS8_, symObjAddr: 0x1B79C, symBinAddr: 0x10002C468, symSize: 0x44 }
  - { offsetInCU: 0x314E4, offset: 0x60117, size: 0x8, addend: 0x0, symName: __ZNSt3__114__split_bufferINS_12basic_stringIcNS_11char_traitsIcEENS_9allocatorIcEEEERNS4_IS6_EEED1Ev, symObjAddr: 0x1B8F8, symBinAddr: 0x10002C5C4, symSize: 0x2C }
  - { offsetInCU: 0x3150F, offset: 0x60142, size: 0x8, addend: 0x0, symName: __ZNKSt3__16vectorINS_12basic_stringIcNS_11char_traitsIcEENS_9allocatorIcEEEENS4_IS6_EEE8max_sizeEv, symObjAddr: 0x1B924, symBinAddr: 0x10002C5F0, symSize: 0x60 }
  - { offsetInCU: 0x31535, offset: 0x60168, size: 0x8, addend: 0x0, symName: __ZNKSt3__16vectorINS_12basic_stringIcNS_11char_traitsIcEENS_9allocatorIcEEEENS4_IS6_EEE20__throw_length_errorB7v160006Ev, symObjAddr: 0x1B984, symBinAddr: 0x10002C650, symSize: 0x1C }
  - { offsetInCU: 0x31563, offset: 0x60196, size: 0x8, addend: 0x0, symName: __ZNSt3__116allocator_traitsINS_9allocatorINS_12basic_stringIcNS_11char_traitsIcEENS1_IcEEEEEEE8max_sizeB7v160006IS7_vEEmRKS7_, symObjAddr: 0x1B9A0, symBinAddr: 0x10002C66C, symSize: 0x24 }
  - { offsetInCU: 0x31591, offset: 0x601C4, size: 0x8, addend: 0x0, symName: __ZNKSt3__16vectorINS_12basic_stringIcNS_11char_traitsIcEENS_9allocatorIcEEEENS4_IS6_EEE7__allocB7v160006Ev, symObjAddr: 0x1B9C4, symBinAddr: 0x10002C690, symSize: 0x28 }
  - { offsetInCU: 0x315B5, offset: 0x601E8, size: 0x8, addend: 0x0, symName: __ZNKSt3__19allocatorINS_12basic_stringIcNS_11char_traitsIcEENS0_IcEEEEE8max_sizeB7v160006Ev, symObjAddr: 0x1B9EC, symBinAddr: 0x10002C6B8, symSize: 0x18 }
  - { offsetInCU: 0x315D9, offset: 0x6020C, size: 0x8, addend: 0x0, symName: __ZNKSt3__117__compressed_pairIPNS_12basic_stringIcNS_11char_traitsIcEENS_9allocatorIcEEEENS4_IS6_EEE6secondB7v160006Ev, symObjAddr: 0x1BA04, symBinAddr: 0x10002C6D0, symSize: 0x24 }
  - { offsetInCU: 0x315FD, offset: 0x60230, size: 0x8, addend: 0x0, symName: __ZNKSt3__122__compressed_pair_elemINS_9allocatorINS_12basic_stringIcNS_11char_traitsIcEENS1_IcEEEEEELi1ELb1EE5__getB7v160006Ev, symObjAddr: 0x1BA28, symBinAddr: 0x10002C6F4, symSize: 0x14 }
  - { offsetInCU: 0x31621, offset: 0x60254, size: 0x8, addend: 0x0, symName: __ZNSt3__114__split_bufferINS_12basic_stringIcNS_11char_traitsIcEENS_9allocatorIcEEEERNS4_IS6_EEEC2EmmS8_, symObjAddr: 0x1BA3C, symBinAddr: 0x10002C708, symSize: 0xE0 }
  - { offsetInCU: 0x31694, offset: 0x602C7, size: 0x8, addend: 0x0, symName: __ZNSt3__117__compressed_pairIPNS_12basic_stringIcNS_11char_traitsIcEENS_9allocatorIcEEEERNS4_IS6_EEEC1B7v160006IDnS9_EEOT_OT0_, symObjAddr: 0x1BB1C, symBinAddr: 0x10002C7E8, symSize: 0x3C }
  - { offsetInCU: 0x316EA, offset: 0x6031D, size: 0x8, addend: 0x0, symName: __ZNSt3__114__split_bufferINS_12basic_stringIcNS_11char_traitsIcEENS_9allocatorIcEEEERNS4_IS6_EEE7__allocB7v160006Ev, symObjAddr: 0x1BB98, symBinAddr: 0x10002C864, symSize: 0x28 }
  - { offsetInCU: 0x3170E, offset: 0x60341, size: 0x8, addend: 0x0, symName: __ZNSt3__114__split_bufferINS_12basic_stringIcNS_11char_traitsIcEENS_9allocatorIcEEEERNS4_IS6_EEE9__end_capB7v160006Ev, symObjAddr: 0x1BBC0, symBinAddr: 0x10002C88C, symSize: 0x28 }
  - { offsetInCU: 0x31732, offset: 0x60365, size: 0x8, addend: 0x0, symName: __ZNSt3__117__compressed_pairIPNS_12basic_stringIcNS_11char_traitsIcEENS_9allocatorIcEEEERNS4_IS6_EEEC2B7v160006IDnS9_EEOT_OT0_, symObjAddr: 0x1BBE8, symBinAddr: 0x10002C8B4, symSize: 0x48 }
  - { offsetInCU: 0x31788, offset: 0x603BB, size: 0x8, addend: 0x0, symName: __ZNSt3__122__compressed_pair_elemIRNS_9allocatorINS_12basic_stringIcNS_11char_traitsIcEENS1_IcEEEEEELi1ELb0EEC2B7v160006IS8_vEEOT_, symObjAddr: 0x1BC30, symBinAddr: 0x10002C8FC, symSize: 0x20 }
  - { offsetInCU: 0x317C9, offset: 0x603FC, size: 0x8, addend: 0x0, symName: __ZNSt3__19allocatorINS_12basic_stringIcNS_11char_traitsIcEENS0_IcEEEEE8allocateB7v160006Em, symObjAddr: 0x1BC50, symBinAddr: 0x10002C91C, symSize: 0x5C }
  - { offsetInCU: 0x317FB, offset: 0x6042E, size: 0x8, addend: 0x0, symName: __ZNSt3__117__compressed_pairIPNS_12basic_stringIcNS_11char_traitsIcEENS_9allocatorIcEEEERNS4_IS6_EEE6secondB7v160006Ev, symObjAddr: 0x1BCAC, symBinAddr: 0x10002C978, symSize: 0x28 }
  - { offsetInCU: 0x3181F, offset: 0x60452, size: 0x8, addend: 0x0, symName: __ZNSt3__122__compressed_pair_elemIRNS_9allocatorINS_12basic_stringIcNS_11char_traitsIcEENS1_IcEEEEEELi1ELb0EE5__getB7v160006Ev, symObjAddr: 0x1BCD4, symBinAddr: 0x10002C9A0, symSize: 0x18 }
  - { offsetInCU: 0x31843, offset: 0x60476, size: 0x8, addend: 0x0, symName: __ZNSt3__117__compressed_pairIPNS_12basic_stringIcNS_11char_traitsIcEENS_9allocatorIcEEEERNS4_IS6_EEE5firstB7v160006Ev, symObjAddr: 0x1BCEC, symBinAddr: 0x10002C9B8, symSize: 0x24 }
  - { offsetInCU: 0x31867, offset: 0x6049A, size: 0x8, addend: 0x0, symName: __ZNSt3__116reverse_iteratorIPNS_12basic_stringIcNS_11char_traitsIcEENS_9allocatorIcEEEEEC1B7v160006ES7_, symObjAddr: 0x1BE3C, symBinAddr: 0x10002CB08, symSize: 0x34 }
  - { offsetInCU: 0x3189D, offset: 0x604D0, size: 0x8, addend: 0x0, symName: __ZNKSt3__116reverse_iteratorIPNS_12basic_stringIcNS_11char_traitsIcEENS_9allocatorIcEEEEE4baseB7v160006Ev, symObjAddr: 0x1BE70, symBinAddr: 0x10002CB3C, symSize: 0x18 }
  - { offsetInCU: 0x318C1, offset: 0x604F4, size: 0x8, addend: 0x0, symName: __ZNKSt3__16vectorINS_12basic_stringIcNS_11char_traitsIcEENS_9allocatorIcEEEENS4_IS6_EEE14__annotate_newB7v160006Em, symObjAddr: 0x1BEC4, symBinAddr: 0x10002CB90, symSize: 0xC8 }
  - { offsetInCU: 0x318F4, offset: 0x60527, size: 0x8, addend: 0x0, symName: __ZNSt3__129_AllocatorDestroyRangeReverseINS_9allocatorINS_12basic_stringIcNS_11char_traitsIcEENS1_IcEEEEEENS_16reverse_iteratorIPS6_EEEC1B7v160006ERS7_RSA_SD_, symObjAddr: 0x1BFE8, symBinAddr: 0x10002CCB4, symSize: 0x44 }
  - { offsetInCU: 0x3194E, offset: 0x60581, size: 0x8, addend: 0x0, symName: __ZNSt3__116allocator_traitsINS_9allocatorINS_12basic_stringIcNS_11char_traitsIcEENS1_IcEEEEEEE9constructB7v160006IS6_JS6_EvEEvRS7_PT_DpOT0_, symObjAddr: 0x1C074, symBinAddr: 0x10002CD40, symSize: 0x34 }
  - { offsetInCU: 0x319A6, offset: 0x605D9, size: 0x8, addend: 0x0, symName: __ZNKSt3__116reverse_iteratorIPNS_12basic_stringIcNS_11char_traitsIcEENS_9allocatorIcEEEEEdeB7v160006Ev, symObjAddr: 0x1C0CC, symBinAddr: 0x10002CD98, symSize: 0x28 }
  - { offsetInCU: 0x319D8, offset: 0x6060B, size: 0x8, addend: 0x0, symName: __ZNSt3__116reverse_iteratorIPNS_12basic_stringIcNS_11char_traitsIcEENS_9allocatorIcEEEEEppB7v160006Ev, symObjAddr: 0x1C0F4, symBinAddr: 0x10002CDC0, symSize: 0x20 }
  - { offsetInCU: 0x319FC, offset: 0x6062F, size: 0x8, addend: 0x0, symName: __ZNSt3__128__exception_guard_exceptionsINS_29_AllocatorDestroyRangeReverseINS_9allocatorINS_12basic_stringIcNS_11char_traitsIcEENS2_IcEEEEEENS_16reverse_iteratorIPS7_EEEEE10__completeB7v160006Ev, symObjAddr: 0x1C114, symBinAddr: 0x10002CDE0, symSize: 0x1C }
  - { offsetInCU: 0x31A20, offset: 0x60653, size: 0x8, addend: 0x0, symName: __ZNSt3__128__exception_guard_exceptionsINS_29_AllocatorDestroyRangeReverseINS_9allocatorINS_12basic_stringIcNS_11char_traitsIcEENS2_IcEEEEEENS_16reverse_iteratorIPS7_EEEEED1B7v160006Ev, symObjAddr: 0x1C130, symBinAddr: 0x10002CDFC, symSize: 0x2C }
  - { offsetInCU: 0x31A48, offset: 0x6067B, size: 0x8, addend: 0x0, symName: __ZNSt3__128__exception_guard_exceptionsINS_29_AllocatorDestroyRangeReverseINS_9allocatorINS_12basic_stringIcNS_11char_traitsIcEENS2_IcEEEEEENS_16reverse_iteratorIPS7_EEEEEC1B7v160006ESC_, symObjAddr: 0x1C15C, symBinAddr: 0x10002CE28, symSize: 0x34 }
  - { offsetInCU: 0x31A7F, offset: 0x606B2, size: 0x8, addend: 0x0, symName: __ZNSt3__128__exception_guard_exceptionsINS_29_AllocatorDestroyRangeReverseINS_9allocatorINS_12basic_stringIcNS_11char_traitsIcEENS2_IcEEEEEENS_16reverse_iteratorIPS7_EEEEEC2B7v160006ESC_, symObjAddr: 0x1C190, symBinAddr: 0x10002CE5C, symSize: 0x30 }
  - { offsetInCU: 0x31AB6, offset: 0x606E9, size: 0x8, addend: 0x0, symName: __ZNSt3__129_AllocatorDestroyRangeReverseINS_9allocatorINS_12basic_stringIcNS_11char_traitsIcEENS1_IcEEEEEENS_16reverse_iteratorIPS6_EEEC2B7v160006ERS7_RSA_SD_, symObjAddr: 0x1C1C0, symBinAddr: 0x10002CE8C, symSize: 0x38 }
  - { offsetInCU: 0x31B0B, offset: 0x6073E, size: 0x8, addend: 0x0, symName: __ZNSt3__19allocatorINS_12basic_stringIcNS_11char_traitsIcEENS0_IcEEEEE9constructB7v160006IS5_JS5_EEEvPT_DpOT0_, symObjAddr: 0x1C1F8, symBinAddr: 0x10002CEC4, symSize: 0x30 }
  - { offsetInCU: 0x31B65, offset: 0x60798, size: 0x8, addend: 0x0, symName: __ZNSt3__119__to_address_helperINS_16reverse_iteratorIPNS_12basic_stringIcNS_11char_traitsIcEENS_9allocatorIcEEEEEEvE6__callB7v160006ERKS9_, symObjAddr: 0x1C228, symBinAddr: 0x10002CEF4, symSize: 0x38 }
  - { offsetInCU: 0x31B87, offset: 0x607BA, size: 0x8, addend: 0x0, symName: __ZNKSt3__116reverse_iteratorIPNS_12basic_stringIcNS_11char_traitsIcEENS_9allocatorIcEEEEEptB7v160006Ev, symObjAddr: 0x1C260, symBinAddr: 0x10002CF2C, symSize: 0x24 }
  - { offsetInCU: 0x31BAB, offset: 0x607DE, size: 0x8, addend: 0x0, symName: __ZNSt3__128__exception_guard_exceptionsINS_29_AllocatorDestroyRangeReverseINS_9allocatorINS_12basic_stringIcNS_11char_traitsIcEENS2_IcEEEEEENS_16reverse_iteratorIPS7_EEEEED2B7v160006Ev, symObjAddr: 0x1C284, symBinAddr: 0x10002CF50, symSize: 0x50 }
  - { offsetInCU: 0x31BD3, offset: 0x60806, size: 0x8, addend: 0x0, symName: __ZNKSt3__129_AllocatorDestroyRangeReverseINS_9allocatorINS_12basic_stringIcNS_11char_traitsIcEENS1_IcEEEEEENS_16reverse_iteratorIPS6_EEEclB7v160006Ev, symObjAddr: 0x1C2D4, symBinAddr: 0x10002CFA0, symSize: 0xB4 }
  - { offsetInCU: 0x31BF8, offset: 0x6082B, size: 0x8, addend: 0x0, symName: __ZNSt3__116reverse_iteratorINS0_IPNS_12basic_stringIcNS_11char_traitsIcEENS_9allocatorIcEEEEEEEC1B7v160006ES8_, symObjAddr: 0x1C3F8, symBinAddr: 0x10002D0C4, symSize: 0x3C }
  - { offsetInCU: 0x31C2E, offset: 0x60861, size: 0x8, addend: 0x0, symName: __ZNSt3__116reverse_iteratorINS0_IPNS_12basic_stringIcNS_11char_traitsIcEENS_9allocatorIcEEEEEEEppB7v160006Ev, symObjAddr: 0x1C4B8, symBinAddr: 0x10002D184, symSize: 0x30 }
  - { offsetInCU: 0x31C52, offset: 0x60885, size: 0x8, addend: 0x0, symName: __ZNKSt3__116reverse_iteratorINS0_IPNS_12basic_stringIcNS_11char_traitsIcEENS_9allocatorIcEEEEEEE4baseB7v160006Ev, symObjAddr: 0x1C4E8, symBinAddr: 0x10002D1B4, symSize: 0x24 }
  - { offsetInCU: 0x31C7B, offset: 0x608AE, size: 0x8, addend: 0x0, symName: __ZNSt3__119__to_address_helperINS_16reverse_iteratorINS1_IPNS_12basic_stringIcNS_11char_traitsIcEENS_9allocatorIcEEEEEEEEvE6__callB7v160006ERKSA_, symObjAddr: 0x1C50C, symBinAddr: 0x10002D1D8, symSize: 0x38 }
  - { offsetInCU: 0x31C9D, offset: 0x608D0, size: 0x8, addend: 0x0, symName: __ZNKSt3__116reverse_iteratorINS0_IPNS_12basic_stringIcNS_11char_traitsIcEENS_9allocatorIcEEEEEEEptB7v160006Ev, symObjAddr: 0x1C544, symBinAddr: 0x10002D210, symSize: 0x24 }
  - { offsetInCU: 0x31CC1, offset: 0x608F4, size: 0x8, addend: 0x0, symName: __ZNKSt3__116reverse_iteratorINS0_IPNS_12basic_stringIcNS_11char_traitsIcEENS_9allocatorIcEEEEEEEdeB7v160006Ev, symObjAddr: 0x1C568, symBinAddr: 0x10002D234, symSize: 0x34 }
  - { offsetInCU: 0x31CF3, offset: 0x60926, size: 0x8, addend: 0x0, symName: __ZNSt3__116reverse_iteratorIPNS_12basic_stringIcNS_11char_traitsIcEENS_9allocatorIcEEEEEmmB7v160006Ev, symObjAddr: 0x1C59C, symBinAddr: 0x10002D268, symSize: 0x20 }
  - { offsetInCU: 0x31D17, offset: 0x6094A, size: 0x8, addend: 0x0, symName: __ZNSt3__116reverse_iteratorINS0_IPNS_12basic_stringIcNS_11char_traitsIcEENS_9allocatorIcEEEEEEEC2B7v160006ES8_, symObjAddr: 0x1C5BC, symBinAddr: 0x10002D288, symSize: 0x2C }
  - { offsetInCU: 0x31D4D, offset: 0x60980, size: 0x8, addend: 0x0, symName: __ZNSt3__116reverse_iteratorIPNS_12basic_stringIcNS_11char_traitsIcEENS_9allocatorIcEEEEEC2B7v160006ES7_, symObjAddr: 0x1C5E8, symBinAddr: 0x10002D2B4, symSize: 0x28 }
  - { offsetInCU: 0x31D83, offset: 0x609B6, size: 0x8, addend: 0x0, symName: __ZNSt3__114__split_bufferINS_12basic_stringIcNS_11char_traitsIcEENS_9allocatorIcEEEERNS4_IS6_EEED2Ev, symObjAddr: 0x1C610, symBinAddr: 0x10002D2DC, symSize: 0x8C }
  - { offsetInCU: 0x31DAE, offset: 0x609E1, size: 0x8, addend: 0x0, symName: __ZNSt3__114__split_bufferINS_12basic_stringIcNS_11char_traitsIcEENS_9allocatorIcEEEERNS4_IS6_EEE5clearB7v160006Ev, symObjAddr: 0x1C69C, symBinAddr: 0x10002D368, symSize: 0x28 }
  - { offsetInCU: 0x31DD2, offset: 0x60A05, size: 0x8, addend: 0x0, symName: __ZNKSt3__114__split_bufferINS_12basic_stringIcNS_11char_traitsIcEENS_9allocatorIcEEEERNS4_IS6_EEE8capacityB7v160006Ev, symObjAddr: 0x1C6C4, symBinAddr: 0x10002D390, symSize: 0x40 }
  - { offsetInCU: 0x31DF6, offset: 0x60A29, size: 0x8, addend: 0x0, symName: __ZNSt3__114__split_bufferINS_12basic_stringIcNS_11char_traitsIcEENS_9allocatorIcEEEERNS4_IS6_EEE17__destruct_at_endB7v160006EPS6_, symObjAddr: 0x1C704, symBinAddr: 0x10002D3D0, symSize: 0x2C }
  - { offsetInCU: 0x31E28, offset: 0x60A5B, size: 0x8, addend: 0x0, symName: __ZNSt3__114__split_bufferINS_12basic_stringIcNS_11char_traitsIcEENS_9allocatorIcEEEERNS4_IS6_EEE17__destruct_at_endB7v160006EPS6_NS_17integral_constantIbLb0EEE, symObjAddr: 0x1C730, symBinAddr: 0x10002D3FC, symSize: 0x80 }
  - { offsetInCU: 0x31E66, offset: 0x60A99, size: 0x8, addend: 0x0, symName: __ZNKSt3__114__split_bufferINS_12basic_stringIcNS_11char_traitsIcEENS_9allocatorIcEEEERNS4_IS6_EEE9__end_capB7v160006Ev, symObjAddr: 0x1C7B0, symBinAddr: 0x10002D47C, symSize: 0x28 }
  - { offsetInCU: 0x31E8A, offset: 0x60ABD, size: 0x8, addend: 0x0, symName: __ZNKSt3__117__compressed_pairIPNS_12basic_stringIcNS_11char_traitsIcEENS_9allocatorIcEEEERNS4_IS6_EEE5firstB7v160006Ev, symObjAddr: 0x1C7D8, symBinAddr: 0x10002D4A4, symSize: 0x24 }
