---
triple:          'arm64-apple-darwin'
binary-path:     '/Users/kendallboesch/Desktop/CS3341-FoundationsOfModernComputing/Lab-1/lab-1-multithreading-kendallboesch/Code/toCompile/automated'
relocations:
  - { offsetInCU: 0x5578, offset: 0x5578, size: 0x8, addend: 0x0, symName: __ZNSt3__124__put_character_sequenceB7v160006IcNS_11char_traitsIcEEEERNS_13basic_ostreamIT_T0_EES7_PKS4_m, symObjAddr: 0x1624, symBinAddr: 0x100004630, symSize: 0x1EC }
  - { offsetInCU: 0x7816, offset: 0x7816, size: 0x8, addend: 0x0, symName: __ZNSt3__1lsB7v160006INS_11char_traitsIcEEEERNS_13basic_ostreamIcT_EES6_PKc, symObjAddr: 0x338, symBinAddr: 0x100003344, symSize: 0x48 }
  - { offsetInCU: 0x785C, offset: 0x785C, size: 0x8, addend: 0x0, symName: __ZNSt3__14endlB7v160006IcNS_11char_traitsIcEEEERNS_13basic_ostreamIT_T0_EES7_, symObjAddr: 0x3AC, symBinAddr: 0x1000033B8, symSize: 0x58 }
  - { offsetInCU: 0x7B65, offset: 0x7B65, size: 0x8, addend: 0x0, symName: __ZNSt3__1lsB7v160006IcNS_11char_traitsIcEENS_9allocatorIcEEEERNS_13basic_ostreamIT_T0_EES9_RKNS_12basic_stringIS6_S7_T1_EE, symObjAddr: 0x528, symBinAddr: 0x100003534, symSize: 0x4C }
  - { offsetInCU: 0x7C4A, offset: 0x7C4A, size: 0x8, addend: 0x0, symName: __ZNSt3__118__debug_db_erase_cB7v160006INS_6vectorI5ErrorNS_9allocatorIS2_EEEEEEvPT_, symObjAddr: 0xBC0, symBinAddr: 0x100003BCC, symSize: 0x10 }
  - { offsetInCU: 0x7C7B, offset: 0x7C7B, size: 0x8, addend: 0x0, symName: __ZNSt3__112__to_addressB7v160006I5ErrorEEPT_S3_, symObjAddr: 0xD04, symBinAddr: 0x100003D10, symSize: 0x14 }
  - { offsetInCU: 0x7CB0, offset: 0x7CB0, size: 0x8, addend: 0x0, symName: __ZNSt3__119__libcpp_deallocateB7v160006EPvmm, symObjAddr: 0xEAC, symBinAddr: 0x100003EB8, symSize: 0x60 }
  - { offsetInCU: 0x7D15, offset: 0x7D15, size: 0x8, addend: 0x0, symName: __ZNSt3__124__is_overaligned_for_newB7v160006Em, symObjAddr: 0xF0C, symBinAddr: 0x100003F18, symSize: 0x20 }
  - { offsetInCU: 0x7D43, offset: 0x7D43, size: 0x8, addend: 0x0, symName: __ZNSt3__127__do_deallocate_handle_sizeB7v160006IJSt11align_val_tEEEvPvmDpT_, symObjAddr: 0xF2C, symBinAddr: 0x100003F38, symSize: 0x30 }
  - { offsetInCU: 0x7D96, offset: 0x7D96, size: 0x8, addend: 0x0, symName: __ZNSt3__127__do_deallocate_handle_sizeB7v160006IJEEEvPvmDpT_, symObjAddr: 0xF5C, symBinAddr: 0x100003F68, symSize: 0x28 }
  - { offsetInCU: 0x7DD4, offset: 0x7DD4, size: 0x8, addend: 0x0, symName: __ZNSt3__124__libcpp_operator_deleteB7v160006IJPvSt11align_val_tEEEvDpT_, symObjAddr: 0xF84, symBinAddr: 0x100003F90, symSize: 0x2C }
  - { offsetInCU: 0x7E1D, offset: 0x7E1D, size: 0x8, addend: 0x0, symName: __ZNSt3__124__libcpp_operator_deleteB7v160006IJPvEEEvDpT_, symObjAddr: 0xFB0, symBinAddr: 0x100003FBC, symSize: 0x24 }
  - { offsetInCU: 0x7E52, offset: 0x7E52, size: 0x8, addend: 0x0, symName: __ZNSt3__17launderB7v160006INS_4pairIKNS_12basic_stringIcNS_11char_traitsIcEENS_9allocatorIcEEEENS_6vectorI5ErrorNS5_ISA_EEEEEEEEPT_SF_, symObjAddr: 0x1090, symBinAddr: 0x10000409C, symSize: 0x24 }
  - { offsetInCU: 0x7E89, offset: 0x7E89, size: 0x8, addend: 0x0, symName: __ZNSt3__19__launderB7v160006INS_4pairIKNS_12basic_stringIcNS_11char_traitsIcEENS_9allocatorIcEEEENS_6vectorI5ErrorNS5_ISA_EEEEEEEEPT_SF_, symObjAddr: 0x10B4, symBinAddr: 0x1000040C0, symSize: 0x14 }
  - { offsetInCU: 0x7EF3, offset: 0x7EF3, size: 0x8, addend: 0x0, symName: __ZNSt3__119__debug_db_insert_cB7v160006INS_12basic_stringIcNS_11char_traitsIcEENS_9allocatorIcEEEEEEvPT_, symObjAddr: 0x1214, symBinAddr: 0x100004220, symSize: 0x10 }
  - { offsetInCU: 0x7F24, offset: 0x7F24, size: 0x8, addend: 0x0, symName: __ZNSt3__112__to_addressB7v160006IKcEEPT_S3_, symObjAddr: 0x1380, symBinAddr: 0x10000438C, symSize: 0x14 }
  - { offsetInCU: 0x7F8C, offset: 0x7F8C, size: 0x8, addend: 0x0, symName: __ZNSt3__118__constexpr_strlenB7v160006EPKc, symObjAddr: 0x1550, symBinAddr: 0x10000455C, symSize: 0x24 }
  - { offsetInCU: 0x7FB8, offset: 0x7FB8, size: 0x8, addend: 0x0, symName: __ZNSt3__116__pad_and_outputB7v160006IcNS_11char_traitsIcEEEENS_19ostreambuf_iteratorIT_T0_EES6_PKS4_S8_S8_RNS_8ios_baseES4_, symObjAddr: 0x182C, symBinAddr: 0x100004838, symSize: 0x240 }
  - { offsetInCU: 0x8087, offset: 0x8087, size: 0x8, addend: 0x0, symName: __ZNSt3__112__to_addressB7v160006IcEEPT_S2_, symObjAddr: 0x1CA4, symBinAddr: 0x100004CB0, symSize: 0x14 }
  - { offsetInCU: 0x80EF, offset: 0x80EF, size: 0x8, addend: 0x0, symName: __ZNSt3__19use_facetB7v160006INS_5ctypeIcEEEERKT_RKNS_6localeE, symObjAddr: 0x1EB4, symBinAddr: 0x100004EC0, symSize: 0x2C }
  - { offsetInCU: 0xB1A7, offset: 0xB1A7, size: 0x8, addend: 0x0, symName: __ZN10CompileJob7executeEv, symObjAddr: 0x0, symBinAddr: 0x10000300C, symSize: 0x294 }
  - { offsetInCU: 0xB210, offset: 0xB210, size: 0x8, addend: 0x0, symName: __ZNSt3__112basic_stringIcNS_11char_traitsIcEENS_9allocatorIcEEEC1B7v160006IDnEEPKc, symObjAddr: 0x294, symBinAddr: 0x1000032A0, symSize: 0x34 }
  - { offsetInCU: 0xB24C, offset: 0xB24C, size: 0x8, addend: 0x0, symName: __ZNSt3__112basic_stringIcNS_11char_traitsIcEENS_9allocatorIcEEE6appendB7v160006ERKS5_, symObjAddr: 0x2C8, symBinAddr: 0x1000032D4, symSize: 0x4C }
  - { offsetInCU: 0xB280, offset: 0xB280, size: 0x8, addend: 0x0, symName: __ZNKSt3__112basic_stringIcNS_11char_traitsIcEENS_9allocatorIcEEE5c_strB7v160006Ev, symObjAddr: 0x314, symBinAddr: 0x100003320, symSize: 0x24 }
  - { offsetInCU: 0xB2A5, offset: 0xB2A5, size: 0x8, addend: 0x0, symName: __ZNSt3__113basic_ostreamIcNS_11char_traitsIcEEElsB7v160006EPFRS3_S4_E, symObjAddr: 0x380, symBinAddr: 0x10000338C, symSize: 0x2C }
  - { offsetInCU: 0xB2D8, offset: 0xB2D8, size: 0x8, addend: 0x0, symName: __ZNSt3__112basic_stringIcNS_11char_traitsIcEENS_9allocatorIcEEEC1B7v160006Ev, symObjAddr: 0x404, symBinAddr: 0x100003410, symSize: 0x2C }
  - { offsetInCU: 0xB338, offset: 0xB338, size: 0x8, addend: 0x0, symName: __ZNSt3__15arrayIcLm128EE4dataB7v160006Ev, symObjAddr: 0x430, symBinAddr: 0x10000343C, symSize: 0x14 }
  - { offsetInCU: 0xB35D, offset: 0xB35D, size: 0x8, addend: 0x0, symName: __ZNK3Job11getUniqueIDEv, symObjAddr: 0x444, symBinAddr: 0x100003450, symSize: 0x18 }
  - { offsetInCU: 0xB381, offset: 0xB381, size: 0x8, addend: 0x0, symName: __ZN10CompileJob19jobCompleteCallbackEv, symObjAddr: 0x45C, symBinAddr: 0x100003468, symSize: 0xCC }
  - { offsetInCU: 0xB3A8, offset: 0xB3A8, size: 0x8, addend: 0x0, symName: __ZN10CompileJobD1Ev, symObjAddr: 0x574, symBinAddr: 0x100003580, symSize: 0x2C }
  - { offsetInCU: 0xB3D0, offset: 0xB3D0, size: 0x8, addend: 0x0, symName: __ZN10CompileJobD0Ev, symObjAddr: 0x5A0, symBinAddr: 0x1000035AC, symSize: 0x30 }
  - { offsetInCU: 0xB3F8, offset: 0xB3F8, size: 0x8, addend: 0x0, symName: __ZN10CompileJobD2Ev, symObjAddr: 0x5D0, symBinAddr: 0x1000035DC, symSize: 0x54 }
  - { offsetInCU: 0xB420, offset: 0xB420, size: 0x8, addend: 0x0, symName: __ZN3JobD2Ev, symObjAddr: 0x624, symBinAddr: 0x100003630, symSize: 0x58 }
  - { offsetInCU: 0xB448, offset: 0xB448, size: 0x8, addend: 0x0, symName: __ZNSt3__13mapINS_12basic_stringIcNS_11char_traitsIcEENS_9allocatorIcEEEENS_6vectorI5ErrorNS4_IS8_EEEENS_4lessIS6_EENS4_INS_4pairIKS6_SA_EEEEED1B7v160006Ev, symObjAddr: 0x67C, symBinAddr: 0x100003688, symSize: 0x2C }
  - { offsetInCU: 0xB470, offset: 0xB470, size: 0x8, addend: 0x0, symName: __ZN3JobD1Ev, symObjAddr: 0x6A8, symBinAddr: 0x1000036B4, symSize: 0x14 }
  - { offsetInCU: 0xB499, offset: 0xB499, size: 0x8, addend: 0x0, symName: __ZN3JobD0Ev, symObjAddr: 0x6BC, symBinAddr: 0x1000036C8, symSize: 0xC }
  - { offsetInCU: 0xB4C2, offset: 0xB4C2, size: 0x8, addend: 0x0, symName: __ZN3Job19jobCompleteCallbackEv, symObjAddr: 0x6C8, symBinAddr: 0x1000036D4, symSize: 0x10 }
  - { offsetInCU: 0xB4E7, offset: 0xB4E7, size: 0x8, addend: 0x0, symName: __ZNSt3__13mapINS_12basic_stringIcNS_11char_traitsIcEENS_9allocatorIcEEEENS_6vectorI5ErrorNS4_IS8_EEEENS_4lessIS6_EENS4_INS_4pairIKS6_SA_EEEEED2B7v160006Ev, symObjAddr: 0x6D8, symBinAddr: 0x1000036E4, symSize: 0x2C }
  - { offsetInCU: 0xB50F, offset: 0xB50F, size: 0x8, addend: 0x0, symName: __ZNSt3__16__treeINS_12__value_typeINS_12basic_stringIcNS_11char_traitsIcEENS_9allocatorIcEEEENS_6vectorI5ErrorNS5_IS9_EEEEEENS_19__map_value_compareIS7_SC_NS_4lessIS7_EELb1EEENS5_ISC_EEED1Ev, symObjAddr: 0x704, symBinAddr: 0x100003710, symSize: 0x2C }
  - { offsetInCU: 0xB53A, offset: 0xB53A, size: 0x8, addend: 0x0, symName: __ZNSt3__16__treeINS_12__value_typeINS_12basic_stringIcNS_11char_traitsIcEENS_9allocatorIcEEEENS_6vectorI5ErrorNS5_IS9_EEEEEENS_19__map_value_compareIS7_SC_NS_4lessIS7_EELb1EEENS5_ISC_EEED2Ev, symObjAddr: 0x730, symBinAddr: 0x10000373C, symSize: 0x38 }
  - { offsetInCU: 0xB565, offset: 0xB565, size: 0x8, addend: 0x0, symName: __ZNSt3__16__treeINS_12__value_typeINS_12basic_stringIcNS_11char_traitsIcEENS_9allocatorIcEEEENS_6vectorI5ErrorNS5_IS9_EEEEEENS_19__map_value_compareIS7_SC_NS_4lessIS7_EELb1EEENS5_ISC_EEE7destroyEPNS_11__tree_nodeISC_PvEE, symObjAddr: 0x768, symBinAddr: 0x100003774, symSize: 0xAC }
  - { offsetInCU: 0xB5B0, offset: 0xB5B0, size: 0x8, addend: 0x0, symName: __ZNKSt3__16__treeINS_12__value_typeINS_12basic_stringIcNS_11char_traitsIcEENS_9allocatorIcEEEENS_6vectorI5ErrorNS5_IS9_EEEEEENS_19__map_value_compareIS7_SC_NS_4lessIS7_EELb1EEENS5_ISC_EEE6__rootB7v160006Ev, symObjAddr: 0x814, symBinAddr: 0x100003820, symSize: 0x28 }
  - { offsetInCU: 0xB5D5, offset: 0xB5D5, size: 0x8, addend: 0x0, symName: __ZNSt3__16__treeINS_12__value_typeINS_12basic_stringIcNS_11char_traitsIcEENS_9allocatorIcEEEENS_6vectorI5ErrorNS5_IS9_EEEEEENS_19__map_value_compareIS7_SC_NS_4lessIS7_EELb1EEENS5_ISC_EEE12__node_allocB7v160006Ev, symObjAddr: 0x83C, symBinAddr: 0x100003848, symSize: 0x28 }
  - { offsetInCU: 0xB5FF, offset: 0xB5FF, size: 0x8, addend: 0x0, symName: __ZNSt3__116allocator_traitsINS_9allocatorINS_11__tree_nodeINS_12__value_typeINS_12basic_stringIcNS_11char_traitsIcEENS1_IcEEEENS_6vectorI5ErrorNS1_ISA_EEEEEEPvEEEEE7destroyB7v160006INS_4pairIKS8_SC_EEvvEEvRSG_PT_, symObjAddr: 0x864, symBinAddr: 0x100003870, symSize: 0x28 }
  - { offsetInCU: 0xB63A, offset: 0xB63A, size: 0x8, addend: 0x0, symName: __ZNSt3__122__tree_key_value_typesINS_12__value_typeINS_12basic_stringIcNS_11char_traitsIcEENS_9allocatorIcEEEENS_6vectorI5ErrorNS5_IS9_EEEEEEE9__get_ptrB7v160006ERSC_, symObjAddr: 0x88C, symBinAddr: 0x100003898, symSize: 0x24 }
  - { offsetInCU: 0xB65E, offset: 0xB65E, size: 0x8, addend: 0x0, symName: __ZNSt3__116allocator_traitsINS_9allocatorINS_11__tree_nodeINS_12__value_typeINS_12basic_stringIcNS_11char_traitsIcEENS1_IcEEEENS_6vectorI5ErrorNS1_ISA_EEEEEEPvEEEEE10deallocateB7v160006ERSG_PSF_m, symObjAddr: 0x8BC, symBinAddr: 0x1000038C8, symSize: 0x34 }
  - { offsetInCU: 0xB6A0, offset: 0xB6A0, size: 0x8, addend: 0x0, symName: __ZNSt3__117__compressed_pairINS_15__tree_end_nodeIPNS_16__tree_node_baseIPvEEEENS_9allocatorINS_11__tree_nodeINS_12__value_typeINS_12basic_stringIcNS_11char_traitsIcEENS7_IcEEEENS_6vectorI5ErrorNS7_ISG_EEEEEES3_EEEEE6secondB7v160006Ev, symObjAddr: 0x8F0, symBinAddr: 0x1000038FC, symSize: 0x24 }
  - { offsetInCU: 0xB6C5, offset: 0xB6C5, size: 0x8, addend: 0x0, symName: __ZNSt3__122__compressed_pair_elemINS_9allocatorINS_11__tree_nodeINS_12__value_typeINS_12basic_stringIcNS_11char_traitsIcEENS1_IcEEEENS_6vectorI5ErrorNS1_ISA_EEEEEEPvEEEELi1ELb1EE5__getB7v160006Ev, symObjAddr: 0x914, symBinAddr: 0x100003920, symSize: 0x14 }
  - { offsetInCU: 0xB6EA, offset: 0xB6EA, size: 0x8, addend: 0x0, symName: __ZNSt3__14pairIKNS_12basic_stringIcNS_11char_traitsIcEENS_9allocatorIcEEEENS_6vectorI5ErrorNS4_IS9_EEEEED1Ev, symObjAddr: 0x928, symBinAddr: 0x100003934, symSize: 0x2C }
  - { offsetInCU: 0xB715, offset: 0xB715, size: 0x8, addend: 0x0, symName: __ZNSt3__14pairIKNS_12basic_stringIcNS_11char_traitsIcEENS_9allocatorIcEEEENS_6vectorI5ErrorNS4_IS9_EEEEED2Ev, symObjAddr: 0x954, symBinAddr: 0x100003960, symSize: 0x38 }
  - { offsetInCU: 0xB740, offset: 0xB740, size: 0x8, addend: 0x0, symName: __ZNSt3__16vectorI5ErrorNS_9allocatorIS1_EEED1B7v160006Ev, symObjAddr: 0x98C, symBinAddr: 0x100003998, symSize: 0x2C }
  - { offsetInCU: 0xB768, offset: 0xB768, size: 0x8, addend: 0x0, symName: __ZNSt3__16vectorI5ErrorNS_9allocatorIS1_EEED2B7v160006Ev, symObjAddr: 0x9B8, symBinAddr: 0x1000039C4, symSize: 0x44 }
  - { offsetInCU: 0xB790, offset: 0xB790, size: 0x8, addend: 0x0, symName: __ZNSt3__16vectorI5ErrorNS_9allocatorIS1_EEE16__destroy_vectorC1ERS4_, symObjAddr: 0x9FC, symBinAddr: 0x100003A08, symSize: 0x34 }
  - { offsetInCU: 0xB7C7, offset: 0xB7C7, size: 0x8, addend: 0x0, symName: __ZNSt3__16vectorI5ErrorNS_9allocatorIS1_EEE16__destroy_vectorclB7v160006Ev, symObjAddr: 0xA30, symBinAddr: 0x100003A3C, symSize: 0x9C }
  - { offsetInCU: 0xB7EC, offset: 0xB7EC, size: 0x8, addend: 0x0, symName: __ZNSt3__16vectorI5ErrorNS_9allocatorIS1_EEE16__destroy_vectorC2ERS4_, symObjAddr: 0xACC, symBinAddr: 0x100003AD8, symSize: 0x20 }
  - { offsetInCU: 0xB824, offset: 0xB824, size: 0x8, addend: 0x0, symName: __ZNKSt3__16vectorI5ErrorNS_9allocatorIS1_EEE17__annotate_deleteB7v160006Ev, symObjAddr: 0xAEC, symBinAddr: 0x100003AF8, symSize: 0xD4 }
  - { offsetInCU: 0xB849, offset: 0xB849, size: 0x8, addend: 0x0, symName: __ZNSt3__16vectorI5ErrorNS_9allocatorIS1_EEE7__clearB7v160006Ev, symObjAddr: 0xBD0, symBinAddr: 0x100003BDC, symSize: 0x28 }
  - { offsetInCU: 0xB86E, offset: 0xB86E, size: 0x8, addend: 0x0, symName: __ZNSt3__116allocator_traitsINS_9allocatorI5ErrorEEE10deallocateB7v160006ERS3_PS2_m, symObjAddr: 0xBF8, symBinAddr: 0x100003C04, symSize: 0x34 }
  - { offsetInCU: 0xB8B0, offset: 0xB8B0, size: 0x8, addend: 0x0, symName: __ZNSt3__16vectorI5ErrorNS_9allocatorIS1_EEE7__allocB7v160006Ev, symObjAddr: 0xC2C, symBinAddr: 0x100003C38, symSize: 0x28 }
  - { offsetInCU: 0xB8D5, offset: 0xB8D5, size: 0x8, addend: 0x0, symName: __ZNKSt3__16vectorI5ErrorNS_9allocatorIS1_EEE8capacityB7v160006Ev, symObjAddr: 0xC54, symBinAddr: 0x100003C60, symSize: 0x40 }
  - { offsetInCU: 0xB8FA, offset: 0xB8FA, size: 0x8, addend: 0x0, symName: __ZNKSt3__16vectorI5ErrorNS_9allocatorIS1_EEE31__annotate_contiguous_containerB7v160006EPKvS6_S6_S6_, symObjAddr: 0xC94, symBinAddr: 0x100003CA0, symSize: 0x20 }
  - { offsetInCU: 0xB94F, offset: 0xB94F, size: 0x8, addend: 0x0, symName: __ZNKSt3__16vectorI5ErrorNS_9allocatorIS1_EEE4dataB7v160006Ev, symObjAddr: 0xCB4, symBinAddr: 0x100003CC0, symSize: 0x28 }
  - { offsetInCU: 0xB974, offset: 0xB974, size: 0x8, addend: 0x0, symName: __ZNKSt3__16vectorI5ErrorNS_9allocatorIS1_EEE4sizeB7v160006Ev, symObjAddr: 0xCDC, symBinAddr: 0x100003CE8, symSize: 0x28 }
  - { offsetInCU: 0xB999, offset: 0xB999, size: 0x8, addend: 0x0, symName: __ZNSt3__16vectorI5ErrorNS_9allocatorIS1_EEE22__base_destruct_at_endB7v160006EPS1_, symObjAddr: 0xD18, symBinAddr: 0x100003D24, symSize: 0x8C }
  - { offsetInCU: 0xB9DC, offset: 0xB9DC, size: 0x8, addend: 0x0, symName: __ZNSt3__116allocator_traitsINS_9allocatorI5ErrorEEE7destroyB7v160006IS2_vEEvRS3_PT_, symObjAddr: 0xDA4, symBinAddr: 0x100003DB0, symSize: 0x2C }
  - { offsetInCU: 0xBA19, offset: 0xBA19, size: 0x8, addend: 0x0, symName: __ZNSt3__19allocatorI5ErrorE7destroyB7v160006EPS1_, symObjAddr: 0xDD0, symBinAddr: 0x100003DDC, symSize: 0x28 }
  - { offsetInCU: 0xBA51, offset: 0xBA51, size: 0x8, addend: 0x0, symName: __ZN5ErrorD1Ev, symObjAddr: 0xDF8, symBinAddr: 0x100003E04, symSize: 0x2C }
  - { offsetInCU: 0xBA7C, offset: 0xBA7C, size: 0x8, addend: 0x0, symName: __ZN5ErrorD2Ev, symObjAddr: 0xE24, symBinAddr: 0x100003E30, symSize: 0x44 }
  - { offsetInCU: 0xBAA7, offset: 0xBAA7, size: 0x8, addend: 0x0, symName: __ZNSt3__19allocatorI5ErrorE10deallocateB7v160006EPS1_m, symObjAddr: 0xE68, symBinAddr: 0x100003E74, symSize: 0x44 }
  - { offsetInCU: 0xBAE8, offset: 0xBAE8, size: 0x8, addend: 0x0, symName: __ZNSt3__117__compressed_pairIP5ErrorNS_9allocatorIS1_EEE6secondB7v160006Ev, symObjAddr: 0xFD4, symBinAddr: 0x100003FE0, symSize: 0x24 }
  - { offsetInCU: 0xBB0D, offset: 0xBB0D, size: 0x8, addend: 0x0, symName: __ZNSt3__122__compressed_pair_elemINS_9allocatorI5ErrorEELi1ELb1EE5__getB7v160006Ev, symObjAddr: 0xFF8, symBinAddr: 0x100004004, symSize: 0x14 }
  - { offsetInCU: 0xBB32, offset: 0xBB32, size: 0x8, addend: 0x0, symName: __ZNKSt3__16vectorI5ErrorNS_9allocatorIS1_EEE9__end_capB7v160006Ev, symObjAddr: 0x100C, symBinAddr: 0x100004018, symSize: 0x28 }
  - { offsetInCU: 0xBB57, offset: 0xBB57, size: 0x8, addend: 0x0, symName: __ZNKSt3__117__compressed_pairIP5ErrorNS_9allocatorIS1_EEE5firstB7v160006Ev, symObjAddr: 0x1034, symBinAddr: 0x100004040, symSize: 0x24 }
  - { offsetInCU: 0xBB7C, offset: 0xBB7C, size: 0x8, addend: 0x0, symName: __ZNKSt3__122__compressed_pair_elemIP5ErrorLi0ELb0EE5__getB7v160006Ev, symObjAddr: 0x1058, symBinAddr: 0x100004064, symSize: 0x14 }
  - { offsetInCU: 0xBBA1, offset: 0xBBA1, size: 0x8, addend: 0x0, symName: __ZNSt3__112__value_typeINS_12basic_stringIcNS_11char_traitsIcEENS_9allocatorIcEEEENS_6vectorI5ErrorNS4_IS8_EEEEE11__get_valueB7v160006Ev, symObjAddr: 0x106C, symBinAddr: 0x100004078, symSize: 0x24 }
  - { offsetInCU: 0xBBC6, offset: 0xBBC6, size: 0x8, addend: 0x0, symName: __ZNSt3__19allocatorINS_11__tree_nodeINS_12__value_typeINS_12basic_stringIcNS_11char_traitsIcEENS0_IcEEEENS_6vectorI5ErrorNS0_IS9_EEEEEEPvEEE10deallocateB7v160006EPSE_m, symObjAddr: 0x10C8, symBinAddr: 0x1000040D4, symSize: 0x44 }
  - { offsetInCU: 0xBC07, offset: 0xBC07, size: 0x8, addend: 0x0, symName: __ZNKSt3__16__treeINS_12__value_typeINS_12basic_stringIcNS_11char_traitsIcEENS_9allocatorIcEEEENS_6vectorI5ErrorNS5_IS9_EEEEEENS_19__map_value_compareIS7_SC_NS_4lessIS7_EELb1EEENS5_ISC_EEE10__end_nodeB7v160006Ev, symObjAddr: 0x110C, symBinAddr: 0x100004118, symSize: 0x2C }
  - { offsetInCU: 0xBC2C, offset: 0xBC2C, size: 0x8, addend: 0x0, symName: __ZNSt3__114pointer_traitsIPNS_15__tree_end_nodeIPNS_16__tree_node_baseIPvEEEEE10pointer_toB7v160006ERS6_, symObjAddr: 0x1138, symBinAddr: 0x100004144, symSize: 0x14 }
  - { offsetInCU: 0xBC4F, offset: 0xBC4F, size: 0x8, addend: 0x0, symName: __ZNKSt3__117__compressed_pairINS_15__tree_end_nodeIPNS_16__tree_node_baseIPvEEEENS_9allocatorINS_11__tree_nodeINS_12__value_typeINS_12basic_stringIcNS_11char_traitsIcEENS7_IcEEEENS_6vectorI5ErrorNS7_ISG_EEEEEES3_EEEEE5firstB7v160006Ev, symObjAddr: 0x114C, symBinAddr: 0x100004158, symSize: 0x24 }
  - { offsetInCU: 0xBC74, offset: 0xBC74, size: 0x8, addend: 0x0, symName: __ZNKSt3__122__compressed_pair_elemINS_15__tree_end_nodeIPNS_16__tree_node_baseIPvEEEELi0ELb0EE5__getB7v160006Ev, symObjAddr: 0x1170, symBinAddr: 0x10000417C, symSize: 0x14 }
  - { offsetInCU: 0xBC99, offset: 0xBC99, size: 0x8, addend: 0x0, symName: __ZNSt3__112basic_stringIcNS_11char_traitsIcEENS_9allocatorIcEEEC2B7v160006Ev, symObjAddr: 0x1184, symBinAddr: 0x100004190, symSize: 0x54 }
  - { offsetInCU: 0xBCC6, offset: 0xBCC6, size: 0x8, addend: 0x0, symName: __ZNSt3__117__compressed_pairINS_12basic_stringIcNS_11char_traitsIcEENS_9allocatorIcEEE5__repES5_EC1B7v160006INS_18__default_init_tagESA_EEOT_OT0_, symObjAddr: 0x11D8, symBinAddr: 0x1000041E4, symSize: 0x3C }
  - { offsetInCU: 0xBD1C, offset: 0xBD1C, size: 0x8, addend: 0x0, symName: __ZNSt3__112basic_stringIcNS_11char_traitsIcEENS_9allocatorIcEEE14__default_initB7v160006Ev, symObjAddr: 0x1224, symBinAddr: 0x100004230, symSize: 0x40 }
  - { offsetInCU: 0xBD41, offset: 0xBD41, size: 0x8, addend: 0x0, symName: __ZNSt3__117__compressed_pairINS_12basic_stringIcNS_11char_traitsIcEENS_9allocatorIcEEE5__repES5_EC2B7v160006INS_18__default_init_tagESA_EEOT_OT0_, symObjAddr: 0x1264, symBinAddr: 0x100004270, symSize: 0x3C }
  - { offsetInCU: 0xBD97, offset: 0xBD97, size: 0x8, addend: 0x0, symName: __ZNSt3__122__compressed_pair_elemINS_12basic_stringIcNS_11char_traitsIcEENS_9allocatorIcEEE5__repELi0ELb0EEC2B7v160006ENS_18__default_init_tagE, symObjAddr: 0x12A0, symBinAddr: 0x1000042AC, symSize: 0x14 }
  - { offsetInCU: 0xBDCB, offset: 0xBDCB, size: 0x8, addend: 0x0, symName: __ZNSt3__122__compressed_pair_elemINS_9allocatorIcEELi1ELb1EEC2B7v160006ENS_18__default_init_tagE, symObjAddr: 0x12B4, symBinAddr: 0x1000042C0, symSize: 0x2C }
  - { offsetInCU: 0xBDFE, offset: 0xBDFE, size: 0x8, addend: 0x0, symName: __ZNSt3__19allocatorIcEC2B7v160006Ev, symObjAddr: 0x12E0, symBinAddr: 0x1000042EC, symSize: 0x2C }
  - { offsetInCU: 0xBE26, offset: 0xBE26, size: 0x8, addend: 0x0, symName: __ZNSt3__116__non_trivial_ifILb1ENS_9allocatorIcEEEC2B7v160006Ev, symObjAddr: 0x130C, symBinAddr: 0x100004318, symSize: 0x14 }
  - { offsetInCU: 0xBE4F, offset: 0xBE4F, size: 0x8, addend: 0x0, symName: __ZNSt3__117__compressed_pairINS_12basic_stringIcNS_11char_traitsIcEENS_9allocatorIcEEE5__repES5_E5firstB7v160006Ev, symObjAddr: 0x1320, symBinAddr: 0x10000432C, symSize: 0x24 }
  - { offsetInCU: 0xBE74, offset: 0xBE74, size: 0x8, addend: 0x0, symName: __ZNSt3__122__compressed_pair_elemINS_12basic_stringIcNS_11char_traitsIcEENS_9allocatorIcEEE5__repELi0ELb0EE5__getB7v160006Ev, symObjAddr: 0x1344, symBinAddr: 0x100004350, symSize: 0x14 }
  - { offsetInCU: 0xBE99, offset: 0xBE99, size: 0x8, addend: 0x0, symName: __ZNKSt3__112basic_stringIcNS_11char_traitsIcEENS_9allocatorIcEEE4dataB7v160006Ev, symObjAddr: 0x1358, symBinAddr: 0x100004364, symSize: 0x28 }
  - { offsetInCU: 0xBEBE, offset: 0xBEBE, size: 0x8, addend: 0x0, symName: __ZNKSt3__112basic_stringIcNS_11char_traitsIcEENS_9allocatorIcEEE13__get_pointerB7v160006Ev, symObjAddr: 0x1394, symBinAddr: 0x1000043A0, symSize: 0x54 }
  - { offsetInCU: 0xBEE3, offset: 0xBEE3, size: 0x8, addend: 0x0, symName: __ZNKSt3__112basic_stringIcNS_11char_traitsIcEENS_9allocatorIcEEE9__is_longB7v160006Ev, symObjAddr: 0x13E8, symBinAddr: 0x1000043F4, symSize: 0x38 }
  - { offsetInCU: 0xBF08, offset: 0xBF08, size: 0x8, addend: 0x0, symName: __ZNKSt3__112basic_stringIcNS_11char_traitsIcEENS_9allocatorIcEEE18__get_long_pointerB7v160006Ev, symObjAddr: 0x1420, symBinAddr: 0x10000442C, symSize: 0x28 }
  - { offsetInCU: 0xBF2D, offset: 0xBF2D, size: 0x8, addend: 0x0, symName: __ZNKSt3__112basic_stringIcNS_11char_traitsIcEENS_9allocatorIcEEE19__get_short_pointerB7v160006Ev, symObjAddr: 0x1448, symBinAddr: 0x100004454, symSize: 0x28 }
  - { offsetInCU: 0xBF52, offset: 0xBF52, size: 0x8, addend: 0x0, symName: __ZNKSt3__117__compressed_pairINS_12basic_stringIcNS_11char_traitsIcEENS_9allocatorIcEEE5__repES5_E5firstB7v160006Ev, symObjAddr: 0x1470, symBinAddr: 0x10000447C, symSize: 0x24 }
  - { offsetInCU: 0xBF77, offset: 0xBF77, size: 0x8, addend: 0x0, symName: __ZNKSt3__122__compressed_pair_elemINS_12basic_stringIcNS_11char_traitsIcEENS_9allocatorIcEEE5__repELi0ELb0EE5__getB7v160006Ev, symObjAddr: 0x1494, symBinAddr: 0x1000044A0, symSize: 0x14 }
  - { offsetInCU: 0xBF9C, offset: 0xBF9C, size: 0x8, addend: 0x0, symName: __ZNSt3__114pointer_traitsIPKcE10pointer_toB7v160006ERS1_, symObjAddr: 0x14A8, symBinAddr: 0x1000044B4, symSize: 0x14 }
  - { offsetInCU: 0xBFBF, offset: 0xBFBF, size: 0x8, addend: 0x0, symName: __ZNSt3__112basic_stringIcNS_11char_traitsIcEENS_9allocatorIcEEEC2B7v160006IDnEEPKc, symObjAddr: 0x14BC, symBinAddr: 0x1000044C8, symSize: 0x60 }
  - { offsetInCU: 0xBFFB, offset: 0xBFFB, size: 0x8, addend: 0x0, symName: __ZNSt3__111char_traitsIcE6lengthEPKc, symObjAddr: 0x151C, symBinAddr: 0x100004528, symSize: 0x34 }
  - { offsetInCU: 0xC01E, offset: 0xC01E, size: 0x8, addend: 0x0, symName: __ZNKSt3__112basic_stringIcNS_11char_traitsIcEENS_9allocatorIcEEE4sizeB7v160006Ev, symObjAddr: 0x1574, symBinAddr: 0x100004580, symSize: 0x54 }
  - { offsetInCU: 0xC043, offset: 0xC043, size: 0x8, addend: 0x0, symName: __ZNKSt3__112basic_stringIcNS_11char_traitsIcEENS_9allocatorIcEEE15__get_long_sizeB7v160006Ev, symObjAddr: 0x15C8, symBinAddr: 0x1000045D4, symSize: 0x28 }
  - { offsetInCU: 0xC068, offset: 0xC068, size: 0x8, addend: 0x0, symName: __ZNKSt3__112basic_stringIcNS_11char_traitsIcEENS_9allocatorIcEEE16__get_short_sizeB7v160006Ev, symObjAddr: 0x15F0, symBinAddr: 0x1000045FC, symSize: 0x34 }
  - { offsetInCU: 0xC0AB, offset: 0xC0AB, size: 0x8, addend: 0x0, symName: __ZNKSt3__113basic_ostreamIcNS_11char_traitsIcEEE6sentrycvbB7v160006Ev, symObjAddr: 0x1810, symBinAddr: 0x10000481C, symSize: 0x1C }
  - { offsetInCU: 0xC0D0, offset: 0xC0D0, size: 0x8, addend: 0x0, symName: __ZNSt3__119ostreambuf_iteratorIcNS_11char_traitsIcEEEC1B7v160006ERNS_13basic_ostreamIcS2_EE, symObjAddr: 0x1A6C, symBinAddr: 0x100004A78, symSize: 0x34 }
  - { offsetInCU: 0xC106, offset: 0xC106, size: 0x8, addend: 0x0, symName: __ZNKSt3__18ios_base5flagsB7v160006Ev, symObjAddr: 0x1AA0, symBinAddr: 0x100004AAC, symSize: 0x18 }
  - { offsetInCU: 0xC12D, offset: 0xC12D, size: 0x8, addend: 0x0, symName: __ZNKSt3__19basic_iosIcNS_11char_traitsIcEEE4fillB7v160006Ev, symObjAddr: 0x1AB8, symBinAddr: 0x100004AC4, symSize: 0x64 }
  - { offsetInCU: 0xC154, offset: 0xC154, size: 0x8, addend: 0x0, symName: __ZNKSt3__119ostreambuf_iteratorIcNS_11char_traitsIcEEE6failedB7v160006Ev, symObjAddr: 0x1B1C, symBinAddr: 0x100004B28, symSize: 0x24 }
  - { offsetInCU: 0xC179, offset: 0xC179, size: 0x8, addend: 0x0, symName: __ZNSt3__19basic_iosIcNS_11char_traitsIcEEE8setstateB7v160006Ej, symObjAddr: 0x1B40, symBinAddr: 0x100004B4C, symSize: 0x2C }
  - { offsetInCU: 0xC1AD, offset: 0xC1AD, size: 0x8, addend: 0x0, symName: __ZNKSt3__18ios_base5widthB7v160006Ev, symObjAddr: 0x1B6C, symBinAddr: 0x100004B78, symSize: 0x18 }
  - { offsetInCU: 0xC1D4, offset: 0xC1D4, size: 0x8, addend: 0x0, symName: __ZNSt3__115basic_streambufIcNS_11char_traitsIcEEE5sputnB7v160006EPKcl, symObjAddr: 0x1B84, symBinAddr: 0x100004B90, symSize: 0x3C }
  - { offsetInCU: 0xC215, offset: 0xC215, size: 0x8, addend: 0x0, symName: __ZNSt3__112basic_stringIcNS_11char_traitsIcEENS_9allocatorIcEEEC1B7v160006Emc, symObjAddr: 0x1BC0, symBinAddr: 0x100004BCC, symSize: 0x3C }
  - { offsetInCU: 0xC25B, offset: 0xC25B, size: 0x8, addend: 0x0, symName: __ZNSt3__112basic_stringIcNS_11char_traitsIcEENS_9allocatorIcEEE4dataB7v160006Ev, symObjAddr: 0x1BFC, symBinAddr: 0x100004C08, symSize: 0x28 }
  - { offsetInCU: 0xC280, offset: 0xC280, size: 0x8, addend: 0x0, symName: __ZNSt3__18ios_base5widthB7v160006El, symObjAddr: 0x1C24, symBinAddr: 0x100004C30, symSize: 0x2C }
  - { offsetInCU: 0xC2C5, offset: 0xC2C5, size: 0x8, addend: 0x0, symName: __ZNSt3__112basic_stringIcNS_11char_traitsIcEENS_9allocatorIcEEEC2B7v160006Emc, symObjAddr: 0x1C50, symBinAddr: 0x100004C5C, symSize: 0x54 }
  - { offsetInCU: 0xC30B, offset: 0xC30B, size: 0x8, addend: 0x0, symName: __ZNSt3__112basic_stringIcNS_11char_traitsIcEENS_9allocatorIcEEE13__get_pointerB7v160006Ev, symObjAddr: 0x1CB8, symBinAddr: 0x100004CC4, symSize: 0x54 }
  - { offsetInCU: 0xC330, offset: 0xC330, size: 0x8, addend: 0x0, symName: __ZNSt3__112basic_stringIcNS_11char_traitsIcEENS_9allocatorIcEEE18__get_long_pointerB7v160006Ev, symObjAddr: 0x1D0C, symBinAddr: 0x100004D18, symSize: 0x28 }
  - { offsetInCU: 0xC355, offset: 0xC355, size: 0x8, addend: 0x0, symName: __ZNSt3__112basic_stringIcNS_11char_traitsIcEENS_9allocatorIcEEE19__get_short_pointerB7v160006Ev, symObjAddr: 0x1D34, symBinAddr: 0x100004D40, symSize: 0x28 }
  - { offsetInCU: 0xC37A, offset: 0xC37A, size: 0x8, addend: 0x0, symName: __ZNSt3__114pointer_traitsIPcE10pointer_toB7v160006ERc, symObjAddr: 0x1D5C, symBinAddr: 0x100004D68, symSize: 0x14 }
  - { offsetInCU: 0xC39D, offset: 0xC39D, size: 0x8, addend: 0x0, symName: __ZNSt3__119ostreambuf_iteratorIcNS_11char_traitsIcEEEC2B7v160006ERNS_13basic_ostreamIcS2_EE, symObjAddr: 0x1D70, symBinAddr: 0x100004D7C, symSize: 0x54 }
  - { offsetInCU: 0xC3D3, offset: 0xC3D3, size: 0x8, addend: 0x0, symName: __ZNKSt3__19basic_iosIcNS_11char_traitsIcEEE5rdbufB7v160006Ev, symObjAddr: 0x1DC4, symBinAddr: 0x100004DD0, symSize: 0x24 }
  - { offsetInCU: 0xC3FA, offset: 0xC3FA, size: 0x8, addend: 0x0, symName: __ZNKSt3__18ios_base5rdbufB7v160006Ev, symObjAddr: 0x1DE8, symBinAddr: 0x100004DF4, symSize: 0x18 }
  - { offsetInCU: 0xC41F, offset: 0xC41F, size: 0x8, addend: 0x0, symName: __ZNSt3__111char_traitsIcE11eq_int_typeEii, symObjAddr: 0x1E00, symBinAddr: 0x100004E0C, symSize: 0x28 }
  - { offsetInCU: 0xC450, offset: 0xC450, size: 0x8, addend: 0x0, symName: __ZNSt3__111char_traitsIcE3eofEv, symObjAddr: 0x1E28, symBinAddr: 0x100004E34, symSize: 0x8 }
  - { offsetInCU: 0xC464, offset: 0xC464, size: 0x8, addend: 0x0, symName: __ZNKSt3__19basic_iosIcNS_11char_traitsIcEEE5widenB7v160006Ec, symObjAddr: 0x1E30, symBinAddr: 0x100004E3C, symSize: 0x84 }
  - { offsetInCU: 0xC4D1, offset: 0xC4D1, size: 0x8, addend: 0x0, symName: __ZNKSt3__15ctypeIcE5widenB7v160006Ec, symObjAddr: 0x1EE0, symBinAddr: 0x100004EEC, symSize: 0x38 }
  - { offsetInCU: 0xC505, offset: 0xC505, size: 0x8, addend: 0x0, symName: __ZNSt3__18ios_base8setstateB7v160006Ej, symObjAddr: 0x1F18, symBinAddr: 0x100004F24, symSize: 0x34 }
  - { offsetInCU: 0x1E30, offset: 0xE40A, size: 0x8, addend: 0x0, symName: __ZN9rapidjson8internal21GetCachedPowerByIndexEm, symObjAddr: 0x75A4, symBinAddr: 0x10000B618, symSize: 0x84 }
  - { offsetInCU: 0x1E59, offset: 0xE433, size: 0x8, addend: 0x0, symName: __ZZN9rapidjson8internal21GetCachedPowerByIndexEmE15kCachedPowers_F, symObjAddr: 0xA780, symBinAddr: 0x100050C60, symSize: 0x0 }
  - { offsetInCU: 0x1E6F, offset: 0xE449, size: 0x8, addend: 0x0, symName: __ZZN9rapidjson8internal21GetCachedPowerByIndexEmE15kCachedPowers_E, symObjAddr: 0xAA38, symBinAddr: 0x100050F18, symSize: 0x0 }
  - { offsetInCU: 0x1E88, offset: 0xE462, size: 0x8, addend: 0x0, symName: __ZN9rapidjson8internal8DigitGenERKNS0_5DiyFpES3_yPcPiS5_, symObjAddr: 0x6EF4, symBinAddr: 0x10000AF68, symSize: 0x500 }
  - { offsetInCU: 0x1EAE, offset: 0xE488, size: 0x8, addend: 0x0, symName: __ZZN9rapidjson8internal8DigitGenERKNS0_5DiyFpES3_yPcPiS5_E6kPow10, symObjAddr: 0xAAE8, symBinAddr: 0x100050FC8, symSize: 0x0 }
  - { offsetInCU: 0x1FBD, offset: 0xE597, size: 0x8, addend: 0x0, symName: __ZN9rapidjson8internal12GetDigitsLutEv, symObjAddr: 0x7A9C, symBinAddr: 0x10000BB10, symSize: 0xC }
  - { offsetInCU: 0x1FE6, offset: 0xE5C0, size: 0x8, addend: 0x0, symName: __ZZN9rapidjson8internal12GetDigitsLutEvE10cDigitsLut, symObjAddr: 0xAB88, symBinAddr: 0x100051068, symSize: 0x0 }
  - { offsetInCU: 0x23B4, offset: 0xE98E, size: 0x8, addend: 0x0, symName: __ZN9rapidjson8internal4dtoaEdPci, symObjAddr: 0x63A8, symBinAddr: 0x10000A41C, symSize: 0x140 }
  - { offsetInCU: 0x2434, offset: 0xEA0E, size: 0x8, addend: 0x0, symName: __ZN9rapidjson8internal6Grisu2EdPcPiS2_, symObjAddr: 0x657C, symBinAddr: 0x10000A5F0, symSize: 0x138 }
  - { offsetInCU: 0x24ED, offset: 0xEAC7, size: 0x8, addend: 0x0, symName: __ZN9rapidjson8internal8PrettifyEPciii, symObjAddr: 0x66B4, symBinAddr: 0x10000A728, symSize: 0x4A4 }
  - { offsetInCU: 0x25DD, offset: 0xEBB7, size: 0x8, addend: 0x0, symName: __ZN9rapidjson8internal14GetCachedPowerEiPi, symObjAddr: 0x6CC0, symBinAddr: 0x10000AD34, symSize: 0xD4 }
  - { offsetInCU: 0x2641, offset: 0xEC1B, size: 0x8, addend: 0x0, symName: __ZN9rapidjson8internal5clzllEy, symObjAddr: 0x7628, symBinAddr: 0x10000B69C, symSize: 0x60 }
  - { offsetInCU: 0x266D, offset: 0xEC47, size: 0x8, addend: 0x0, symName: __ZN9rapidjson8internal19CountDecimalDigit32Ej, symObjAddr: 0x76D0, symBinAddr: 0x10000B744, symSize: 0x144 }
  - { offsetInCU: 0x2699, offset: 0xEC73, size: 0x8, addend: 0x0, symName: __ZN9rapidjson8internal10GrisuRoundEPciyyyy, symObjAddr: 0x7814, symBinAddr: 0x10000B888, symSize: 0x114 }
  - { offsetInCU: 0x2707, offset: 0xECE1, size: 0x8, addend: 0x0, symName: __ZN9rapidjson8internal13WriteExponentEiPc, symObjAddr: 0x7928, symBinAddr: 0x10000B99C, symSize: 0x174 }
  - { offsetInCU: 0x2779, offset: 0xED53, size: 0x8, addend: 0x0, symName: __ZN9rapidjson8internal6i32toaEiPc, symObjAddr: 0x7B9C, symBinAddr: 0x10000BC10, symSize: 0xA8 }
  - { offsetInCU: 0x27C1, offset: 0xED9B, size: 0x8, addend: 0x0, symName: __ZN9rapidjson8internal6u32toaEjPc, symObjAddr: 0x7C44, symBinAddr: 0x10000BCB8, symSize: 0x5C8 }
  - { offsetInCU: 0x2921, offset: 0xEEFB, size: 0x8, addend: 0x0, symName: __ZN9rapidjson8internal6i64toaExPc, symObjAddr: 0x82F4, symBinAddr: 0x10000C368, symSize: 0xA8 }
  - { offsetInCU: 0x296D, offset: 0xEF47, size: 0x8, addend: 0x0, symName: __ZN9rapidjson8internal6u64toaEyPc, symObjAddr: 0x839C, symBinAddr: 0x10000C410, symSize: 0xDBC }
  - { offsetInCU: 0x3562, offset: 0xFB3C, size: 0x8, addend: 0x0, symName: __ZN9rapidjson16GenericStringRefIcE11emptyStringE, symObjAddr: 0xA66C, symBinAddr: 0x100050B4C, symSize: 0x0 }
  - { offsetInCU: 0x467C, offset: 0x10C56, size: 0x8, addend: 0x0, symName: __ZN9rapidjson9StringRefIcEENS_16GenericStringRefIT_EEPKS2_m, symObjAddr: 0x3514, symBinAddr: 0x100007588, symSize: 0x44 }
  - { offsetInCU: 0x46C2, offset: 0x10C9C, size: 0x8, addend: 0x0, symName: __ZN9rapidjson7ReallocINS_13GenericMemberINS_4UTF8IcEENS_19MemoryPoolAllocatorINS_12CrtAllocatorEEEEES6_EEPT_RT0_S9_mm, symObjAddr: 0x42C4, symBinAddr: 0x100008338, symSize: 0xD0 }
  - { offsetInCU: 0x472F, offset: 0x10D09, size: 0x8, addend: 0x0, symName: __ZN9rapidjson4PutNINS_19GenericStringBufferINS_4UTF8IcEENS_12CrtAllocatorEEEcEEvRT_T0_m, symObjAddr: 0x56D8, symBinAddr: 0x10000974C, symSize: 0x40 }
  - { offsetInCU: 0x4786, offset: 0x10D60, size: 0x8, addend: 0x0, symName: __ZN9rapidjson10PutReserveINS_4UTF8IcEENS_12CrtAllocatorEEEvRNS_19GenericStringBufferIT_T0_EEm, symObjAddr: 0x5778, symBinAddr: 0x1000097EC, symSize: 0x2C }
  - { offsetInCU: 0x47CF, offset: 0x10DA9, size: 0x8, addend: 0x0, symName: __ZN9rapidjson9PutUnsafeINS_4UTF8IcEENS_12CrtAllocatorEEEvRNS_19GenericStringBufferIT_T0_EENS5_2ChE, symObjAddr: 0x57A4, symBinAddr: 0x100009818, symSize: 0x2C }
  - { offsetInCU: 0x4ABB, offset: 0x11095, size: 0x8, addend: 0x0, symName: __ZN9rapidjson12GenericValueINS_4UTF8IcEENS_19MemoryPoolAllocatorINS_12CrtAllocatorEEEEC2ENS_4TypeE, symObjAddr: 0x2880, symBinAddr: 0x1000069A4, symSize: 0xF4 }
  - { offsetInCU: 0x4AE3, offset: 0x110BD, size: 0x8, addend: 0x0, symName: __ZZN9rapidjson12GenericValueINS_4UTF8IcEENS_19MemoryPoolAllocatorINS_12CrtAllocatorEEEEC1ENS_4TypeEE12defaultFlags, symObjAddr: 0xA65E, symBinAddr: 0x100050B3E, symSize: 0x0 }
  - { offsetInCU: 0x4BDA, offset: 0x111B4, size: 0x8, addend: 0x0, symName: __ZN9rapidjson6WriterINS_19GenericStringBufferINS_4UTF8IcEENS_12CrtAllocatorEEES3_S3_S4_Lj0EE11WriteStringEPKcj, symObjAddr: 0x5F40, symBinAddr: 0x100009FB4, symSize: 0x1D4 }
  - { offsetInCU: 0x4BFF, offset: 0x111D9, size: 0x8, addend: 0x0, symName: __ZZN9rapidjson6WriterINS_19GenericStringBufferINS_4UTF8IcEENS_12CrtAllocatorEEES3_S3_S4_Lj0EE11WriteStringEPKcjE9hexDigits, symObjAddr: 0xA66D, symBinAddr: 0x100050B4D, symSize: 0x0 }
  - { offsetInCU: 0x4C16, offset: 0x111F0, size: 0x8, addend: 0x0, symName: __ZZN9rapidjson6WriterINS_19GenericStringBufferINS_4UTF8IcEENS_12CrtAllocatorEEES3_S3_S4_Lj0EE11WriteStringEPKcjE6escape, symObjAddr: 0xA67D, symBinAddr: 0x100050B5D, symSize: 0x0 }
  - { offsetInCU: 0x12638, offset: 0x1EC12, size: 0x8, addend: 0x0, symName: __ZNSt3__1neB7v160006ERKNS_14__map_iteratorINS_15__tree_iteratorINS_12__value_typeINS_12basic_stringIcNS_11char_traitsIcEENS_9allocatorIcEEEENS_6vectorI5ErrorNS6_ISA_EEEEEEPNS_11__tree_nodeISD_PvEElEEEESL_, symObjAddr: 0x6C0, symBinAddr: 0x100005618, symSize: 0x30 }
  - { offsetInCU: 0x12675, offset: 0x1EC4F, size: 0x8, addend: 0x0, symName: __ZNSt3__1neB7v160006IPK5ErrorEEbRKNS_11__wrap_iterIT_EES8_, symObjAddr: 0x7AC, symBinAddr: 0x100005704, symSize: 0x34 }
  - { offsetInCU: 0x12F35, offset: 0x1F50F, size: 0x8, addend: 0x0, symName: __ZNSt3__1eqB7v160006IPK5ErrorEEbRKNS_11__wrap_iterIT_EES8_, symObjAddr: 0x17E8, symBinAddr: 0x1000065C0, symSize: 0x48 }
  - { offsetInCU: 0x12F78, offset: 0x1F552, size: 0x8, addend: 0x0, symName: __ZNSt3__1neB7v160006ERKNS_15__tree_iteratorINS_12__value_typeINS_12basic_stringIcNS_11char_traitsIcEENS_9allocatorIcEEEENS_6vectorI5ErrorNS5_IS9_EEEEEEPNS_11__tree_nodeISC_PvEElEESJ_, symObjAddr: 0x314C, symBinAddr: 0x100007270, symSize: 0x34 }
  - { offsetInCU: 0x12FB6, offset: 0x1F590, size: 0x8, addend: 0x0, symName: __ZNSt3__1eqB7v160006ERKNS_15__tree_iteratorINS_12__value_typeINS_12basic_stringIcNS_11char_traitsIcEENS_9allocatorIcEEEENS_6vectorI5ErrorNS5_IS9_EEEEEEPNS_11__tree_nodeISC_PvEElEESJ_, symObjAddr: 0x3180, symBinAddr: 0x1000072A4, symSize: 0x30 }
  - { offsetInCU: 0x12FF2, offset: 0x1F5CC, size: 0x8, addend: 0x0, symName: __ZNSt3__116__tree_next_iterB7v160006IPNS_15__tree_end_nodeIPNS_16__tree_node_baseIPvEEEES5_EET_T0_, symObjAddr: 0x31E8, symBinAddr: 0x10000730C, symSize: 0x90 }
  - { offsetInCU: 0x13030, offset: 0x1F60A, size: 0x8, addend: 0x0, symName: __ZNSt3__110__tree_minB7v160006IPNS_16__tree_node_baseIPvEEEET_S5_, symObjAddr: 0x3278, symBinAddr: 0x10000739C, symSize: 0x40 }
  - { offsetInCU: 0x13065, offset: 0x1F63F, size: 0x8, addend: 0x0, symName: __ZNSt3__120__tree_is_left_childB7v160006IPNS_16__tree_node_baseIPvEEEEbT_, symObjAddr: 0x32B8, symBinAddr: 0x1000073DC, symSize: 0x2C }
  - { offsetInCU: 0x15D2C, offset: 0x22306, size: 0x8, addend: 0x0, symName: __ZN7JSONJob7executeEv, symObjAddr: 0x0, symBinAddr: 0x100004F58, symSize: 0x5A0 }
  - { offsetInCU: 0x15EBB, offset: 0x22495, size: 0x8, addend: 0x0, symName: __ZN9rapidjson15GenericDocumentINS_4UTF8IcEENS_19MemoryPoolAllocatorINS_12CrtAllocatorEEES4_EC1ENS_4TypeEPS5_mPS4_, symObjAddr: 0x5A0, symBinAddr: 0x1000054F8, symSize: 0x4C }
  - { offsetInCU: 0x15F1F, offset: 0x224F9, size: 0x8, addend: 0x0, symName: __ZN9rapidjson15GenericDocumentINS_4UTF8IcEENS_19MemoryPoolAllocatorINS_12CrtAllocatorEEES4_E12GetAllocatorEv, symObjAddr: 0x5EC, symBinAddr: 0x100005544, symSize: 0x64 }
  - { offsetInCU: 0x15F44, offset: 0x2251E, size: 0x8, addend: 0x0, symName: __ZNSt3__13mapINS_12basic_stringIcNS_11char_traitsIcEENS_9allocatorIcEEEENS_6vectorI5ErrorNS4_IS8_EEEENS_4lessIS6_EENS4_INS_4pairIKS6_SA_EEEEE5beginB7v160006Ev, symObjAddr: 0x650, symBinAddr: 0x1000055A8, symSize: 0x38 }
  - { offsetInCU: 0x15F69, offset: 0x22543, size: 0x8, addend: 0x0, symName: __ZNSt3__13mapINS_12basic_stringIcNS_11char_traitsIcEENS_9allocatorIcEEEENS_6vectorI5ErrorNS4_IS8_EEEENS_4lessIS6_EENS4_INS_4pairIKS6_SA_EEEEE3endB7v160006Ev, symObjAddr: 0x688, symBinAddr: 0x1000055E0, symSize: 0x38 }
  - { offsetInCU: 0x15F8E, offset: 0x22568, size: 0x8, addend: 0x0, symName: __ZNKSt3__114__map_iteratorINS_15__tree_iteratorINS_12__value_typeINS_12basic_stringIcNS_11char_traitsIcEENS_9allocatorIcEEEENS_6vectorI5ErrorNS6_ISA_EEEEEEPNS_11__tree_nodeISD_PvEElEEEdeB7v160006Ev, symObjAddr: 0x6F0, symBinAddr: 0x100005648, symSize: 0x28 }
  - { offsetInCU: 0x15FB3, offset: 0x2258D, size: 0x8, addend: 0x0, symName: __ZN9rapidjson12GenericValueINS_4UTF8IcEENS_19MemoryPoolAllocatorINS_12CrtAllocatorEEEEC1ENS_4TypeE, symObjAddr: 0x718, symBinAddr: 0x100005670, symSize: 0x34 }
  - { offsetInCU: 0x15FEB, offset: 0x225C5, size: 0x8, addend: 0x0, symName: __ZNKSt3__16vectorI5ErrorNS_9allocatorIS1_EEE5beginB7v160006Ev, symObjAddr: 0x74C, symBinAddr: 0x1000056A4, symSize: 0x30 }
  - { offsetInCU: 0x16012, offset: 0x225EC, size: 0x8, addend: 0x0, symName: __ZNKSt3__16vectorI5ErrorNS_9allocatorIS1_EEE3endB7v160006Ev, symObjAddr: 0x77C, symBinAddr: 0x1000056D4, symSize: 0x30 }
  - { offsetInCU: 0x16039, offset: 0x22613, size: 0x8, addend: 0x0, symName: __ZNKSt3__111__wrap_iterIPK5ErrorEdeB7v160006Ev, symObjAddr: 0x7E0, symBinAddr: 0x100005738, symSize: 0x18 }
  - { offsetInCU: 0x1605D, offset: 0x22637, size: 0x8, addend: 0x0, symName: __ZN9rapidjson12GenericValueINS_4UTF8IcEENS_19MemoryPoolAllocatorINS_12CrtAllocatorEEEE9AddMemberENS_16GenericStringRefIcEERS6_RS5_, symObjAddr: 0x7F8, symBinAddr: 0x100005750, symSize: 0xCC }
  - { offsetInCU: 0x160C5, offset: 0x2269F, size: 0x8, addend: 0x0, symName: __ZN9rapidjson16GenericStringRefIcEC1ILj13EEERAT__Kc, symObjAddr: 0x8C4, symBinAddr: 0x10000581C, symSize: 0x34 }
  - { offsetInCU: 0x16106, offset: 0x226E0, size: 0x8, addend: 0x0, symName: __ZN9rapidjson12GenericValueINS_4UTF8IcEENS_19MemoryPoolAllocatorINS_12CrtAllocatorEEEEC1Ev, symObjAddr: 0x8F8, symBinAddr: 0x100005850, symSize: 0x2C }
  - { offsetInCU: 0x1612E, offset: 0x22708, size: 0x8, addend: 0x0, symName: __ZN9rapidjson12GenericValueINS_4UTF8IcEENS_19MemoryPoolAllocatorINS_12CrtAllocatorEEEE9SetStringEPKcjRS5_, symObjAddr: 0x924, symBinAddr: 0x10000587C, symSize: 0x58 }
  - { offsetInCU: 0x16180, offset: 0x2275A, size: 0x8, addend: 0x0, symName: __ZNKSt3__112basic_stringIcNS_11char_traitsIcEENS_9allocatorIcEEE6lengthB7v160006Ev, symObjAddr: 0x9A0, symBinAddr: 0x1000058D4, symSize: 0x24 }
  - { offsetInCU: 0x161A5, offset: 0x2277F, size: 0x8, addend: 0x0, symName: __ZN9rapidjson12GenericValueINS_4UTF8IcEENS_19MemoryPoolAllocatorINS_12CrtAllocatorEEEED1Ev, symObjAddr: 0x9C4, symBinAddr: 0x1000058F8, symSize: 0x2C }
  - { offsetInCU: 0x161CD, offset: 0x227A7, size: 0x8, addend: 0x0, symName: __ZN9rapidjson12GenericValueINS_4UTF8IcEENS_19MemoryPoolAllocatorINS_12CrtAllocatorEEEE9AddMemberIiEENS_8internal9DisableIfINS8_15RemoveSfinaeTagIPFRNS8_9SfinaeTagENS8_6OrExprINS8_9IsPointerIT_EENS8_14IsGenericValueISF_EEEEEE4TypeERS6_E4TypeENS_16GenericStringRefIcEESF_RS5_, symObjAddr: 0x9F0, symBinAddr: 0x100005924, symSize: 0xCC }
  - { offsetInCU: 0x1623E, offset: 0x22818, size: 0x8, addend: 0x0, symName: __ZN9rapidjson16GenericStringRefIcEC1ILj8EEERAT__Kc, symObjAddr: 0xABC, symBinAddr: 0x1000059F0, symSize: 0x34 }
  - { offsetInCU: 0x16284, offset: 0x2285E, size: 0x8, addend: 0x0, symName: __ZN9rapidjson16GenericStringRefIcEC1ILj7EEERAT__Kc, symObjAddr: 0xAF0, symBinAddr: 0x100005A24, symSize: 0x34 }
  - { offsetInCU: 0x162CA, offset: 0x228A4, size: 0x8, addend: 0x0, symName: __ZN9rapidjson16GenericStringRefIcEC1ILj4EEERAT__Kc, symObjAddr: 0xB24, symBinAddr: 0x100005A58, symSize: 0x34 }
  - { offsetInCU: 0x1630B, offset: 0x228E5, size: 0x8, addend: 0x0, symName: __ZN9rapidjson12GenericValueINS_4UTF8IcEENS_19MemoryPoolAllocatorINS_12CrtAllocatorEEEE8PushBackERS6_RS5_, symObjAddr: 0xB58, symBinAddr: 0x100005A8C, symSize: 0x108 }
  - { offsetInCU: 0x1634F, offset: 0x22929, size: 0x8, addend: 0x0, symName: __ZNSt3__111__wrap_iterIPK5ErrorEppB7v160006Ev, symObjAddr: 0xC60, symBinAddr: 0x100005B94, symSize: 0x20 }
  - { offsetInCU: 0x16373, offset: 0x2294D, size: 0x8, addend: 0x0, symName: __ZN9rapidjson12GenericValueINS_4UTF8IcEENS_19MemoryPoolAllocatorINS_12CrtAllocatorEEEE9AddMemberERS6_S7_RS5_, symObjAddr: 0xC80, symBinAddr: 0x100005BB4, symSize: 0xAC }
  - { offsetInCU: 0x163C5, offset: 0x2299F, size: 0x8, addend: 0x0, symName: __ZN9rapidjson19GenericStringBufferINS_4UTF8IcEENS_12CrtAllocatorEEC1EPS3_m, symObjAddr: 0xD2C, symBinAddr: 0x100005C60, symSize: 0x3C }
  - { offsetInCU: 0x1642C, offset: 0x22A06, size: 0x8, addend: 0x0, symName: __ZN9rapidjson12PrettyWriterINS_19GenericStringBufferINS_4UTF8IcEENS_12CrtAllocatorEEES3_S3_S4_Lj0EEC1ERS5_PS4_m, symObjAddr: 0xD68, symBinAddr: 0x100005C9C, symSize: 0x44 }
  - { offsetInCU: 0x1647E, offset: 0x22A58, size: 0x8, addend: 0x0, symName: __ZN9rapidjson12PrettyWriterINS_19GenericStringBufferINS_4UTF8IcEENS_12CrtAllocatorEEES3_S3_S4_Lj0EE9SetIndentEcj, symObjAddr: 0xDAC, symBinAddr: 0x100005CE0, symSize: 0xD8 }
  - { offsetInCU: 0x164C0, offset: 0x22A9A, size: 0x8, addend: 0x0, symName: __ZN9rapidjson12PrettyWriterINS_19GenericStringBufferINS_4UTF8IcEENS_12CrtAllocatorEEES3_S3_S4_Lj0EE16SetFormatOptionsENS_19PrettyFormatOptionsE, symObjAddr: 0xE84, symBinAddr: 0x100005DB8, symSize: 0x20 }
  - { offsetInCU: 0x164F2, offset: 0x22ACC, size: 0x8, addend: 0x0, symName: __ZNK9rapidjson12GenericValueINS_4UTF8IcEENS_19MemoryPoolAllocatorINS_12CrtAllocatorEEEE6AcceptINS_12PrettyWriterINS_19GenericStringBufferIS2_S4_EES2_S2_S4_Lj0EEEEEbRT_, symObjAddr: 0xEA4, symBinAddr: 0x100005DD8, symSize: 0x448 }
  - { offsetInCU: 0x16569, offset: 0x22B43, size: 0x8, addend: 0x0, symName: __ZNK9rapidjson19GenericStringBufferINS_4UTF8IcEENS_12CrtAllocatorEE9GetStringEv, symObjAddr: 0x1304, symBinAddr: 0x100006238, symSize: 0x4C }
  - { offsetInCU: 0x1662C, offset: 0x22C06, size: 0x8, addend: 0x0, symName: __ZNSt3__114basic_ofstreamIcNS_11char_traitsIcEEEC1EPKcj, symObjAddr: 0x1384, symBinAddr: 0x100006284, symSize: 0x16C }
  - { offsetInCU: 0x16675, offset: 0x22C4F, size: 0x8, addend: 0x0, symName: __ZNKSt3__114basic_ofstreamIcNS_11char_traitsIcEEE7is_openEv, symObjAddr: 0x14F0, symBinAddr: 0x1000063F0, symSize: 0x2C }
  - { offsetInCU: 0x1669C, offset: 0x22C76, size: 0x8, addend: 0x0, symName: __ZNSt3__114basic_ofstreamIcNS_11char_traitsIcEEE5closeEv, symObjAddr: 0x15EC, symBinAddr: 0x10000641C, symSize: 0x58 }
  - { offsetInCU: 0x166C8, offset: 0x22CA2, size: 0x8, addend: 0x0, symName: __ZNSt3__114basic_ofstreamIcNS_11char_traitsIcEEED1Ev, symObjAddr: 0x168C, symBinAddr: 0x100006474, symSize: 0x40 }
  - { offsetInCU: 0x166F4, offset: 0x22CCE, size: 0x8, addend: 0x0, symName: __ZN9rapidjson12PrettyWriterINS_19GenericStringBufferINS_4UTF8IcEENS_12CrtAllocatorEEES3_S3_S4_Lj0EED1Ev, symObjAddr: 0x16CC, symBinAddr: 0x1000064B4, symSize: 0x2C }
  - { offsetInCU: 0x1671F, offset: 0x22CF9, size: 0x8, addend: 0x0, symName: __ZN9rapidjson19GenericStringBufferINS_4UTF8IcEENS_12CrtAllocatorEED1Ev, symObjAddr: 0x16F8, symBinAddr: 0x1000064E0, symSize: 0x2C }
  - { offsetInCU: 0x16749, offset: 0x22D23, size: 0x8, addend: 0x0, symName: __ZNSt3__114__map_iteratorINS_15__tree_iteratorINS_12__value_typeINS_12basic_stringIcNS_11char_traitsIcEENS_9allocatorIcEEEENS_6vectorI5ErrorNS6_ISA_EEEEEEPNS_11__tree_nodeISD_PvEElEEEppB7v160006Ev, symObjAddr: 0x1724, symBinAddr: 0x10000650C, symSize: 0x2C }
  - { offsetInCU: 0x1676E, offset: 0x22D48, size: 0x8, addend: 0x0, symName: __ZN9rapidjson15GenericDocumentINS_4UTF8IcEENS_19MemoryPoolAllocatorINS_12CrtAllocatorEEES4_ED1Ev, symObjAddr: 0x1750, symBinAddr: 0x100006538, symSize: 0x2C }
  - { offsetInCU: 0x16796, offset: 0x22D70, size: 0x8, addend: 0x0, symName: __ZN7JSONJobD1Ev, symObjAddr: 0x177C, symBinAddr: 0x100006564, symSize: 0x2C }
  - { offsetInCU: 0x167BE, offset: 0x22D98, size: 0x8, addend: 0x0, symName: __ZN7JSONJobD0Ev, symObjAddr: 0x17A8, symBinAddr: 0x100006590, symSize: 0x30 }
  - { offsetInCU: 0x167E7, offset: 0x22DC1, size: 0x8, addend: 0x0, symName: __ZNKSt3__111__wrap_iterIPK5ErrorE4baseB7v160006Ev, symObjAddr: 0x1830, symBinAddr: 0x100006608, symSize: 0x18 }
  - { offsetInCU: 0x1680C, offset: 0x22DE6, size: 0x8, addend: 0x0, symName: __ZNSt3__114basic_ofstreamIcNS_11char_traitsIcEEED2Ev, symObjAddr: 0x1848, symBinAddr: 0x100006620, symSize: 0x64 }
  - { offsetInCU: 0x16844, offset: 0x22E1E, size: 0x8, addend: 0x0, symName: __ZTv0_n24_NSt3__114basic_ofstreamIcNS_11char_traitsIcEEED1Ev, symObjAddr: 0x18AC, symBinAddr: 0x100006684, symSize: 0x28 }
  - { offsetInCU: 0x1685B, offset: 0x22E35, size: 0x8, addend: 0x0, symName: __ZN9rapidjson12PrettyWriterINS_19GenericStringBufferINS_4UTF8IcEENS_12CrtAllocatorEEES3_S3_S4_Lj0EED2Ev, symObjAddr: 0x18D4, symBinAddr: 0x1000066AC, symSize: 0x2C }
  - { offsetInCU: 0x16886, offset: 0x22E60, size: 0x8, addend: 0x0, symName: __ZN9rapidjson6WriterINS_19GenericStringBufferINS_4UTF8IcEENS_12CrtAllocatorEEES3_S3_S4_Lj0EED2Ev, symObjAddr: 0x1900, symBinAddr: 0x1000066D8, symSize: 0x30 }
  - { offsetInCU: 0x168B0, offset: 0x22E8A, size: 0x8, addend: 0x0, symName: __ZN9rapidjson8internal5StackINS_12CrtAllocatorEED1Ev, symObjAddr: 0x1930, symBinAddr: 0x100006708, symSize: 0x2C }
  - { offsetInCU: 0x168D8, offset: 0x22EB2, size: 0x8, addend: 0x0, symName: __ZN9rapidjson8internal5StackINS_12CrtAllocatorEED2Ev, symObjAddr: 0x195C, symBinAddr: 0x100006734, symSize: 0x34 }
  - { offsetInCU: 0x16900, offset: 0x22EDA, size: 0x8, addend: 0x0, symName: __ZN9rapidjson8internal5StackINS_12CrtAllocatorEE7DestroyEv, symObjAddr: 0x1990, symBinAddr: 0x100006768, symSize: 0x54 }
  - { offsetInCU: 0x16926, offset: 0x22F00, size: 0x8, addend: 0x0, symName: __ZN9rapidjson12CrtAllocator4FreeEPv, symObjAddr: 0x19F0, symBinAddr: 0x1000067BC, symSize: 0x2C }
  - { offsetInCU: 0x16949, offset: 0x22F23, size: 0x8, addend: 0x0, symName: __ZN9rapidjson19GenericStringBufferINS_4UTF8IcEENS_12CrtAllocatorEED2Ev, symObjAddr: 0x1A1C, symBinAddr: 0x1000067E8, symSize: 0x2C }
  - { offsetInCU: 0x16973, offset: 0x22F4D, size: 0x8, addend: 0x0, symName: __ZN7JSONJobD2Ev, symObjAddr: 0x1A48, symBinAddr: 0x100006814, symSize: 0x60 }
  - { offsetInCU: 0x169A0, offset: 0x22F7A, size: 0x8, addend: 0x0, symName: __ZN9rapidjson15GenericDocumentINS_4UTF8IcEENS_19MemoryPoolAllocatorINS_12CrtAllocatorEEES4_EC2ENS_4TypeEPS5_mPS4_, symObjAddr: 0x2750, symBinAddr: 0x100006874, symSize: 0x130 }
  - { offsetInCU: 0x16A04, offset: 0x22FDE, size: 0x8, addend: 0x0, symName: __ZN9rapidjson8internal5StackINS_12CrtAllocatorEEC1EPS2_m, symObjAddr: 0x2974, symBinAddr: 0x100006A98, symSize: 0x3C }
  - { offsetInCU: 0x16A48, offset: 0x23022, size: 0x8, addend: 0x0, symName: __ZN9rapidjson11ParseResultC1Ev, symObjAddr: 0x29B0, symBinAddr: 0x100006AD4, symSize: 0x2C }
  - { offsetInCU: 0x16A70, offset: 0x2304A, size: 0x8, addend: 0x0, symName: __ZN9rapidjson19MemoryPoolAllocatorINS_12CrtAllocatorEEC1EmPS1_, symObjAddr: 0x29DC, symBinAddr: 0x100006B00, symSize: 0x3C }
  - { offsetInCU: 0x16AB5, offset: 0x2308F, size: 0x8, addend: 0x0, symName: __ZN9rapidjson12GenericValueINS_4UTF8IcEENS_19MemoryPoolAllocatorINS_12CrtAllocatorEEEED2Ev, symObjAddr: 0x2A18, symBinAddr: 0x100006B3C, symSize: 0x14 }
  - { offsetInCU: 0x16ADE, offset: 0x230B8, size: 0x8, addend: 0x0, symName: __ZN9rapidjson12GenericValueINS_4UTF8IcEENS_19MemoryPoolAllocatorINS_12CrtAllocatorEEEE11ShortString9SetLengthEj, symObjAddr: 0x2A2C, symBinAddr: 0x100006B50, symSize: 0x28 }
  - { offsetInCU: 0x16B12, offset: 0x230EC, size: 0x8, addend: 0x0, symName: __ZN9rapidjson8internal5StackINS_12CrtAllocatorEEC2EPS2_m, symObjAddr: 0x2A54, symBinAddr: 0x100006B78, symSize: 0x3C }
  - { offsetInCU: 0x16B57, offset: 0x23131, size: 0x8, addend: 0x0, symName: __ZN9rapidjson11ParseResultC2Ev, symObjAddr: 0x2A90, symBinAddr: 0x100006BB4, symSize: 0x1C }
  - { offsetInCU: 0x16B7F, offset: 0x23159, size: 0x8, addend: 0x0, symName: __ZN9rapidjson19MemoryPoolAllocatorINS_12CrtAllocatorEEC2EmPS1_, symObjAddr: 0x2AAC, symBinAddr: 0x100006BD0, symSize: 0x1E8 }
  - { offsetInCU: 0x16BC3, offset: 0x2319D, size: 0x8, addend: 0x0, symName: __ZN9rapidjson12CrtAllocator6MallocEm, symObjAddr: 0x2C94, symBinAddr: 0x100006DB8, symSize: 0x50 }
  - { offsetInCU: 0x16BF7, offset: 0x231D1, size: 0x8, addend: 0x0, symName: __ZN9rapidjson19MemoryPoolAllocatorINS_12CrtAllocatorEE12GetChunkHeadEPNS2_10SharedDataE, symObjAddr: 0x2CE4, symBinAddr: 0x100006E08, symSize: 0x18 }
  - { offsetInCU: 0x16C19, offset: 0x231F3, size: 0x8, addend: 0x0, symName: __ZN9rapidjson15GenericDocumentINS_4UTF8IcEENS_19MemoryPoolAllocatorINS_12CrtAllocatorEEES4_ED2Ev, symObjAddr: 0x2CFC, symBinAddr: 0x100006E20, symSize: 0x78 }
  - { offsetInCU: 0x16C41, offset: 0x2321B, size: 0x8, addend: 0x0, symName: __ZN9rapidjson12GenericValueINS_4UTF8IcEENS_19MemoryPoolAllocatorINS_12CrtAllocatorEEEE7SetNullEv, symObjAddr: 0x2D74, symBinAddr: 0x100006E98, symSize: 0x34 }
  - { offsetInCU: 0x16C66, offset: 0x23240, size: 0x8, addend: 0x0, symName: __ZN9rapidjson15GenericDocumentINS_4UTF8IcEENS_19MemoryPoolAllocatorINS_12CrtAllocatorEEES4_E7DestroyEv, symObjAddr: 0x2DA8, symBinAddr: 0x100006ECC, symSize: 0x4C }
  - { offsetInCU: 0x16C8B, offset: 0x23265, size: 0x8, addend: 0x0, symName: __ZN9rapidjson19MemoryPoolAllocatorINS_12CrtAllocatorEED1Ev, symObjAddr: 0x2DF4, symBinAddr: 0x100006F18, symSize: 0x2C }
  - { offsetInCU: 0x16CB3, offset: 0x2328D, size: 0x8, addend: 0x0, symName: __ZN9rapidjson19MemoryPoolAllocatorINS_12CrtAllocatorEED2Ev, symObjAddr: 0x2E20, symBinAddr: 0x100006F44, symSize: 0xD8 }
  - { offsetInCU: 0x16CF8, offset: 0x232D2, size: 0x8, addend: 0x0, symName: __ZN9rapidjson19MemoryPoolAllocatorINS_12CrtAllocatorEE5ClearEv, symObjAddr: 0x2EF8, symBinAddr: 0x10000701C, symSize: 0xCC }
  - { offsetInCU: 0x16D3A, offset: 0x23314, size: 0x8, addend: 0x0, symName: __ZNSt3__16__treeINS_12__value_typeINS_12basic_stringIcNS_11char_traitsIcEENS_9allocatorIcEEEENS_6vectorI5ErrorNS5_IS9_EEEEEENS_19__map_value_compareIS7_SC_NS_4lessIS7_EELb1EEENS5_ISC_EEE5beginB7v160006Ev, symObjAddr: 0x2FC4, symBinAddr: 0x1000070E8, symSize: 0x34 }
  - { offsetInCU: 0x16D5F, offset: 0x23339, size: 0x8, addend: 0x0, symName: __ZNSt3__114__map_iteratorINS_15__tree_iteratorINS_12__value_typeINS_12basic_stringIcNS_11char_traitsIcEENS_9allocatorIcEEEENS_6vectorI5ErrorNS6_ISA_EEEEEEPNS_11__tree_nodeISD_PvEElEEEC1B7v160006ESI_, symObjAddr: 0x2FF8, symBinAddr: 0x10000711C, symSize: 0x34 }
  - { offsetInCU: 0x16D97, offset: 0x23371, size: 0x8, addend: 0x0, symName: __ZNSt3__16__treeINS_12__value_typeINS_12basic_stringIcNS_11char_traitsIcEENS_9allocatorIcEEEENS_6vectorI5ErrorNS5_IS9_EEEEEENS_19__map_value_compareIS7_SC_NS_4lessIS7_EELb1EEENS5_ISC_EEE12__begin_nodeB7v160006Ev, symObjAddr: 0x302C, symBinAddr: 0x100007150, symSize: 0x14 }
  - { offsetInCU: 0x16DBB, offset: 0x23395, size: 0x8, addend: 0x0, symName: __ZNSt3__115__tree_iteratorINS_12__value_typeINS_12basic_stringIcNS_11char_traitsIcEENS_9allocatorIcEEEENS_6vectorI5ErrorNS5_IS9_EEEEEEPNS_11__tree_nodeISC_PvEElEC1B7v160006EPNS_15__tree_end_nodeIPNS_16__tree_node_baseISE_EEEE, symObjAddr: 0x3040, symBinAddr: 0x100007164, symSize: 0x34 }
  - { offsetInCU: 0x16DF3, offset: 0x233CD, size: 0x8, addend: 0x0, symName: __ZNSt3__115__tree_iteratorINS_12__value_typeINS_12basic_stringIcNS_11char_traitsIcEENS_9allocatorIcEEEENS_6vectorI5ErrorNS5_IS9_EEEEEEPNS_11__tree_nodeISC_PvEElEC2B7v160006EPNS_15__tree_end_nodeIPNS_16__tree_node_baseISE_EEEE, symObjAddr: 0x3074, symBinAddr: 0x100007198, symSize: 0x20 }
  - { offsetInCU: 0x16E2B, offset: 0x23405, size: 0x8, addend: 0x0, symName: __ZNSt3__114__map_iteratorINS_15__tree_iteratorINS_12__value_typeINS_12basic_stringIcNS_11char_traitsIcEENS_9allocatorIcEEEENS_6vectorI5ErrorNS6_ISA_EEEEEEPNS_11__tree_nodeISD_PvEElEEEC2B7v160006ESI_, symObjAddr: 0x3094, symBinAddr: 0x1000071B8, symSize: 0x20 }
  - { offsetInCU: 0x16E62, offset: 0x2343C, size: 0x8, addend: 0x0, symName: __ZNSt3__16__treeINS_12__value_typeINS_12basic_stringIcNS_11char_traitsIcEENS_9allocatorIcEEEENS_6vectorI5ErrorNS5_IS9_EEEEEENS_19__map_value_compareIS7_SC_NS_4lessIS7_EELb1EEENS5_ISC_EEE3endB7v160006Ev, symObjAddr: 0x30B4, symBinAddr: 0x1000071D8, symSize: 0x34 }
  - { offsetInCU: 0x16E87, offset: 0x23461, size: 0x8, addend: 0x0, symName: __ZNSt3__16__treeINS_12__value_typeINS_12basic_stringIcNS_11char_traitsIcEENS_9allocatorIcEEEENS_6vectorI5ErrorNS5_IS9_EEEEEENS_19__map_value_compareIS7_SC_NS_4lessIS7_EELb1EEENS5_ISC_EEE10__end_nodeB7v160006Ev, symObjAddr: 0x30E8, symBinAddr: 0x10000720C, symSize: 0x2C }
  - { offsetInCU: 0x16EAC, offset: 0x23486, size: 0x8, addend: 0x0, symName: __ZNSt3__117__compressed_pairINS_15__tree_end_nodeIPNS_16__tree_node_baseIPvEEEENS_9allocatorINS_11__tree_nodeINS_12__value_typeINS_12basic_stringIcNS_11char_traitsIcEENS7_IcEEEENS_6vectorI5ErrorNS7_ISG_EEEEEES3_EEEEE5firstB7v160006Ev, symObjAddr: 0x3114, symBinAddr: 0x100007238, symSize: 0x24 }
  - { offsetInCU: 0x16ED2, offset: 0x234AC, size: 0x8, addend: 0x0, symName: __ZNSt3__122__compressed_pair_elemINS_15__tree_end_nodeIPNS_16__tree_node_baseIPvEEEELi0ELb0EE5__getB7v160006Ev, symObjAddr: 0x3138, symBinAddr: 0x10000725C, symSize: 0x14 }
  - { offsetInCU: 0x16EF6, offset: 0x234D0, size: 0x8, addend: 0x0, symName: __ZNSt3__115__tree_iteratorINS_12__value_typeINS_12basic_stringIcNS_11char_traitsIcEENS_9allocatorIcEEEENS_6vectorI5ErrorNS5_IS9_EEEEEEPNS_11__tree_nodeISC_PvEElEppB7v160006Ev, symObjAddr: 0x31B0, symBinAddr: 0x1000072D4, symSize: 0x38 }
  - { offsetInCU: 0x16F1C, offset: 0x234F6, size: 0x8, addend: 0x0, symName: __ZNKSt3__116__tree_node_baseIPvE15__parent_unsafeB7v160006Ev, symObjAddr: 0x32E4, symBinAddr: 0x100007408, symSize: 0x18 }
  - { offsetInCU: 0x16F40, offset: 0x2351A, size: 0x8, addend: 0x0, symName: __ZNKSt3__115__tree_iteratorINS_12__value_typeINS_12basic_stringIcNS_11char_traitsIcEENS_9allocatorIcEEEENS_6vectorI5ErrorNS5_IS9_EEEEEEPNS_11__tree_nodeISC_PvEElEptB7v160006Ev, symObjAddr: 0x32FC, symBinAddr: 0x100007420, symSize: 0x2C }
  - { offsetInCU: 0x16F66, offset: 0x23540, size: 0x8, addend: 0x0, symName: __ZNSt3__114pointer_traitsIPNS_12__value_typeINS_12basic_stringIcNS_11char_traitsIcEENS_9allocatorIcEEEENS_6vectorI5ErrorNS5_IS9_EEEEEEE10pointer_toB7v160006ERSC_, symObjAddr: 0x3328, symBinAddr: 0x10000744C, symSize: 0x14 }
  - { offsetInCU: 0x16F89, offset: 0x23563, size: 0x8, addend: 0x0, symName: __ZNKSt3__115__tree_iteratorINS_12__value_typeINS_12basic_stringIcNS_11char_traitsIcEENS_9allocatorIcEEEENS_6vectorI5ErrorNS5_IS9_EEEEEEPNS_11__tree_nodeISC_PvEElE8__get_npB7v160006Ev, symObjAddr: 0x333C, symBinAddr: 0x100007460, symSize: 0x18 }
  - { offsetInCU: 0x16FAD, offset: 0x23587, size: 0x8, addend: 0x0, symName: __ZNKSt3__16vectorI5ErrorNS_9allocatorIS1_EEE11__make_iterB7v160006EPKS1_, symObjAddr: 0x3354, symBinAddr: 0x100007478, symSize: 0x34 }
  - { offsetInCU: 0x16FE1, offset: 0x235BB, size: 0x8, addend: 0x0, symName: __ZNSt3__111__wrap_iterIPK5ErrorEC1B7v160006EPKvS3_, symObjAddr: 0x3388, symBinAddr: 0x1000074AC, symSize: 0x3C }
  - { offsetInCU: 0x17026, offset: 0x23600, size: 0x8, addend: 0x0, symName: __ZNSt3__111__wrap_iterIPK5ErrorEC2B7v160006EPKvS3_, symObjAddr: 0x33C4, symBinAddr: 0x1000074E8, symSize: 0x24 }
  - { offsetInCU: 0x1706B, offset: 0x23645, size: 0x8, addend: 0x0, symName: __ZN9rapidjson12GenericValueINS_4UTF8IcEENS_19MemoryPoolAllocatorINS_12CrtAllocatorEEEEC2Ev, symObjAddr: 0x33E8, symBinAddr: 0x10000750C, symSize: 0x24 }
  - { offsetInCU: 0x17093, offset: 0x2366D, size: 0x8, addend: 0x0, symName: __ZN9rapidjson12GenericValueINS_4UTF8IcEENS_19MemoryPoolAllocatorINS_12CrtAllocatorEEEE9SetStringENS_16GenericStringRefIcEERS5_, symObjAddr: 0x34BC, symBinAddr: 0x100007530, symSize: 0x58 }
  - { offsetInCU: 0x170D7, offset: 0x236B1, size: 0x8, addend: 0x0, symName: __ZN9rapidjson12GenericValueINS_4UTF8IcEENS_19MemoryPoolAllocatorINS_12CrtAllocatorEEEE12SetStringRawENS_16GenericStringRefIcEERS5_, symObjAddr: 0x3558, symBinAddr: 0x1000075CC, symSize: 0xEC }
  - { offsetInCU: 0x1712A, offset: 0x23704, size: 0x8, addend: 0x0, symName: __ZN9rapidjson16GenericStringRefIcEC1ERKS1_, symObjAddr: 0x3644, symBinAddr: 0x1000076B8, symSize: 0x34 }
  - { offsetInCU: 0x17162, offset: 0x2373C, size: 0x8, addend: 0x0, symName: __ZN9rapidjson12GenericValueINS_4UTF8IcEENS_19MemoryPoolAllocatorINS_12CrtAllocatorEEEE11ShortString6UsableEj, symObjAddr: 0x3678, symBinAddr: 0x1000076EC, symSize: 0x24 }
  - { offsetInCU: 0x17185, offset: 0x2375F, size: 0x8, addend: 0x0, symName: __ZN9rapidjson19MemoryPoolAllocatorINS_12CrtAllocatorEE6MallocEm, symObjAddr: 0x369C, symBinAddr: 0x100007710, symSize: 0x168 }
  - { offsetInCU: 0x171C9, offset: 0x237A3, size: 0x8, addend: 0x0, symName: __ZN9rapidjson12GenericValueINS_4UTF8IcEENS_19MemoryPoolAllocatorINS_12CrtAllocatorEEEE16SetStringPointerEPKc, symObjAddr: 0x3804, symBinAddr: 0x100007878, symSize: 0x20 }
  - { offsetInCU: 0x171FD, offset: 0x237D7, size: 0x8, addend: 0x0, symName: __ZNK9rapidjson16GenericStringRefIcEcvPKcEv, symObjAddr: 0x3824, symBinAddr: 0x100007898, symSize: 0x18 }
  - { offsetInCU: 0x17221, offset: 0x237FB, size: 0x8, addend: 0x0, symName: __ZN9rapidjson19MemoryPoolAllocatorINS_12CrtAllocatorEE8AddChunkEm, symObjAddr: 0x383C, symBinAddr: 0x1000078B0, symSize: 0xEC }
  - { offsetInCU: 0x1726B, offset: 0x23845, size: 0x8, addend: 0x0, symName: __ZN9rapidjson19MemoryPoolAllocatorINS_12CrtAllocatorEE14GetChunkBufferEPNS2_10SharedDataE, symObjAddr: 0x3928, symBinAddr: 0x10000799C, symSize: 0x1C }
  - { offsetInCU: 0x1728E, offset: 0x23868, size: 0x8, addend: 0x0, symName: __ZN9rapidjson16GenericStringRefIcEC2ERKS1_, symObjAddr: 0x3944, symBinAddr: 0x1000079B8, symSize: 0x30 }
  - { offsetInCU: 0x172C5, offset: 0x2389F, size: 0x8, addend: 0x0, symName: __ZN9rapidjson16GenericStringRefIcEC1EPKcj, symObjAddr: 0x3974, symBinAddr: 0x1000079E8, symSize: 0x3C }
  - { offsetInCU: 0x1730B, offset: 0x238E5, size: 0x8, addend: 0x0, symName: __ZN9rapidjson16GenericStringRefIcEC2EPKcj, symObjAddr: 0x39B0, symBinAddr: 0x100007A24, symSize: 0xD8 }
  - { offsetInCU: 0x17351, offset: 0x2392B, size: 0x8, addend: 0x0, symName: __ZN9rapidjson12GenericValueINS_4UTF8IcEENS_19MemoryPoolAllocatorINS_12CrtAllocatorEEEEC1ENS_16GenericStringRefIcEE, symObjAddr: 0x3A88, symBinAddr: 0x100007AFC, symSize: 0x34 }
  - { offsetInCU: 0x17389, offset: 0x23963, size: 0x8, addend: 0x0, symName: __ZN9rapidjson12GenericValueINS_4UTF8IcEENS_19MemoryPoolAllocatorINS_12CrtAllocatorEEEEC2ENS_16GenericStringRefIcEE, symObjAddr: 0x3ABC, symBinAddr: 0x100007B30, symSize: 0x58 }
  - { offsetInCU: 0x173C1, offset: 0x2399B, size: 0x8, addend: 0x0, symName: __ZN9rapidjson12GenericValueINS_4UTF8IcEENS_19MemoryPoolAllocatorINS_12CrtAllocatorEEEE12SetStringRawENS_16GenericStringRefIcEE, symObjAddr: 0x3B14, symBinAddr: 0x100007B88, symSize: 0x60 }
  - { offsetInCU: 0x173F7, offset: 0x239D1, size: 0x8, addend: 0x0, symName: __ZN9rapidjson16GenericStringRefIcEC2ILj13EEERAT__Kc, symObjAddr: 0x3B74, symBinAddr: 0x100007BE8, symSize: 0x28 }
  - { offsetInCU: 0x17438, offset: 0x23A12, size: 0x8, addend: 0x0, symName: __ZN9rapidjson12GenericValueINS_4UTF8IcEENS_19MemoryPoolAllocatorINS_12CrtAllocatorEEEE9AddMemberIiEENS_8internal9DisableIfINS8_15RemoveSfinaeTagIPFRNS8_9SfinaeTagENS8_6OrExprINS8_9IsPointerIT_EENS8_14IsGenericValueISF_EEEEEE4TypeERS6_E4TypeESO_SF_RS5_, symObjAddr: 0x3B9C, symBinAddr: 0x100007C10, symSize: 0xBC }
  - { offsetInCU: 0x174A2, offset: 0x23A7C, size: 0x8, addend: 0x0, symName: __ZN9rapidjson12GenericValueINS_4UTF8IcEENS_19MemoryPoolAllocatorINS_12CrtAllocatorEEEEC1Ei, symObjAddr: 0x3C58, symBinAddr: 0x100007CCC, symSize: 0x34 }
  - { offsetInCU: 0x174DA, offset: 0x23AB4, size: 0x8, addend: 0x0, symName: __ZN9rapidjson12GenericValueINS_4UTF8IcEENS_19MemoryPoolAllocatorINS_12CrtAllocatorEEEEC2Ei, symObjAddr: 0x3C8C, symBinAddr: 0x100007D00, symSize: 0x50 }
  - { offsetInCU: 0x17512, offset: 0x23AEC, size: 0x8, addend: 0x0, symName: __ZN9rapidjson16GenericStringRefIcEC2ILj8EEERAT__Kc, symObjAddr: 0x3CDC, symBinAddr: 0x100007D50, symSize: 0x28 }
  - { offsetInCU: 0x17554, offset: 0x23B2E, size: 0x8, addend: 0x0, symName: __ZN9rapidjson16GenericStringRefIcEC2ILj7EEERAT__Kc, symObjAddr: 0x3D04, symBinAddr: 0x100007D78, symSize: 0x28 }
  - { offsetInCU: 0x17596, offset: 0x23B70, size: 0x8, addend: 0x0, symName: __ZN9rapidjson16GenericStringRefIcEC2ILj4EEERAT__Kc, symObjAddr: 0x3D2C, symBinAddr: 0x100007DA0, symSize: 0x28 }
  - { offsetInCU: 0x175D8, offset: 0x23BB2, size: 0x8, addend: 0x0, symName: __ZNK9rapidjson12GenericValueINS_4UTF8IcEENS_19MemoryPoolAllocatorINS_12CrtAllocatorEEEE7IsArrayEv, symObjAddr: 0x3D54, symBinAddr: 0x100007DC8, symSize: 0x24 }
  - { offsetInCU: 0x175FC, offset: 0x23BD6, size: 0x8, addend: 0x0, symName: __ZN9rapidjson12GenericValueINS_4UTF8IcEENS_19MemoryPoolAllocatorINS_12CrtAllocatorEEEE7ReserveEjRS5_, symObjAddr: 0x3D78, symBinAddr: 0x100007DEC, symSize: 0xCC }
  - { offsetInCU: 0x17640, offset: 0x23C1A, size: 0x8, addend: 0x0, symName: __ZNK9rapidjson12GenericValueINS_4UTF8IcEENS_19MemoryPoolAllocatorINS_12CrtAllocatorEEEE18GetElementsPointerEv, symObjAddr: 0x3E44, symBinAddr: 0x100007EB8, symSize: 0x18 }
  - { offsetInCU: 0x17665, offset: 0x23C3F, size: 0x8, addend: 0x0, symName: __ZN9rapidjson12GenericValueINS_4UTF8IcEENS_19MemoryPoolAllocatorINS_12CrtAllocatorEEEE9RawAssignERS6_, symObjAddr: 0x3E5C, symBinAddr: 0x100007ED0, symSize: 0x34 }
  - { offsetInCU: 0x17699, offset: 0x23C73, size: 0x8, addend: 0x0, symName: __ZN9rapidjson12GenericValueINS_4UTF8IcEENS_19MemoryPoolAllocatorINS_12CrtAllocatorEEEE18SetElementsPointerEPS6_, symObjAddr: 0x3E90, symBinAddr: 0x100007F04, symSize: 0x20 }
  - { offsetInCU: 0x176CC, offset: 0x23CA6, size: 0x8, addend: 0x0, symName: __ZN9rapidjson19MemoryPoolAllocatorINS_12CrtAllocatorEE7ReallocEPvmm, symObjAddr: 0x3EB0, symBinAddr: 0x100007F24, symSize: 0x210 }
  - { offsetInCU: 0x17751, offset: 0x23D2B, size: 0x8, addend: 0x0, symName: __ZNK9rapidjson12GenericValueINS_4UTF8IcEENS_19MemoryPoolAllocatorINS_12CrtAllocatorEEEE8IsObjectEv, symObjAddr: 0x40C0, symBinAddr: 0x100008134, symSize: 0x24 }
  - { offsetInCU: 0x17776, offset: 0x23D50, size: 0x8, addend: 0x0, symName: __ZNK9rapidjson12GenericValueINS_4UTF8IcEENS_19MemoryPoolAllocatorINS_12CrtAllocatorEEEE8IsStringEv, symObjAddr: 0x40E4, symBinAddr: 0x100008158, symSize: 0x24 }
  - { offsetInCU: 0x1779A, offset: 0x23D74, size: 0x8, addend: 0x0, symName: __ZN9rapidjson12GenericValueINS_4UTF8IcEENS_19MemoryPoolAllocatorINS_12CrtAllocatorEEEE11DoAddMemberERS6_S7_RS5_, symObjAddr: 0x4108, symBinAddr: 0x10000817C, symSize: 0x108 }
  - { offsetInCU: 0x17819, offset: 0x23DF3, size: 0x8, addend: 0x0, symName: __ZN9rapidjson12GenericValueINS_4UTF8IcEENS_19MemoryPoolAllocatorINS_12CrtAllocatorEEEE16DoReserveMembersEjRS5_, symObjAddr: 0x4210, symBinAddr: 0x100008284, symSize: 0x9C }
  - { offsetInCU: 0x17889, offset: 0x23E63, size: 0x8, addend: 0x0, symName: __ZNK9rapidjson12GenericValueINS_4UTF8IcEENS_19MemoryPoolAllocatorINS_12CrtAllocatorEEEE17GetMembersPointerEv, symObjAddr: 0x42AC, symBinAddr: 0x100008320, symSize: 0x18 }
  - { offsetInCU: 0x178AE, offset: 0x23E88, size: 0x8, addend: 0x0, symName: __ZNSt3__114numeric_limitsImE3maxB7v160006Ev, symObjAddr: 0x4394, symBinAddr: 0x100008408, symSize: 0x14 }
  - { offsetInCU: 0x178C2, offset: 0x23E9C, size: 0x8, addend: 0x0, symName: __ZNSt3__123__libcpp_numeric_limitsImLb1EE3maxB7v160006Ev, symObjAddr: 0x43A8, symBinAddr: 0x10000841C, symSize: 0x8 }
  - { offsetInCU: 0x178D5, offset: 0x23EAF, size: 0x8, addend: 0x0, symName: __ZN9rapidjson19GenericStringBufferINS_4UTF8IcEENS_12CrtAllocatorEEC2EPS3_m, symObjAddr: 0x43B0, symBinAddr: 0x100008424, symSize: 0x3C }
  - { offsetInCU: 0x17919, offset: 0x23EF3, size: 0x8, addend: 0x0, symName: __ZN9rapidjson12PrettyWriterINS_19GenericStringBufferINS_4UTF8IcEENS_12CrtAllocatorEEES3_S3_S4_Lj0EEC2ERS5_PS4_m, symObjAddr: 0x43EC, symBinAddr: 0x100008460, symSize: 0x58 }
  - { offsetInCU: 0x1796B, offset: 0x23F45, size: 0x8, addend: 0x0, symName: __ZN9rapidjson6WriterINS_19GenericStringBufferINS_4UTF8IcEENS_12CrtAllocatorEEES3_S3_S4_Lj0EEC2ERS5_PS4_m, symObjAddr: 0x4444, symBinAddr: 0x1000084B8, symSize: 0x5C }
  - { offsetInCU: 0x179BE, offset: 0x23F98, size: 0x8, addend: 0x0, symName: __ZNK9rapidjson12GenericValueINS_4UTF8IcEENS_19MemoryPoolAllocatorINS_12CrtAllocatorEEEE7GetTypeEv, symObjAddr: 0x44A0, symBinAddr: 0x100008514, symSize: 0x1C }
  - { offsetInCU: 0x179E2, offset: 0x23FBC, size: 0x8, addend: 0x0, symName: __ZN9rapidjson12PrettyWriterINS_19GenericStringBufferINS_4UTF8IcEENS_12CrtAllocatorEEES3_S3_S4_Lj0EE4NullEv, symObjAddr: 0x44BC, symBinAddr: 0x100008530, symSize: 0x48 }
  - { offsetInCU: 0x17A07, offset: 0x23FE1, size: 0x8, addend: 0x0, symName: __ZN9rapidjson12PrettyWriterINS_19GenericStringBufferINS_4UTF8IcEENS_12CrtAllocatorEEES3_S3_S4_Lj0EE4BoolEb, symObjAddr: 0x4504, symBinAddr: 0x100008578, symSize: 0x6C }
  - { offsetInCU: 0x17A3A, offset: 0x24014, size: 0x8, addend: 0x0, symName: __ZN9rapidjson12PrettyWriterINS_19GenericStringBufferINS_4UTF8IcEENS_12CrtAllocatorEEES3_S3_S4_Lj0EE11StartObjectEv, symObjAddr: 0x4570, symBinAddr: 0x1000085E4, symSize: 0x54 }
  - { offsetInCU: 0x17A5F, offset: 0x24039, size: 0x8, addend: 0x0, symName: __ZNK9rapidjson12GenericValueINS_4UTF8IcEENS_19MemoryPoolAllocatorINS_12CrtAllocatorEEEE11MemberBeginEv, symObjAddr: 0x45C4, symBinAddr: 0x100008638, symSize: 0x6C }
  - { offsetInCU: 0x17A8A, offset: 0x24064, size: 0x8, addend: 0x0, symName: __ZNK9rapidjson21GenericMemberIteratorILb1ENS_4UTF8IcEENS_19MemoryPoolAllocatorINS_12CrtAllocatorEEEEneILb1EEEbRKNS0_IXT_ES2_S5_EE, symObjAddr: 0x4630, symBinAddr: 0x1000086A4, symSize: 0x30 }
  - { offsetInCU: 0x17AC7, offset: 0x240A1, size: 0x8, addend: 0x0, symName: __ZNK9rapidjson12GenericValueINS_4UTF8IcEENS_19MemoryPoolAllocatorINS_12CrtAllocatorEEEE9MemberEndEv, symObjAddr: 0x4660, symBinAddr: 0x1000086D4, symSize: 0x7C }
  - { offsetInCU: 0x17AED, offset: 0x240C7, size: 0x8, addend: 0x0, symName: __ZNK9rapidjson21GenericMemberIteratorILb1ENS_4UTF8IcEENS_19MemoryPoolAllocatorINS_12CrtAllocatorEEEEptEv, symObjAddr: 0x46DC, symBinAddr: 0x100008750, symSize: 0x18 }
  - { offsetInCU: 0x17B11, offset: 0x240EB, size: 0x8, addend: 0x0, symName: __ZN9rapidjson12PrettyWriterINS_19GenericStringBufferINS_4UTF8IcEENS_12CrtAllocatorEEES3_S3_S4_Lj0EE3KeyEPKcjb, symObjAddr: 0x46F4, symBinAddr: 0x100008768, symSize: 0x4C }
  - { offsetInCU: 0x17B60, offset: 0x2413A, size: 0x8, addend: 0x0, symName: __ZNK9rapidjson12GenericValueINS_4UTF8IcEENS_19MemoryPoolAllocatorINS_12CrtAllocatorEEEE9GetStringEv, symObjAddr: 0x4740, symBinAddr: 0x1000087B4, symSize: 0x5C }
  - { offsetInCU: 0x17B85, offset: 0x2415F, size: 0x8, addend: 0x0, symName: __ZNK9rapidjson12GenericValueINS_4UTF8IcEENS_19MemoryPoolAllocatorINS_12CrtAllocatorEEEE15GetStringLengthEv, symObjAddr: 0x479C, symBinAddr: 0x100008810, symSize: 0x5C }
  - { offsetInCU: 0x17BAB, offset: 0x24185, size: 0x8, addend: 0x0, symName: __ZN9rapidjson21GenericMemberIteratorILb1ENS_4UTF8IcEENS_19MemoryPoolAllocatorINS_12CrtAllocatorEEEEppEv, symObjAddr: 0x47F8, symBinAddr: 0x10000886C, symSize: 0x20 }
  - { offsetInCU: 0x17BCF, offset: 0x241A9, size: 0x8, addend: 0x0, symName: __ZN9rapidjson12PrettyWriterINS_19GenericStringBufferINS_4UTF8IcEENS_12CrtAllocatorEEES3_S3_S4_Lj0EE9EndObjectEj, symObjAddr: 0x4818, symBinAddr: 0x10000888C, symSize: 0x1D8 }
  - { offsetInCU: 0x17C1E, offset: 0x241F8, size: 0x8, addend: 0x0, symName: __ZN9rapidjson12PrettyWriterINS_19GenericStringBufferINS_4UTF8IcEENS_12CrtAllocatorEEES3_S3_S4_Lj0EE10StartArrayEv, symObjAddr: 0x49F0, symBinAddr: 0x100008A64, symSize: 0x54 }
  - { offsetInCU: 0x17C43, offset: 0x2421D, size: 0x8, addend: 0x0, symName: __ZNK9rapidjson12GenericValueINS_4UTF8IcEENS_19MemoryPoolAllocatorINS_12CrtAllocatorEEEE5BeginEv, symObjAddr: 0x4A44, symBinAddr: 0x100008AB8, symSize: 0x24 }
  - { offsetInCU: 0x17C68, offset: 0x24242, size: 0x8, addend: 0x0, symName: __ZNK9rapidjson12GenericValueINS_4UTF8IcEENS_19MemoryPoolAllocatorINS_12CrtAllocatorEEEE3EndEv, symObjAddr: 0x4A68, symBinAddr: 0x100008ADC, symSize: 0x24 }
  - { offsetInCU: 0x17C8D, offset: 0x24267, size: 0x8, addend: 0x0, symName: __ZN9rapidjson12PrettyWriterINS_19GenericStringBufferINS_4UTF8IcEENS_12CrtAllocatorEEES3_S3_S4_Lj0EE8EndArrayEj, symObjAddr: 0x4A8C, symBinAddr: 0x100008B00, symSize: 0x198 }
  - { offsetInCU: 0x17CDC, offset: 0x242B6, size: 0x8, addend: 0x0, symName: __ZN9rapidjson12PrettyWriterINS_19GenericStringBufferINS_4UTF8IcEENS_12CrtAllocatorEEES3_S3_S4_Lj0EE6StringEPKcjb, symObjAddr: 0x4C24, symBinAddr: 0x100008C98, symSize: 0xA0 }
  - { offsetInCU: 0x17D2C, offset: 0x24306, size: 0x8, addend: 0x0, symName: __ZNK9rapidjson12GenericValueINS_4UTF8IcEENS_19MemoryPoolAllocatorINS_12CrtAllocatorEEEE8IsDoubleEv, symObjAddr: 0x4CC4, symBinAddr: 0x100008D38, symSize: 0x24 }
  - { offsetInCU: 0x17D50, offset: 0x2432A, size: 0x8, addend: 0x0, symName: __ZN9rapidjson12PrettyWriterINS_19GenericStringBufferINS_4UTF8IcEENS_12CrtAllocatorEEES3_S3_S4_Lj0EE6DoubleEd, symObjAddr: 0x4CE8, symBinAddr: 0x100008D5C, symSize: 0x50 }
  - { offsetInCU: 0x17D84, offset: 0x2435E, size: 0x8, addend: 0x0, symName: __ZNK9rapidjson12GenericValueINS_4UTF8IcEENS_19MemoryPoolAllocatorINS_12CrtAllocatorEEEE5IsIntEv, symObjAddr: 0x4D38, symBinAddr: 0x100008DAC, symSize: 0x24 }
  - { offsetInCU: 0x17DA8, offset: 0x24382, size: 0x8, addend: 0x0, symName: __ZN9rapidjson12PrettyWriterINS_19GenericStringBufferINS_4UTF8IcEENS_12CrtAllocatorEEES3_S3_S4_Lj0EE3IntEi, symObjAddr: 0x4D5C, symBinAddr: 0x100008DD0, symSize: 0x50 }
  - { offsetInCU: 0x17DDC, offset: 0x243B6, size: 0x8, addend: 0x0, symName: __ZNK9rapidjson12GenericValueINS_4UTF8IcEENS_19MemoryPoolAllocatorINS_12CrtAllocatorEEEE6IsUintEv, symObjAddr: 0x4DAC, symBinAddr: 0x100008E20, symSize: 0x24 }
  - { offsetInCU: 0x17E00, offset: 0x243DA, size: 0x8, addend: 0x0, symName: __ZN9rapidjson12PrettyWriterINS_19GenericStringBufferINS_4UTF8IcEENS_12CrtAllocatorEEES3_S3_S4_Lj0EE4UintEj, symObjAddr: 0x4DD0, symBinAddr: 0x100008E44, symSize: 0x50 }
  - { offsetInCU: 0x17E34, offset: 0x2440E, size: 0x8, addend: 0x0, symName: __ZNK9rapidjson12GenericValueINS_4UTF8IcEENS_19MemoryPoolAllocatorINS_12CrtAllocatorEEEE7IsInt64Ev, symObjAddr: 0x4E20, symBinAddr: 0x100008E94, symSize: 0x24 }
  - { offsetInCU: 0x17E58, offset: 0x24432, size: 0x8, addend: 0x0, symName: __ZN9rapidjson12PrettyWriterINS_19GenericStringBufferINS_4UTF8IcEENS_12CrtAllocatorEEES3_S3_S4_Lj0EE5Int64Ex, symObjAddr: 0x4E44, symBinAddr: 0x100008EB8, symSize: 0x50 }
  - { offsetInCU: 0x17E8B, offset: 0x24465, size: 0x8, addend: 0x0, symName: __ZN9rapidjson12PrettyWriterINS_19GenericStringBufferINS_4UTF8IcEENS_12CrtAllocatorEEES3_S3_S4_Lj0EE6Uint64Ey, symObjAddr: 0x4E94, symBinAddr: 0x100008F08, symSize: 0x50 }
  - { offsetInCU: 0x17EBE, offset: 0x24498, size: 0x8, addend: 0x0, symName: __ZN9rapidjson12PrettyWriterINS_19GenericStringBufferINS_4UTF8IcEENS_12CrtAllocatorEEES3_S3_S4_Lj0EE12PrettyPrefixENS_4TypeE, symObjAddr: 0x4EE4, symBinAddr: 0x100008F58, symSize: 0x294 }
  - { offsetInCU: 0x17F0D, offset: 0x244E7, size: 0x8, addend: 0x0, symName: __ZN9rapidjson6WriterINS_19GenericStringBufferINS_4UTF8IcEENS_12CrtAllocatorEEES3_S3_S4_Lj0EE8EndValueEb, symObjAddr: 0x5178, symBinAddr: 0x1000091EC, symSize: 0x54 }
  - { offsetInCU: 0x17F41, offset: 0x2451B, size: 0x8, addend: 0x0, symName: __ZN9rapidjson6WriterINS_19GenericStringBufferINS_4UTF8IcEENS_12CrtAllocatorEEES3_S3_S4_Lj0EE9WriteNullEv, symObjAddr: 0x51CC, symBinAddr: 0x100009240, symSize: 0x7C }
  - { offsetInCU: 0x17F67, offset: 0x24541, size: 0x8, addend: 0x0, symName: __ZNK9rapidjson8internal5StackINS_12CrtAllocatorEE7GetSizeEv, symObjAddr: 0x5248, symBinAddr: 0x1000092BC, symSize: 0x20 }
  - { offsetInCU: 0x17F8B, offset: 0x24565, size: 0x8, addend: 0x0, symName: __ZN9rapidjson8internal5StackINS_12CrtAllocatorEE3TopINS_6WriterINS_19GenericStringBufferINS_4UTF8IcEES2_EES8_S8_S2_Lj0EE5LevelEEEPT_v, symObjAddr: 0x5268, symBinAddr: 0x1000092DC, symSize: 0x68 }
  - { offsetInCU: 0x17FB9, offset: 0x24593, size: 0x8, addend: 0x0, symName: __ZN9rapidjson19GenericStringBufferINS_4UTF8IcEENS_12CrtAllocatorEE3PutEc, symObjAddr: 0x52D0, symBinAddr: 0x100009344, symSize: 0x3C }
  - { offsetInCU: 0x17FEC, offset: 0x245C6, size: 0x8, addend: 0x0, symName: __ZN9rapidjson12PrettyWriterINS_19GenericStringBufferINS_4UTF8IcEENS_12CrtAllocatorEEES3_S3_S4_Lj0EE11WriteIndentEv, symObjAddr: 0x530C, symBinAddr: 0x100009380, symSize: 0x54 }
  - { offsetInCU: 0x1801F, offset: 0x245F9, size: 0x8, addend: 0x0, symName: __ZN9rapidjson8internal5StackINS_12CrtAllocatorEE4PushIcEEPT_m, symObjAddr: 0x5360, symBinAddr: 0x1000093D4, symSize: 0x3C }
  - { offsetInCU: 0x1805B, offset: 0x24635, size: 0x8, addend: 0x0, symName: __ZN9rapidjson8internal5StackINS_12CrtAllocatorEE7ReserveIcEEvm, symObjAddr: 0x539C, symBinAddr: 0x100009410, symSize: 0x60 }
  - { offsetInCU: 0x18097, offset: 0x24671, size: 0x8, addend: 0x0, symName: __ZN9rapidjson8internal5StackINS_12CrtAllocatorEE10PushUnsafeIcEEPT_m, symObjAddr: 0x53FC, symBinAddr: 0x100009470, symSize: 0xD8 }
  - { offsetInCU: 0x180E1, offset: 0x246BB, size: 0x8, addend: 0x0, symName: __ZN9rapidjson8internal5StackINS_12CrtAllocatorEE6ExpandIcEEvm, symObjAddr: 0x54D4, symBinAddr: 0x100009548, symSize: 0xF8 }
  - { offsetInCU: 0x1813A, offset: 0x24714, size: 0x8, addend: 0x0, symName: __ZNK9rapidjson8internal5StackINS_12CrtAllocatorEE11GetCapacityEv, symObjAddr: 0x55CC, symBinAddr: 0x100009640, symSize: 0x20 }
  - { offsetInCU: 0x1815E, offset: 0x24738, size: 0x8, addend: 0x0, symName: __ZN9rapidjson8internal5StackINS_12CrtAllocatorEE6ResizeEm, symObjAddr: 0x55EC, symBinAddr: 0x100009660, symSize: 0x88 }
  - { offsetInCU: 0x1819F, offset: 0x24779, size: 0x8, addend: 0x0, symName: __ZN9rapidjson12CrtAllocator7ReallocEPvmm, symObjAddr: 0x5674, symBinAddr: 0x1000096E8, symSize: 0x64 }
  - { offsetInCU: 0x181EF, offset: 0x247C9, size: 0x8, addend: 0x0, symName: __ZNK9rapidjson8internal5StackINS_12CrtAllocatorEE5EmptyEv, symObjAddr: 0x5718, symBinAddr: 0x10000978C, symSize: 0x28 }
  - { offsetInCU: 0x18213, offset: 0x247ED, size: 0x8, addend: 0x0, symName: __ZN9rapidjson6WriterINS_19GenericStringBufferINS_4UTF8IcEENS_12CrtAllocatorEEES3_S3_S4_Lj0EE5FlushEv, symObjAddr: 0x5740, symBinAddr: 0x1000097B4, symSize: 0x28 }
  - { offsetInCU: 0x18239, offset: 0x24813, size: 0x8, addend: 0x0, symName: __ZN9rapidjson19GenericStringBufferINS_4UTF8IcEENS_12CrtAllocatorEE5FlushEv, symObjAddr: 0x5768, symBinAddr: 0x1000097DC, symSize: 0x10 }
  - { offsetInCU: 0x1825D, offset: 0x24837, size: 0x8, addend: 0x0, symName: __ZN9rapidjson19GenericStringBufferINS_4UTF8IcEENS_12CrtAllocatorEE7ReserveEm, symObjAddr: 0x57D0, symBinAddr: 0x100009844, symSize: 0x2C }
  - { offsetInCU: 0x18290, offset: 0x2486A, size: 0x8, addend: 0x0, symName: __ZN9rapidjson19GenericStringBufferINS_4UTF8IcEENS_12CrtAllocatorEE9PutUnsafeEc, symObjAddr: 0x57FC, symBinAddr: 0x100009870, symSize: 0x3C }
  - { offsetInCU: 0x182C3, offset: 0x2489D, size: 0x8, addend: 0x0, symName: __ZN9rapidjson6WriterINS_19GenericStringBufferINS_4UTF8IcEENS_12CrtAllocatorEEES3_S3_S4_Lj0EE9WriteBoolEb, symObjAddr: 0x5838, symBinAddr: 0x1000098AC, symSize: 0xFC }
  - { offsetInCU: 0x182F7, offset: 0x248D1, size: 0x8, addend: 0x0, symName: __ZN9rapidjson8internal5StackINS_12CrtAllocatorEE4PushINS_6WriterINS_19GenericStringBufferINS_4UTF8IcEES2_EES8_S8_S2_Lj0EE5LevelEEEPT_m, symObjAddr: 0x5934, symBinAddr: 0x1000099A8, symSize: 0x3C }
  - { offsetInCU: 0x18333, offset: 0x2490D, size: 0x8, addend: 0x0, symName: __ZN9rapidjson6WriterINS_19GenericStringBufferINS_4UTF8IcEENS_12CrtAllocatorEEES3_S3_S4_Lj0EE5LevelC1Eb, symObjAddr: 0x5970, symBinAddr: 0x1000099E4, symSize: 0x40 }
  - { offsetInCU: 0x1836A, offset: 0x24944, size: 0x8, addend: 0x0, symName: __ZN9rapidjson6WriterINS_19GenericStringBufferINS_4UTF8IcEENS_12CrtAllocatorEEES3_S3_S4_Lj0EE16WriteStartObjectEv, symObjAddr: 0x59B0, symBinAddr: 0x100009A24, symSize: 0x34 }
  - { offsetInCU: 0x1838F, offset: 0x24969, size: 0x8, addend: 0x0, symName: __ZN9rapidjson8internal5StackINS_12CrtAllocatorEE7ReserveINS_6WriterINS_19GenericStringBufferINS_4UTF8IcEES2_EES8_S8_S2_Lj0EE5LevelEEEvm, symObjAddr: 0x59E4, symBinAddr: 0x100009A58, symSize: 0x60 }
  - { offsetInCU: 0x183CB, offset: 0x249A5, size: 0x8, addend: 0x0, symName: __ZN9rapidjson8internal5StackINS_12CrtAllocatorEE10PushUnsafeINS_6WriterINS_19GenericStringBufferINS_4UTF8IcEES2_EES8_S8_S2_Lj0EE5LevelEEEPT_m, symObjAddr: 0x5A44, symBinAddr: 0x100009AB8, symSize: 0xD8 }
  - { offsetInCU: 0x18415, offset: 0x249EF, size: 0x8, addend: 0x0, symName: __ZN9rapidjson8internal5StackINS_12CrtAllocatorEE6ExpandINS_6WriterINS_19GenericStringBufferINS_4UTF8IcEES2_EES8_S8_S2_Lj0EE5LevelEEEvm, symObjAddr: 0x5B1C, symBinAddr: 0x100009B90, symSize: 0xF8 }
  - { offsetInCU: 0x1846E, offset: 0x24A48, size: 0x8, addend: 0x0, symName: __ZN9rapidjson6WriterINS_19GenericStringBufferINS_4UTF8IcEENS_12CrtAllocatorEEES3_S3_S4_Lj0EE5LevelC2Eb, symObjAddr: 0x5C14, symBinAddr: 0x100009C88, symSize: 0x30 }
  - { offsetInCU: 0x184A5, offset: 0x24A7F, size: 0x8, addend: 0x0, symName: __ZN9rapidjson21GenericMemberIteratorILb1ENS_4UTF8IcEENS_19MemoryPoolAllocatorINS_12CrtAllocatorEEEEC1EPKNS_13GenericMemberIS2_S5_EE, symObjAddr: 0x5C44, symBinAddr: 0x100009CB8, symSize: 0x34 }
  - { offsetInCU: 0x184DD, offset: 0x24AB7, size: 0x8, addend: 0x0, symName: __ZN9rapidjson21GenericMemberIteratorILb1ENS_4UTF8IcEENS_19MemoryPoolAllocatorINS_12CrtAllocatorEEEEC2EPKNS_13GenericMemberIS2_S5_EE, symObjAddr: 0x5C78, symBinAddr: 0x100009CEC, symSize: 0x20 }
  - { offsetInCU: 0x18515, offset: 0x24AEF, size: 0x8, addend: 0x0, symName: __ZN9rapidjson12GenericValueINS_4UTF8IcEENS_19MemoryPoolAllocatorINS_12CrtAllocatorEEEE10DataStringERKNS6_4DataE, symObjAddr: 0x5C98, symBinAddr: 0x100009D0C, symSize: 0x48 }
  - { offsetInCU: 0x18539, offset: 0x24B13, size: 0x8, addend: 0x0, symName: __ZN9rapidjson12GenericValueINS_4UTF8IcEENS_19MemoryPoolAllocatorINS_12CrtAllocatorEEEE16DataStringLengthERKNS6_4DataE, symObjAddr: 0x5CE0, symBinAddr: 0x100009D54, symSize: 0x58 }
  - { offsetInCU: 0x1855D, offset: 0x24B37, size: 0x8, addend: 0x0, symName: __ZNK9rapidjson12GenericValueINS_4UTF8IcEENS_19MemoryPoolAllocatorINS_12CrtAllocatorEEEE11ShortString9GetLengthEv, symObjAddr: 0x5D38, symBinAddr: 0x100009DAC, symSize: 0x20 }
  - { offsetInCU: 0x18581, offset: 0x24B5B, size: 0x8, addend: 0x0, symName: __ZN9rapidjson8internal5StackINS_12CrtAllocatorEE3PopINS_6WriterINS_19GenericStringBufferINS_4UTF8IcEES2_EES8_S8_S2_Lj0EE5LevelEEEPT_m, symObjAddr: 0x5D58, symBinAddr: 0x100009DCC, symSize: 0x80 }
  - { offsetInCU: 0x185BD, offset: 0x24B97, size: 0x8, addend: 0x0, symName: __ZN9rapidjson6WriterINS_19GenericStringBufferINS_4UTF8IcEENS_12CrtAllocatorEEES3_S3_S4_Lj0EE14WriteEndObjectEv, symObjAddr: 0x5DD8, symBinAddr: 0x100009E4C, symSize: 0x34 }
  - { offsetInCU: 0x185E2, offset: 0x24BBC, size: 0x8, addend: 0x0, symName: __ZN9rapidjson6WriterINS_19GenericStringBufferINS_4UTF8IcEENS_12CrtAllocatorEEES3_S3_S4_Lj0EE15WriteStartArrayEv, symObjAddr: 0x5E0C, symBinAddr: 0x100009E80, symSize: 0x34 }
  - { offsetInCU: 0x18607, offset: 0x24BE1, size: 0x8, addend: 0x0, symName: __ZN9rapidjson12GenericValueINS_4UTF8IcEENS_19MemoryPoolAllocatorINS_12CrtAllocatorEEEE5BeginEv, symObjAddr: 0x5E40, symBinAddr: 0x100009EB4, symSize: 0x5C }
  - { offsetInCU: 0x1862C, offset: 0x24C06, size: 0x8, addend: 0x0, symName: __ZN9rapidjson12GenericValueINS_4UTF8IcEENS_19MemoryPoolAllocatorINS_12CrtAllocatorEEEE3EndEv, symObjAddr: 0x5E9C, symBinAddr: 0x100009F10, symSize: 0x70 }
  - { offsetInCU: 0x18651, offset: 0x24C2B, size: 0x8, addend: 0x0, symName: __ZN9rapidjson6WriterINS_19GenericStringBufferINS_4UTF8IcEENS_12CrtAllocatorEEES3_S3_S4_Lj0EE13WriteEndArrayEv, symObjAddr: 0x5F0C, symBinAddr: 0x100009F80, symSize: 0x34 }
  - { offsetInCU: 0x18676, offset: 0x24C50, size: 0x8, addend: 0x0, symName: __ZN9rapidjson19GenericStringStreamINS_4UTF8IcEEEC1EPKc, symObjAddr: 0x6114, symBinAddr: 0x10000A188, symSize: 0x34 }
  - { offsetInCU: 0x186AC, offset: 0x24C86, size: 0x8, addend: 0x0, symName: __ZN9rapidjson6WriterINS_19GenericStringBufferINS_4UTF8IcEENS_12CrtAllocatorEEES3_S3_S4_Lj0EE24ScanWriteUnescapedStringERNS_19GenericStringStreamIS3_EEm, symObjAddr: 0x6148, symBinAddr: 0x10000A1BC, symSize: 0x3C }
  - { offsetInCU: 0x186F0, offset: 0x24CCA, size: 0x8, addend: 0x0, symName: __ZNK9rapidjson19GenericStringStreamINS_4UTF8IcEEE4PeekEv, symObjAddr: 0x6184, symBinAddr: 0x10000A1F8, symSize: 0x1C }
  - { offsetInCU: 0x18715, offset: 0x24CEF, size: 0x8, addend: 0x0, symName: __ZN9rapidjson19GenericStringStreamINS_4UTF8IcEEE4TakeEv, symObjAddr: 0x61A0, symBinAddr: 0x10000A214, symSize: 0x24 }
  - { offsetInCU: 0x1873A, offset: 0x24D14, size: 0x8, addend: 0x0, symName: __ZN9rapidjson10TranscoderINS_4UTF8IcEES2_E15TranscodeUnsafeINS_19GenericStringStreamIS2_EENS_19GenericStringBufferIS2_NS_12CrtAllocatorEEEEEbRT_RT0_, symObjAddr: 0x61C4, symBinAddr: 0x10000A238, symSize: 0x48 }
  - { offsetInCU: 0x1877F, offset: 0x24D59, size: 0x8, addend: 0x0, symName: __ZN9rapidjson19GenericStringStreamINS_4UTF8IcEEEC2EPKc, symObjAddr: 0x620C, symBinAddr: 0x10000A280, symSize: 0x28 }
  - { offsetInCU: 0x187B6, offset: 0x24D90, size: 0x8, addend: 0x0, symName: __ZNK9rapidjson19GenericStringStreamINS_4UTF8IcEEE4TellEv, symObjAddr: 0x6234, symBinAddr: 0x10000A2A8, symSize: 0x20 }
  - { offsetInCU: 0x187DA, offset: 0x24DB4, size: 0x8, addend: 0x0, symName: __ZN9rapidjson6WriterINS_19GenericStringBufferINS_4UTF8IcEENS_12CrtAllocatorEEES3_S3_S4_Lj0EE11WriteDoubleEd, symObjAddr: 0x6254, symBinAddr: 0x10000A2C8, symSize: 0xC8 }
  - { offsetInCU: 0x1882C, offset: 0x24E06, size: 0x8, addend: 0x0, symName: __ZN9rapidjson8internal6DoubleC1Ed, symObjAddr: 0x631C, symBinAddr: 0x10000A390, symSize: 0x34 }
  - { offsetInCU: 0x18863, offset: 0x24E3D, size: 0x8, addend: 0x0, symName: __ZNK9rapidjson8internal6Double10IsNanOrInfEv, symObjAddr: 0x6350, symBinAddr: 0x10000A3C4, symSize: 0x2C }
  - { offsetInCU: 0x18887, offset: 0x24E61, size: 0x8, addend: 0x0, symName: __ZN9rapidjson19GenericStringBufferINS_4UTF8IcEENS_12CrtAllocatorEE4PushEm, symObjAddr: 0x637C, symBinAddr: 0x10000A3F0, symSize: 0x2C }
  - { offsetInCU: 0x188BA, offset: 0x24E94, size: 0x8, addend: 0x0, symName: __ZN9rapidjson19GenericStringBufferINS_4UTF8IcEENS_12CrtAllocatorEE3PopEm, symObjAddr: 0x64E8, symBinAddr: 0x10000A55C, symSize: 0x2C }
  - { offsetInCU: 0x188EE, offset: 0x24EC8, size: 0x8, addend: 0x0, symName: __ZN9rapidjson8internal6DoubleC2Ed, symObjAddr: 0x6514, symBinAddr: 0x10000A588, symSize: 0x20 }
  - { offsetInCU: 0x18925, offset: 0x24EFF, size: 0x8, addend: 0x0, symName: __ZNK9rapidjson8internal6Double6IsZeroEv, symObjAddr: 0x6534, symBinAddr: 0x10000A5A8, symSize: 0x24 }
  - { offsetInCU: 0x1894A, offset: 0x24F24, size: 0x8, addend: 0x0, symName: __ZNK9rapidjson8internal6Double4SignEv, symObjAddr: 0x6558, symBinAddr: 0x10000A5CC, symSize: 0x24 }
  - { offsetInCU: 0x1896E, offset: 0x24F48, size: 0x8, addend: 0x0, symName: __ZN9rapidjson8internal5DiyFpC1Ed, symObjAddr: 0x6B58, symBinAddr: 0x10000ABCC, symSize: 0x34 }
  - { offsetInCU: 0x189A4, offset: 0x24F7E, size: 0x8, addend: 0x0, symName: __ZN9rapidjson8internal5DiyFpC1Ev, symObjAddr: 0x6B8C, symBinAddr: 0x10000AC00, symSize: 0x2C }
  - { offsetInCU: 0x189CC, offset: 0x24FA6, size: 0x8, addend: 0x0, symName: __ZNK9rapidjson8internal5DiyFp20NormalizedBoundariesEPS1_S2_, symObjAddr: 0x6BB8, symBinAddr: 0x10000AC2C, symSize: 0x108 }
  - { offsetInCU: 0x18A29, offset: 0x25003, size: 0x8, addend: 0x0, symName: __ZNK9rapidjson8internal5DiyFp9NormalizeEv, symObjAddr: 0x6D94, symBinAddr: 0x10000AE08, symSize: 0x5C }
  - { offsetInCU: 0x18A5C, offset: 0x25036, size: 0x8, addend: 0x0, symName: __ZNK9rapidjson8internal5DiyFpmlERKS1_, symObjAddr: 0x6DF0, symBinAddr: 0x10000AE64, symSize: 0x104 }
  - { offsetInCU: 0x18B1C, offset: 0x250F6, size: 0x8, addend: 0x0, symName: __ZN9rapidjson8internal5DiyFpC2Ed, symObjAddr: 0x7418, symBinAddr: 0x10000B48C, symSize: 0x98 }
  - { offsetInCU: 0x18BA9, offset: 0x25183, size: 0x8, addend: 0x0, symName: __ZN9rapidjson8internal5DiyFpC2Ev, symObjAddr: 0x74B0, symBinAddr: 0x10000B524, symSize: 0x1C }
  - { offsetInCU: 0x18BD1, offset: 0x251AB, size: 0x8, addend: 0x0, symName: __ZN9rapidjson8internal5DiyFpC1Eyi, symObjAddr: 0x74CC, symBinAddr: 0x10000B540, symSize: 0x3C }
  - { offsetInCU: 0x18C16, offset: 0x251F0, size: 0x8, addend: 0x0, symName: __ZNK9rapidjson8internal5DiyFp17NormalizeBoundaryEv, symObjAddr: 0x7508, symBinAddr: 0x10000B57C, symSize: 0x70 }
  - { offsetInCU: 0x18C49, offset: 0x25223, size: 0x8, addend: 0x0, symName: __ZN9rapidjson8internal5DiyFpC2Eyi, symObjAddr: 0x7578, symBinAddr: 0x10000B5EC, symSize: 0x2C }
  - { offsetInCU: 0x18C8D, offset: 0x25267, size: 0x8, addend: 0x0, symName: __ZNK9rapidjson8internal5DiyFpmiERKS1_, symObjAddr: 0x7688, symBinAddr: 0x10000B6FC, symSize: 0x48 }
  - { offsetInCU: 0x18CC0, offset: 0x2529A, size: 0x8, addend: 0x0, symName: __ZN9rapidjson8internal5StackINS_12CrtAllocatorEE3PopIcEEPT_m, symObjAddr: 0x7AA8, symBinAddr: 0x10000BB1C, symSize: 0x80 }
  - { offsetInCU: 0x18CFC, offset: 0x252D6, size: 0x8, addend: 0x0, symName: __ZN9rapidjson6WriterINS_19GenericStringBufferINS_4UTF8IcEENS_12CrtAllocatorEEES3_S3_S4_Lj0EE8WriteIntEi, symObjAddr: 0x7B28, symBinAddr: 0x10000BB9C, symSize: 0x74 }
  - { offsetInCU: 0x18D4E, offset: 0x25328, size: 0x8, addend: 0x0, symName: __ZN9rapidjson6WriterINS_19GenericStringBufferINS_4UTF8IcEENS_12CrtAllocatorEEES3_S3_S4_Lj0EE9WriteUintEj, symObjAddr: 0x820C, symBinAddr: 0x10000C280, symSize: 0x74 }
  - { offsetInCU: 0x18DA0, offset: 0x2537A, size: 0x8, addend: 0x0, symName: __ZN9rapidjson6WriterINS_19GenericStringBufferINS_4UTF8IcEENS_12CrtAllocatorEEES3_S3_S4_Lj0EE10WriteInt64Ex, symObjAddr: 0x8280, symBinAddr: 0x10000C2F4, symSize: 0x74 }
  - { offsetInCU: 0x18DF2, offset: 0x253CC, size: 0x8, addend: 0x0, symName: __ZN9rapidjson6WriterINS_19GenericStringBufferINS_4UTF8IcEENS_12CrtAllocatorEEES3_S3_S4_Lj0EE11WriteUint64Ey, symObjAddr: 0x9158, symBinAddr: 0x10000D1CC, symSize: 0x74 }
  - { offsetInCU: 0x18E45, offset: 0x2541F, size: 0x8, addend: 0x0, symName: __ZN9rapidjson8internal5StackINS_12CrtAllocatorEE6BottomIcEEPT_v, symObjAddr: 0x91CC, symBinAddr: 0x10000D240, symSize: 0x18 }
  - { offsetInCU: 0x18E72, offset: 0x2544C, size: 0x8, addend: 0x0, symName: __ZNSt3__19basic_iosIcNS_11char_traitsIcEEEC2B7v160006Ev, symObjAddr: 0x93A4, symBinAddr: 0x10000D258, symSize: 0x44 }
  - { offsetInCU: 0x18E9A, offset: 0x25474, size: 0x8, addend: 0x0, symName: __ZNSt3__113basic_ostreamIcNS_11char_traitsIcEEEC2B7v160006EPNS_15basic_streambufIcS2_EE, symObjAddr: 0x93E8, symBinAddr: 0x10000D29C, symSize: 0x60 }
  - { offsetInCU: 0x18EDD, offset: 0x254B7, size: 0x8, addend: 0x0, symName: __ZNSt3__18ios_baseC2B7v160006Ev, symObjAddr: 0x9474, symBinAddr: 0x10000D2FC, symSize: 0x24 }
  - { offsetInCU: 0x18F06, offset: 0x254E0, size: 0x8, addend: 0x0, symName: __ZNSt3__19basic_iosIcNS_11char_traitsIcEEE4initB7v160006EPNS_15basic_streambufIcS2_EE, symObjAddr: 0x9498, symBinAddr: 0x10000D320, symSize: 0x44 }
  - { offsetInCU: 0x18F3C, offset: 0x25516, size: 0x8, addend: 0x0, symName: __ZNKSt3__113basic_filebufIcNS_11char_traitsIcEEE7is_openEv, symObjAddr: 0x9518, symBinAddr: 0x10000D364, symSize: 0x24 }
  - { offsetInCU: 0x39, offset: 0x25674, size: 0x8, addend: 0x0, symName: __ZN9JobSystem11s_jobSystemE, symObjAddr: 0xA6FF8, symBinAddr: 0x100058008, symSize: 0x0 }
  - { offsetInCU: 0xB249, offset: 0x30884, size: 0x8, addend: 0x0, symName: __ZNSt3__17advanceB7v160006INS_16__deque_iteratorIP3JobPS3_RS3_PS4_lLl512EEEllvEEvRT_T0_, symObjAddr: 0xC300, symBinAddr: 0x1000187DC, symSize: 0x50 }
  - { offsetInCU: 0xB2DC, offset: 0x30917, size: 0x8, addend: 0x0, symName: __ZNSt3__17advanceB7v160006IP5ErrormmvEEvRT_T0_, symObjAddr: 0xDBDC, symBinAddr: 0x100019F44, symSize: 0x50 }
  - { offsetInCU: 0xC472, offset: 0x31AAD, size: 0x8, addend: 0x0, symName: __ZNSt3__1neB7v160006IPP15JobWorkerThreadEEbRKNS_11__wrap_iterIT_EES8_, symObjAddr: 0x990, symBinAddr: 0x10000DD0C, symSize: 0x34 }
  - { offsetInCU: 0xC4D4, offset: 0x31B0F, size: 0x8, addend: 0x0, symName: __ZNSt3__1neB7v160006ERKNS_16__deque_iteratorIP3JobPS2_RS2_PS3_lLl512EEES8_, symObjAddr: 0x118C, symBinAddr: 0x10000E508, symSize: 0x34 }
  - { offsetInCU: 0xC511, offset: 0x31B4C, size: 0x8, addend: 0x0, symName: __ZNSt3__1neB7v160006IcNS_11char_traitsIcEENS_9allocatorIcEEEEbRKNS_12basic_stringIT_T0_T1_EEPKS6_, symObjAddr: 0x19C4, symBinAddr: 0x10000EC74, symSize: 0x34 }
  - { offsetInCU: 0xEB78, offset: 0x341B3, size: 0x8, addend: 0x0, symName: __ZNSt3__1eqB7v160006IPP15JobWorkerThreadEEbRKNS_11__wrap_iterIT_EES8_, symObjAddr: 0x1DAC, symBinAddr: 0x10000F05C, symSize: 0x48 }
  - { offsetInCU: 0xEBBB, offset: 0x341F6, size: 0x8, addend: 0x0, symName: __ZNSt3__119__debug_db_insert_cB7v160006INS_13unordered_mapINS_12basic_stringIcNS_11char_traitsIcEENS_9allocatorIcEEEENS_6vectorI5ErrorNS5_IS9_EEEENS_4hashIS7_EENS_8equal_toIS7_EENS5_INS_4pairIKS7_SB_EEEEEEEEvPT_, symObjAddr: 0x2448, symBinAddr: 0x10000F610, symSize: 0x10 }
  - { offsetInCU: 0xEBEC, offset: 0x34227, size: 0x8, addend: 0x0, symName: __ZNSt3__119__debug_db_insert_cB7v160006INS_6vectorI5ErrorNS_9allocatorIS2_EEEEEEvPT_, symObjAddr: 0x2D34, symBinAddr: 0x10000FD28, symSize: 0x10 }
  - { offsetInCU: 0xEC1D, offset: 0x34258, size: 0x8, addend: 0x0, symName: __ZNSt3__119__debug_db_insert_cB7v160006INS_6vectorIP15JobWorkerThreadNS_9allocatorIS3_EEEEEEvPT_, symObjAddr: 0x2EA0, symBinAddr: 0x10000FE94, symSize: 0x10 }
  - { offsetInCU: 0xEC4E, offset: 0x34289, size: 0x8, addend: 0x0, symName: __ZNSt3__119__debug_db_insert_cB7v160006INS_6vectorI15JobHistoryEntryNS_9allocatorIS2_EEEEEEvPT_, symObjAddr: 0x32C4, symBinAddr: 0x1000102B8, symSize: 0x10 }
  - { offsetInCU: 0xEC7F, offset: 0x342BA, size: 0x8, addend: 0x0, symName: __ZNSt3__118__debug_db_erase_cB7v160006INS_6vectorIP15JobWorkerThreadNS_9allocatorIS3_EEEEEEvPT_, symObjAddr: 0x3588, symBinAddr: 0x10001057C, symSize: 0x10 }
  - { offsetInCU: 0xECB0, offset: 0x342EB, size: 0x8, addend: 0x0, symName: __ZNSt3__112__to_addressB7v160006IP15JobWorkerThreadEEPT_S4_, symObjAddr: 0x36A4, symBinAddr: 0x100010698, symSize: 0x14 }
  - { offsetInCU: 0xECE5, offset: 0x34320, size: 0x8, addend: 0x0, symName: __ZNSt3__112__to_addressB7v160006IPP3JobEEPT_S5_, symObjAddr: 0x4050, symBinAddr: 0x100010F1C, symSize: 0x14 }
  - { offsetInCU: 0xED1A, offset: 0x34355, size: 0x8, addend: 0x0, symName: __ZNSt3__118__debug_db_erase_cB7v160006INS_6vectorI15JobHistoryEntryNS_9allocatorIS2_EEEEEEvPT_, symObjAddr: 0x433C, symBinAddr: 0x100011208, symSize: 0x10 }
  - { offsetInCU: 0xED4B, offset: 0x34386, size: 0x8, addend: 0x0, symName: __ZNSt3__112__to_addressB7v160006I15JobHistoryEntryEEPT_S3_, symObjAddr: 0x4458, symBinAddr: 0x100011324, symSize: 0x14 }
  - { offsetInCU: 0xED80, offset: 0x343BB, size: 0x8, addend: 0x0, symName: __ZNSt3__13minB7v160006ImEERKT_S3_S3_, symObjAddr: 0x4814, symBinAddr: 0x1000116E0, symSize: 0x2C }
  - { offsetInCU: 0xEFAD, offset: 0x345E8, size: 0x8, addend: 0x0, symName: __ZNSt3__13minB7v160006ImNS_6__lessImmEEEERKT_S5_S5_T0_, symObjAddr: 0x48A0, symBinAddr: 0x10001176C, symSize: 0x54 }
  - { offsetInCU: 0xF042, offset: 0x3467D, size: 0x8, addend: 0x0, symName: __ZNSt3__120__throw_length_errorB7v160006EPKc, symObjAddr: 0x497C, symBinAddr: 0x100011848, symSize: 0x64 }
  - { offsetInCU: 0xF06B, offset: 0x346A6, size: 0x8, addend: 0x0, symName: __ZNSt3__119__allocate_at_leastB7v160006INS_9allocatorI15JobHistoryEntryEEEENS_19__allocation_resultINS_16allocator_traitsIT_E7pointerEEERS6_m, symObjAddr: 0x4B70, symBinAddr: 0x100011A3C, symSize: 0x40 }
  - { offsetInCU: 0xF0AE, offset: 0x346E9, size: 0x8, addend: 0x0, symName: __ZNSt3__117__libcpp_allocateB7v160006Emm, symObjAddr: 0x4CF4, symBinAddr: 0x100011BC0, symSize: 0x60 }
  - { offsetInCU: 0xF108, offset: 0x34743, size: 0x8, addend: 0x0, symName: __ZNSt3__121__libcpp_operator_newB7v160006IJmSt11align_val_tEEEPvDpT_, symObjAddr: 0x4D54, symBinAddr: 0x100011C20, symSize: 0x2C }
  - { offsetInCU: 0xF155, offset: 0x34790, size: 0x8, addend: 0x0, symName: __ZNSt3__121__libcpp_operator_newB7v160006IJmEEEPvDpT_, symObjAddr: 0x4D80, symBinAddr: 0x100011C4C, symSize: 0x24 }
  - { offsetInCU: 0xF18E, offset: 0x347C9, size: 0x8, addend: 0x0, symName: __ZNSt3__142__uninitialized_allocator_move_if_noexceptB7v160006INS_9allocatorI15JobHistoryEntryEENS_16reverse_iteratorIPS2_EES6_S2_vEET1_RT_T0_SA_S7_, symObjAddr: 0x4E1C, symBinAddr: 0x100011CE8, symSize: 0x78 }
  - { offsetInCU: 0xF20C, offset: 0x34847, size: 0x8, addend: 0x0, symName: __ZNSt3__14swapB7v160006IP15JobHistoryEntryEENS_9enable_ifIXaasr21is_move_constructibleIT_EE5valuesr18is_move_assignableIS4_EE5valueEvE4typeERS4_S7_, symObjAddr: 0x4EE0, symBinAddr: 0x100011DAC, symSize: 0x3C }
  - { offsetInCU: 0xF25D, offset: 0x34898, size: 0x8, addend: 0x0, symName: __ZNSt3__125__debug_db_invalidate_allB7v160006INS_6vectorI15JobHistoryEntryNS_9allocatorIS2_EEEEEEvPT_, symObjAddr: 0x4FF0, symBinAddr: 0x100011EBC, symSize: 0x10 }
  - { offsetInCU: 0xF28E, offset: 0x348C9, size: 0x8, addend: 0x0, symName: __ZNSt3__14moveB7v160006INS_16reverse_iteratorIP15JobHistoryEntryEES4_EET0_T_S6_S5_, symObjAddr: 0x5000, symBinAddr: 0x100011ECC, symSize: 0x78 }
  - { offsetInCU: 0xF2E8, offset: 0x34923, size: 0x8, addend: 0x0, symName: __ZNSt3__16__moveB7v160006INS_17_ClassicAlgPolicyENS_16reverse_iteratorIP15JobHistoryEntryEES5_S5_EENS_4pairIT0_T2_EES7_T1_S8_, symObjAddr: 0x5078, symBinAddr: 0x100011F44, symSize: 0x64 }
  - { offsetInCU: 0xF354, offset: 0x3498F, size: 0x8, addend: 0x0, symName: __ZNSt3__123__dispatch_copy_or_moveB7v160006INS_17_ClassicAlgPolicyENS_11__move_loopIS1_EENS_14__move_trivialENS_16reverse_iteratorIP15JobHistoryEntryEES8_S8_EENS_4pairIT2_T4_EESA_T3_SB_, symObjAddr: 0x50DC, symBinAddr: 0x100011FA8, symSize: 0x64 }
  - { offsetInCU: 0xF3D2, offset: 0x34A0D, size: 0x8, addend: 0x0, symName: __ZNSt3__121__unwrap_and_dispatchB7v160006INS_10__overloadINS_11__move_loopINS_17_ClassicAlgPolicyEEENS_14__move_trivialEEENS_16reverse_iteratorIP15JobHistoryEntryEESA_SA_Li0EEENS_4pairIT0_T2_EESC_T1_SD_, symObjAddr: 0x5140, symBinAddr: 0x10001200C, symSize: 0x12C }
  - { offsetInCU: 0xF463, offset: 0x34A9E, size: 0x8, addend: 0x0, symName: __ZNSt3__114__unwrap_rangeB7v160006INS_16reverse_iteratorIP15JobHistoryEntryEES4_EENS_4pairIT0_S6_EET_S8_, symObjAddr: 0x526C, symBinAddr: 0x100012138, symSize: 0x84 }
  - { offsetInCU: 0xF698, offset: 0x34CD3, size: 0x8, addend: 0x0, symName: __ZNSt3__113__unwrap_iterB7v160006INS_16reverse_iteratorIP15JobHistoryEntryEENS_18__unwrap_iter_implIS4_Lb0EEELi0EEEDTclsrT0_8__unwrapclsr3stdE7declvalIT_EEEES8_, symObjAddr: 0x5390, symBinAddr: 0x10001225C, symSize: 0x44 }
  - { offsetInCU: 0xF6DD, offset: 0x34D18, size: 0x8, addend: 0x0, symName: __ZNSt3__19make_pairB7v160006INS_16reverse_iteratorIP15JobHistoryEntryEES4_EENS_4pairINS_18__unwrap_ref_decayIT_E4typeENS6_IT0_E4typeEEEOS7_OSA_, symObjAddr: 0x53D4, symBinAddr: 0x1000122A0, symSize: 0x38 }
  - { offsetInCU: 0xF72C, offset: 0x34D67, size: 0x8, addend: 0x0, symName: __ZNSt3__114__rewrap_rangeB7v160006INS_16reverse_iteratorIP15JobHistoryEntryEES4_EET_S5_T0_, symObjAddr: 0x540C, symBinAddr: 0x1000122D8, symSize: 0x5C }
  - { offsetInCU: 0xF778, offset: 0x34DB3, size: 0x8, addend: 0x0, symName: __ZNSt3__113__rewrap_iterB7v160006INS_16reverse_iteratorIP15JobHistoryEntryEES4_NS_18__unwrap_iter_implIS4_Lb0EEEEET_S7_T0_, symObjAddr: 0x5468, symBinAddr: 0x100012334, symSize: 0x74 }
  - { offsetInCU: 0xF7CD, offset: 0x34E08, size: 0x8, addend: 0x0, symName: __ZNSt3__1neB7v160006IP15JobHistoryEntryS2_EEbRKNS_16reverse_iteratorIT_EERKNS3_IT0_EE, symObjAddr: 0x54DC, symBinAddr: 0x1000123A8, symSize: 0x48 }
  - { offsetInCU: 0xF8FF, offset: 0x34F3A, size: 0x8, addend: 0x0, symName: __ZNSt3__13maxB7v160006ImEERKT_S3_S3_, symObjAddr: 0x5F60, symBinAddr: 0x100012E2C, symSize: 0x2C }
  - { offsetInCU: 0xF942, offset: 0x34F7D, size: 0x8, addend: 0x0, symName: __ZNSt3__13maxB7v160006ImNS_6__lessImmEEEERKT_S5_S5_T0_, symObjAddr: 0x6024, symBinAddr: 0x100012EF0, symSize: 0x54 }
  - { offsetInCU: 0xF99C, offset: 0x34FD7, size: 0x8, addend: 0x0, symName: __ZNSt3__119__allocate_at_leastB7v160006INS_9allocatorIP15JobWorkerThreadEEEENS_19__allocation_resultINS_16allocator_traitsIT_E7pointerEEERS7_m, symObjAddr: 0x6188, symBinAddr: 0x100013054, symSize: 0x40 }
  - { offsetInCU: 0xF9DF, offset: 0x3501A, size: 0x8, addend: 0x0, symName: __ZNSt3__142__uninitialized_allocator_move_if_noexceptB7v160006INS_9allocatorIP15JobWorkerThreadEENS_16reverse_iteratorIPS3_EES7_S3_vEET1_RT_T0_SB_S8_, symObjAddr: 0x633C, symBinAddr: 0x100013208, symSize: 0x78 }
  - { offsetInCU: 0xFA5D, offset: 0x35098, size: 0x8, addend: 0x0, symName: __ZNSt3__14swapB7v160006IPP15JobWorkerThreadEENS_9enable_ifIXaasr21is_move_constructibleIT_EE5valuesr18is_move_assignableIS5_EE5valueEvE4typeERS5_S8_, symObjAddr: 0x6400, symBinAddr: 0x1000132CC, symSize: 0x3C }
  - { offsetInCU: 0xFAAE, offset: 0x350E9, size: 0x8, addend: 0x0, symName: __ZNSt3__125__debug_db_invalidate_allB7v160006INS_6vectorIP15JobWorkerThreadNS_9allocatorIS3_EEEEEEvPT_, symObjAddr: 0x64E8, symBinAddr: 0x1000133B4, symSize: 0x10 }
  - { offsetInCU: 0xFADF, offset: 0x3511A, size: 0x8, addend: 0x0, symName: __ZNSt3__14moveB7v160006INS_16reverse_iteratorIPP15JobWorkerThreadEES5_EET0_T_S7_S6_, symObjAddr: 0x64F8, symBinAddr: 0x1000133C4, symSize: 0x78 }
  - { offsetInCU: 0xFB39, offset: 0x35174, size: 0x8, addend: 0x0, symName: __ZNSt3__16__moveB7v160006INS_17_ClassicAlgPolicyENS_16reverse_iteratorIPP15JobWorkerThreadEES6_S6_EENS_4pairIT0_T2_EES8_T1_S9_, symObjAddr: 0x6570, symBinAddr: 0x10001343C, symSize: 0x64 }
  - { offsetInCU: 0xFBA5, offset: 0x351E0, size: 0x8, addend: 0x0, symName: __ZNSt3__123__dispatch_copy_or_moveB7v160006INS_17_ClassicAlgPolicyENS_11__move_loopIS1_EENS_14__move_trivialENS_16reverse_iteratorIPP15JobWorkerThreadEES9_S9_EENS_4pairIT2_T4_EESB_T3_SC_, symObjAddr: 0x65D4, symBinAddr: 0x1000134A0, symSize: 0x64 }
  - { offsetInCU: 0xFC23, offset: 0x3525E, size: 0x8, addend: 0x0, symName: __ZNSt3__121__unwrap_and_dispatchB7v160006INS_10__overloadINS_11__move_loopINS_17_ClassicAlgPolicyEEENS_14__move_trivialEEENS_16reverse_iteratorIPP15JobWorkerThreadEESB_SB_Li0EEENS_4pairIT0_T2_EESD_T1_SE_, symObjAddr: 0x6638, symBinAddr: 0x100013504, symSize: 0x12C }
  - { offsetInCU: 0xFCB4, offset: 0x352EF, size: 0x8, addend: 0x0, symName: __ZNSt3__114__unwrap_rangeB7v160006INS_16reverse_iteratorIPP15JobWorkerThreadEES5_EENS_4pairIT0_S7_EET_S9_, symObjAddr: 0x6764, symBinAddr: 0x100013630, symSize: 0x84 }
  - { offsetInCU: 0xFDD5, offset: 0x35410, size: 0x8, addend: 0x0, symName: __ZNSt3__113__unwrap_iterB7v160006INS_16reverse_iteratorIPP15JobWorkerThreadEENS_18__unwrap_iter_implIS5_Lb0EEELi0EEEDTclsrT0_8__unwrapclsr3stdE7declvalIT_EEEES9_, symObjAddr: 0x6888, symBinAddr: 0x100013754, symSize: 0x44 }
  - { offsetInCU: 0xFE1A, offset: 0x35455, size: 0x8, addend: 0x0, symName: __ZNSt3__19make_pairB7v160006INS_16reverse_iteratorIPP15JobWorkerThreadEES5_EENS_4pairINS_18__unwrap_ref_decayIT_E4typeENS7_IT0_E4typeEEEOS8_OSB_, symObjAddr: 0x68CC, symBinAddr: 0x100013798, symSize: 0x38 }
  - { offsetInCU: 0xFE69, offset: 0x354A4, size: 0x8, addend: 0x0, symName: __ZNSt3__114__rewrap_rangeB7v160006INS_16reverse_iteratorIPP15JobWorkerThreadEES5_EET_S6_T0_, symObjAddr: 0x6904, symBinAddr: 0x1000137D0, symSize: 0x5C }
  - { offsetInCU: 0xFEB5, offset: 0x354F0, size: 0x8, addend: 0x0, symName: __ZNSt3__113__rewrap_iterB7v160006INS_16reverse_iteratorIPP15JobWorkerThreadEES5_NS_18__unwrap_iter_implIS5_Lb0EEEEET_S8_T0_, symObjAddr: 0x6960, symBinAddr: 0x10001382C, symSize: 0x74 }
  - { offsetInCU: 0xFF0A, offset: 0x35545, size: 0x8, addend: 0x0, symName: __ZNSt3__1neB7v160006IPP15JobWorkerThreadS3_EEbRKNS_16reverse_iteratorIT_EERKNS4_IT0_EE, symObjAddr: 0x69D4, symBinAddr: 0x1000138A0, symSize: 0x48 }
  - { offsetInCU: 0xFFC3, offset: 0x355FE, size: 0x8, addend: 0x0, symName: __ZNSt3__1miB7v160006IPKP15JobWorkerThreadS4_EEDTmicldtfp_4baseEcldtfp0_4baseEERKNS_11__wrap_iterIT_EERKNS6_IT0_EE, symObjAddr: 0x6DF8, symBinAddr: 0x100013CC4, symSize: 0x48 }
  - { offsetInCU: 0x1000F, offset: 0x3564A, size: 0x8, addend: 0x0, symName: __ZNSt3__14moveB7v160006IPP15JobWorkerThreadS3_EET0_T_S5_S4_, symObjAddr: 0x6E6C, symBinAddr: 0x100013D38, symSize: 0x40 }
  - { offsetInCU: 0x10069, offset: 0x356A4, size: 0x8, addend: 0x0, symName: __ZNSt3__16__moveB7v160006INS_17_ClassicAlgPolicyEPP15JobWorkerThreadS4_S4_EENS_4pairIT0_T2_EES6_T1_S7_, symObjAddr: 0x6F88, symBinAddr: 0x100013E54, symSize: 0x44 }
  - { offsetInCU: 0x100D5, offset: 0x35710, size: 0x8, addend: 0x0, symName: __ZNSt3__123__dispatch_copy_or_moveB7v160006INS_17_ClassicAlgPolicyENS_11__move_loopIS1_EENS_14__move_trivialEPP15JobWorkerThreadS7_S7_EENS_4pairIT2_T4_EES9_T3_SA_, symObjAddr: 0x6FCC, symBinAddr: 0x100013E98, symSize: 0x44 }
  - { offsetInCU: 0x10153, offset: 0x3578E, size: 0x8, addend: 0x0, symName: __ZNSt3__121__unwrap_and_dispatchB7v160006INS_10__overloadINS_11__move_loopINS_17_ClassicAlgPolicyEEENS_14__move_trivialEEEPP15JobWorkerThreadS9_S9_Li0EEENS_4pairIT0_T2_EESB_T1_SC_, symObjAddr: 0x7010, symBinAddr: 0x100013EDC, symSize: 0xB4 }
  - { offsetInCU: 0x101E2, offset: 0x3581D, size: 0x8, addend: 0x0, symName: __ZNSt3__114__unwrap_rangeB7v160006IPP15JobWorkerThreadS3_EENS_4pairIT0_S5_EET_S7_, symObjAddr: 0x70C4, symBinAddr: 0x100013F90, symSize: 0x60 }
  - { offsetInCU: 0x103F4, offset: 0x35A2F, size: 0x8, addend: 0x0, symName: __ZNSt3__113__unwrap_iterB7v160006IPP15JobWorkerThreadNS_18__unwrap_iter_implIS3_Lb1EEELi0EEEDTclsrT0_8__unwrapclsr3stdE7declvalIT_EEEES7_, symObjAddr: 0x716C, symBinAddr: 0x100014038, symSize: 0x24 }
  - { offsetInCU: 0x10439, offset: 0x35A74, size: 0x8, addend: 0x0, symName: __ZNSt3__19make_pairB7v160006IPP15JobWorkerThreadS3_EENS_4pairINS_18__unwrap_ref_decayIT_E4typeENS5_IT0_E4typeEEEOS6_OS9_, symObjAddr: 0x7190, symBinAddr: 0x10001405C, symSize: 0x38 }
  - { offsetInCU: 0x10488, offset: 0x35AC3, size: 0x8, addend: 0x0, symName: __ZNSt3__114__rewrap_rangeB7v160006IPP15JobWorkerThreadS3_EET_S4_T0_, symObjAddr: 0x71C8, symBinAddr: 0x100014094, symSize: 0x2C }
  - { offsetInCU: 0x104D4, offset: 0x35B0F, size: 0x8, addend: 0x0, symName: __ZNSt3__113__rewrap_iterB7v160006IPP15JobWorkerThreadS3_NS_18__unwrap_iter_implIS3_Lb1EEEEET_S6_T0_, symObjAddr: 0x71F4, symBinAddr: 0x1000140C0, symSize: 0x3C }
  - { offsetInCU: 0x10529, offset: 0x35B64, size: 0x8, addend: 0x0, symName: __ZNSt3__119__copy_trivial_implB7v160006IP15JobWorkerThreadS2_EENS_4pairIPT_PT0_EES5_S5_S7_, symObjAddr: 0x7230, symBinAddr: 0x1000140FC, symSize: 0x84 }
  - { offsetInCU: 0x10591, offset: 0x35BCC, size: 0x8, addend: 0x0, symName: __ZNSt3__19make_pairB7v160006IRPP15JobWorkerThreadS3_EENS_4pairINS_18__unwrap_ref_decayIT_E4typeENS6_IT0_E4typeEEEOS7_OSA_, symObjAddr: 0x72B4, symBinAddr: 0x100014180, symSize: 0x38 }
  - { offsetInCU: 0x10A8C, offset: 0x360C7, size: 0x8, addend: 0x0, symName: __ZNSt3__14swapB7v160006IPPP3JobEENS_9enable_ifIXaasr21is_move_constructibleIT_EE5valuesr18is_move_assignableIS6_EE5valueEvE4typeERS6_S9_, symObjAddr: 0x89A8, symBinAddr: 0x100015874, symSize: 0x3C }
  - { offsetInCU: 0x10ADD, offset: 0x36118, size: 0x8, addend: 0x0, symName: __ZNSt3__14moveB7v160006IPPP3JobS4_EET0_T_S6_S5_, symObjAddr: 0x8A8C, symBinAddr: 0x100015958, symSize: 0x40 }
  - { offsetInCU: 0x10B37, offset: 0x36172, size: 0x8, addend: 0x0, symName: __ZNSt3__16__moveB7v160006INS_17_ClassicAlgPolicyEPPP3JobS5_S5_EENS_4pairIT0_T2_EES7_T1_S8_, symObjAddr: 0x8C30, symBinAddr: 0x100015AFC, symSize: 0x44 }
  - { offsetInCU: 0x10BA3, offset: 0x361DE, size: 0x8, addend: 0x0, symName: __ZNSt3__123__dispatch_copy_or_moveB7v160006INS_17_ClassicAlgPolicyENS_11__move_loopIS1_EENS_14__move_trivialEPPP3JobS8_S8_EENS_4pairIT2_T4_EESA_T3_SB_, symObjAddr: 0x8C74, symBinAddr: 0x100015B40, symSize: 0x44 }
  - { offsetInCU: 0x10C21, offset: 0x3625C, size: 0x8, addend: 0x0, symName: __ZNSt3__121__unwrap_and_dispatchB7v160006INS_10__overloadINS_11__move_loopINS_17_ClassicAlgPolicyEEENS_14__move_trivialEEEPPP3JobSA_SA_Li0EEENS_4pairIT0_T2_EESC_T1_SD_, symObjAddr: 0x8CB8, symBinAddr: 0x100015B84, symSize: 0xB4 }
  - { offsetInCU: 0x10CB0, offset: 0x362EB, size: 0x8, addend: 0x0, symName: __ZNSt3__114__unwrap_rangeB7v160006IPPP3JobS4_EENS_4pairIT0_S6_EET_S8_, symObjAddr: 0x8D6C, symBinAddr: 0x100015C38, symSize: 0x60 }
  - { offsetInCU: 0x10E31, offset: 0x3646C, size: 0x8, addend: 0x0, symName: __ZNSt3__113__unwrap_iterB7v160006IPPP3JobNS_18__unwrap_iter_implIS4_Lb1EEELi0EEEDTclsrT0_8__unwrapclsr3stdE7declvalIT_EEEES8_, symObjAddr: 0x8E14, symBinAddr: 0x100015CE0, symSize: 0x24 }
  - { offsetInCU: 0x10E76, offset: 0x364B1, size: 0x8, addend: 0x0, symName: __ZNSt3__19make_pairB7v160006IPPP3JobS4_EENS_4pairINS_18__unwrap_ref_decayIT_E4typeENS6_IT0_E4typeEEEOS7_OSA_, symObjAddr: 0x8E38, symBinAddr: 0x100015D04, symSize: 0x38 }
  - { offsetInCU: 0x10EC5, offset: 0x36500, size: 0x8, addend: 0x0, symName: __ZNSt3__114__rewrap_rangeB7v160006IPPP3JobS4_EET_S5_T0_, symObjAddr: 0x8E70, symBinAddr: 0x100015D3C, symSize: 0x2C }
  - { offsetInCU: 0x10F11, offset: 0x3654C, size: 0x8, addend: 0x0, symName: __ZNSt3__113__rewrap_iterB7v160006IPPP3JobS4_NS_18__unwrap_iter_implIS4_Lb1EEEEET_S7_T0_, symObjAddr: 0x8E9C, symBinAddr: 0x100015D68, symSize: 0x3C }
  - { offsetInCU: 0x10F66, offset: 0x365A1, size: 0x8, addend: 0x0, symName: __ZNSt3__119__copy_trivial_implB7v160006IPP3JobS3_EENS_4pairIPT_PT0_EES6_S6_S8_, symObjAddr: 0x8ED8, symBinAddr: 0x100015DA4, symSize: 0x84 }
  - { offsetInCU: 0x10FCE, offset: 0x36609, size: 0x8, addend: 0x0, symName: __ZNSt3__19make_pairB7v160006IRPPP3JobS4_EENS_4pairINS_18__unwrap_ref_decayIT_E4typeENS7_IT0_E4typeEEEOS8_OSB_, symObjAddr: 0x8F5C, symBinAddr: 0x100015E28, symSize: 0x38 }
  - { offsetInCU: 0x11070, offset: 0x366AB, size: 0x8, addend: 0x0, symName: __ZNSt3__18distanceB7v160006INS_13move_iteratorIPPP3JobEEEENS_15iterator_traitsIT_E15difference_typeES8_S8_, symObjAddr: 0x90E8, symBinAddr: 0x100015FB4, symSize: 0x3C }
  - { offsetInCU: 0x110B3, offset: 0x366EE, size: 0x8, addend: 0x0, symName: __ZNSt3__110__distanceB7v160006INS_13move_iteratorIPPP3JobEEEENS_15iterator_traitsIT_E15difference_typeES8_S8_NS_26random_access_iterator_tagE, symObjAddr: 0x9220, symBinAddr: 0x1000160EC, symSize: 0x30 }
  - { offsetInCU: 0x11101, offset: 0x3673C, size: 0x8, addend: 0x0, symName: __ZNSt3__1miB7v160006IPPP3JobS4_EEDTmicldtfp_4baseEcldtfp0_4baseEERKNS_13move_iteratorIT_EERKNS6_IT0_EE, symObjAddr: 0x9250, symBinAddr: 0x10001611C, symSize: 0x48 }
  - { offsetInCU: 0x11150, offset: 0x3678B, size: 0x8, addend: 0x0, symName: __ZNSt3__113move_backwardB7v160006IPPP3JobS4_EET0_T_S6_S5_, symObjAddr: 0x9454, symBinAddr: 0x100016320, symSize: 0x40 }
  - { offsetInCU: 0x111AA, offset: 0x367E5, size: 0x8, addend: 0x0, symName: __ZNSt3__115__move_backwardB7v160006INS_17_ClassicAlgPolicyEPPP3JobS5_S5_EENS_4pairIT0_T2_EES7_T1_S8_, symObjAddr: 0x9494, symBinAddr: 0x100016360, symSize: 0x44 }
  - { offsetInCU: 0x11216, offset: 0x36851, size: 0x8, addend: 0x0, symName: __ZNSt3__123__dispatch_copy_or_moveB7v160006INS_17_ClassicAlgPolicyENS_20__move_backward_loopIS1_EENS_23__move_backward_trivialEPPP3JobS8_S8_EENS_4pairIT2_T4_EESA_T3_SB_, symObjAddr: 0x94D8, symBinAddr: 0x1000163A4, symSize: 0x44 }
  - { offsetInCU: 0x11294, offset: 0x368CF, size: 0x8, addend: 0x0, symName: __ZNSt3__121__unwrap_and_dispatchB7v160006INS_10__overloadINS_20__move_backward_loopINS_17_ClassicAlgPolicyEEENS_23__move_backward_trivialEEEPPP3JobSA_SA_Li0EEENS_4pairIT0_T2_EESC_T1_SD_, symObjAddr: 0x951C, symBinAddr: 0x1000163E8, symSize: 0xB4 }
  - { offsetInCU: 0x113A7, offset: 0x369E2, size: 0x8, addend: 0x0, symName: __ZNSt3__128__copy_backward_trivial_implB7v160006IPP3JobS3_EENS_4pairIPT_PT0_EES6_S6_S8_, symObjAddr: 0x9618, symBinAddr: 0x1000164E4, symSize: 0x94 }
  - { offsetInCU: 0x1140F, offset: 0x36A4A, size: 0x8, addend: 0x0, symName: __ZNSt3__19make_pairB7v160006IRPPP3JobS5_EENS_4pairINS_18__unwrap_ref_decayIT_E4typeENS7_IT0_E4typeEEEOS8_OSB_, symObjAddr: 0x96AC, symBinAddr: 0x100016578, symSize: 0x38 }
  - { offsetInCU: 0x1145E, offset: 0x36A99, size: 0x8, addend: 0x0, symName: __ZNSt3__119__allocate_at_leastB7v160006INS_9allocatorIPP3JobEEEENS_19__allocation_resultINS_16allocator_traitsIT_E7pointerEEERS8_m, symObjAddr: 0x9864, symBinAddr: 0x100016730, symSize: 0x40 }
  - { offsetInCU: 0x114A1, offset: 0x36ADC, size: 0x8, addend: 0x0, symName: __ZNSt3__14swapB7v160006ImEENS_9enable_ifIXaasr21is_move_constructibleIT_EE5valuesr18is_move_assignableIS2_EE5valueEvE4typeERS2_S5_, symObjAddr: 0x9F6C, symBinAddr: 0x100016E38, symSize: 0x3C }
  - { offsetInCU: 0x114F2, offset: 0x36B2D, size: 0x8, addend: 0x0, symName: __ZNSt3__116__swap_allocatorB7v160006INS_9allocatorIP3JobEEEEvRT_S6_, symObjAddr: 0x9FA8, symBinAddr: 0x100016E74, symSize: 0x2C }
  - { offsetInCU: 0x11532, offset: 0x36B6D, size: 0x8, addend: 0x0, symName: __ZNSt3__116__swap_allocatorB7v160006INS_9allocatorIPP3JobEEEEvRT_S7_, symObjAddr: 0x9FD4, symBinAddr: 0x100016EA0, symSize: 0x2C }
  - { offsetInCU: 0x11572, offset: 0x36BAD, size: 0x8, addend: 0x0, symName: __ZNSt3__116__swap_allocatorB7v160006INS_9allocatorIPP3JobEEEEvRT_S7_NS_17integral_constantIbLb0EEE, symObjAddr: 0xA000, symBinAddr: 0x100016ECC, symSize: 0x14 }
  - { offsetInCU: 0x115B6, offset: 0x36BF1, size: 0x8, addend: 0x0, symName: __ZNSt3__116__swap_allocatorB7v160006INS_9allocatorIP3JobEEEEvRT_S6_NS_17integral_constantIbLb0EEE, symObjAddr: 0xA014, symBinAddr: 0x100016EE0, symSize: 0x14 }
  - { offsetInCU: 0x115FA, offset: 0x36C35, size: 0x8, addend: 0x0, symName: __ZNSt3__1eqB7v160006ERKNS_16__deque_iteratorIP3JobPS2_RS2_PS3_lLl512EEES8_, symObjAddr: 0xA0B8, symBinAddr: 0x100016F84, symSize: 0x30 }
  - { offsetInCU: 0x11637, offset: 0x36C72, size: 0x8, addend: 0x0, symName: __ZNSt3__1miB7v160006ERKNS_16__deque_iteratorIP3JobPKS2_RS3_PKS4_lLl512EEESA_, symObjAddr: 0xAAD8, symBinAddr: 0x100016FB4, symSize: 0xA4 }
  - { offsetInCU: 0x11674, offset: 0x36CAF, size: 0x8, addend: 0x0, symName: __ZNSt3__113move_backwardB7v160006INS_16__deque_iteratorIP3JobPS3_RS3_PS4_lLl512EEES7_EET0_T_S9_S8_, symObjAddr: 0xABBC, symBinAddr: 0x100017098, symSize: 0x78 }
  - { offsetInCU: 0x116CE, offset: 0x36D09, size: 0x8, addend: 0x0, symName: __ZNSt3__14nextB7v160006INS_16__deque_iteratorIP3JobPS3_RS3_PS4_lLl512EEEEENS_9enable_ifIXsr25__is_cpp17_input_iteratorIT_EE5valueES9_E4typeES9_NS_15iterator_traitsIS9_E15difference_typeE, symObjAddr: 0xAC34, symBinAddr: 0x100017110, symSize: 0x58 }
  - { offsetInCU: 0x11711, offset: 0x36D4C, size: 0x8, addend: 0x0, symName: __ZNSt3__14moveB7v160006INS_16__deque_iteratorIP3JobPS3_RS3_PS4_lLl512EEES7_EET0_T_S9_S8_, symObjAddr: 0xAD68, symBinAddr: 0x100017244, symSize: 0x78 }
  - { offsetInCU: 0x1176B, offset: 0x36DA6, size: 0x8, addend: 0x0, symName: __ZNSt3__1neB7v160006ERKNS_16__deque_iteratorIP3JobPKS2_RS3_PKS4_lLl512EEESA_, symObjAddr: 0xAEAC, symBinAddr: 0x100017388, symSize: 0x34 }
  - { offsetInCU: 0x117A8, offset: 0x36DE3, size: 0x8, addend: 0x0, symName: __ZNSt3__1eqB7v160006ERKNS_16__deque_iteratorIP3JobPKS2_RS3_PKS4_lLl512EEESA_, symObjAddr: 0xAEE0, symBinAddr: 0x1000173BC, symSize: 0x30 }
  - { offsetInCU: 0x117E5, offset: 0x36E20, size: 0x8, addend: 0x0, symName: __ZNSt3__115__move_backwardB7v160006INS_17_ClassicAlgPolicyENS_16__deque_iteratorIP3JobPS4_RS4_PS5_lLl512EEES8_S8_EENS_4pairIT0_T2_EESA_T1_SB_, symObjAddr: 0xB020, symBinAddr: 0x1000174FC, symSize: 0x64 }
  - { offsetInCU: 0x11851, offset: 0x36E8C, size: 0x8, addend: 0x0, symName: __ZNSt3__123__dispatch_copy_or_moveB7v160006INS_17_ClassicAlgPolicyENS_20__move_backward_loopIS1_EENS_23__move_backward_trivialENS_16__deque_iteratorIP3JobPS7_RS7_PS8_lLl512EEESB_SB_EENS_4pairIT2_T4_EESD_T3_SE_, symObjAddr: 0xB084, symBinAddr: 0x100017560, symSize: 0x64 }
  - { offsetInCU: 0x118CF, offset: 0x36F0A, size: 0x8, addend: 0x0, symName: __ZNSt3__121__unwrap_and_dispatchB7v160006INS_10__overloadINS_20__move_backward_loopINS_17_ClassicAlgPolicyEEENS_23__move_backward_trivialEEENS_16__deque_iteratorIP3JobPS9_RS9_PSA_lLl512EEESD_SD_Li0EEENS_4pairIT0_T2_EESF_T1_SG_, symObjAddr: 0xB0E8, symBinAddr: 0x1000175C4, symSize: 0x12C }
  - { offsetInCU: 0x11960, offset: 0x36F9B, size: 0x8, addend: 0x0, symName: __ZNSt3__114__unwrap_rangeB7v160006INS_16__deque_iteratorIP3JobPS3_RS3_PS4_lLl512EEES7_EENS_4pairIT0_S9_EET_SB_, symObjAddr: 0xB214, symBinAddr: 0x1000176F0, symSize: 0x84 }
  - { offsetInCU: 0x11B6E, offset: 0x371A9, size: 0x8, addend: 0x0, symName: __ZNSt3__113__unwrap_iterB7v160006INS_16__deque_iteratorIP3JobPS3_RS3_PS4_lLl512EEENS_18__unwrap_iter_implIS7_Lb0EEELi0EEEDTclsrT0_8__unwrapclsr3stdE7declvalIT_EEEESB_, symObjAddr: 0xB4C8, symBinAddr: 0x1000179A4, symSize: 0x44 }
  - { offsetInCU: 0x11BB3, offset: 0x371EE, size: 0x8, addend: 0x0, symName: __ZNSt3__19make_pairB7v160006INS_16__deque_iteratorIP3JobPS3_RS3_PS4_lLl512EEES7_EENS_4pairINS_18__unwrap_ref_decayIT_E4typeENS9_IT0_E4typeEEEOSA_OSD_, symObjAddr: 0xB50C, symBinAddr: 0x1000179E8, symSize: 0x38 }
  - { offsetInCU: 0x11C02, offset: 0x3723D, size: 0x8, addend: 0x0, symName: __ZNSt3__114__rewrap_rangeB7v160006INS_16__deque_iteratorIP3JobPS3_RS3_PS4_lLl512EEES7_EET_S8_T0_, symObjAddr: 0xB544, symBinAddr: 0x100017A20, symSize: 0x5C }
  - { offsetInCU: 0x11C4E, offset: 0x37289, size: 0x8, addend: 0x0, symName: __ZNSt3__113__rewrap_iterB7v160006INS_16__deque_iteratorIP3JobPS3_RS3_PS4_lLl512EEES7_NS_18__unwrap_iter_implIS7_Lb0EEEEET_SA_T0_, symObjAddr: 0xB5A0, symBinAddr: 0x100017A7C, symSize: 0x74 }
  - { offsetInCU: 0x11D4F, offset: 0x3738A, size: 0x8, addend: 0x0, symName: __ZNSt3__115__move_backwardB7v160006INS_17_ClassicAlgPolicyEPP3JobS4_NS_16__deque_iteratorIS3_S4_RS3_PS4_lLl512EEEEENS_4pairIT0_T2_EESA_T1_SB_, symObjAddr: 0xB62C, symBinAddr: 0x100017B08, symSize: 0x44 }
  - { offsetInCU: 0x11DBB, offset: 0x373F6, size: 0x8, addend: 0x0, symName: __ZNSt3__19make_pairB7v160006IRNS_16__deque_iteratorIP3JobPS3_RS3_PS4_lLl512EEES8_EENS_4pairINS_18__unwrap_ref_decayIT_E4typeENSA_IT0_E4typeEEEOSB_OSE_, symObjAddr: 0xB688, symBinAddr: 0x100017B64, symSize: 0x38 }
  - { offsetInCU: 0x11E0A, offset: 0x37445, size: 0x8, addend: 0x0, symName: __ZNSt3__19make_pairB7v160006IRNS_16__deque_iteratorIP3JobPS3_RS3_PS4_lLl512EEES7_EENS_4pairINS_18__unwrap_ref_decayIT_E4typeENSA_IT0_E4typeEEEOSB_OSE_, symObjAddr: 0xB6F4, symBinAddr: 0x100017BD0, symSize: 0x38 }
  - { offsetInCU: 0x11E59, offset: 0x37494, size: 0x8, addend: 0x0, symName: __ZNSt3__123__dispatch_copy_or_moveB7v160006INS_17_ClassicAlgPolicyENS_20__move_backward_loopIS1_EENS_23__move_backward_trivialEPP3JobS7_NS_16__deque_iteratorIS6_S7_RS6_PS7_lLl512EEEEENS_4pairIT2_T4_EESD_T3_SE_, symObjAddr: 0xB72C, symBinAddr: 0x100017C08, symSize: 0x44 }
  - { offsetInCU: 0x11ED7, offset: 0x37512, size: 0x8, addend: 0x0, symName: __ZNSt3__121__unwrap_and_dispatchB7v160006INS_10__overloadINS_20__move_backward_loopINS_17_ClassicAlgPolicyEEENS_23__move_backward_trivialEEEPP3JobS9_NS_16__deque_iteratorIS8_S9_RS8_PS9_lLl512EEELi0EEENS_4pairIT0_T2_EESF_T1_SG_, symObjAddr: 0xB770, symBinAddr: 0x100017C4C, symSize: 0xF0 }
  - { offsetInCU: 0x11F67, offset: 0x375A2, size: 0x8, addend: 0x0, symName: __ZNSt3__114__unwrap_rangeB7v160006IPP3JobS3_EENS_4pairIT0_S5_EET_S7_, symObjAddr: 0xB860, symBinAddr: 0x100017D3C, symSize: 0x60 }
  - { offsetInCU: 0x120B8, offset: 0x376F3, size: 0x8, addend: 0x0, symName: __ZNSt3__19make_pairB7v160006IPP3JobNS_16__deque_iteratorIS2_S3_RS2_PS3_lLl512EEEEENS_4pairINS_18__unwrap_ref_decayIT_E4typeENS9_IT0_E4typeEEEOSA_OSD_, symObjAddr: 0xBA5C, symBinAddr: 0x100017F38, symSize: 0x38 }
  - { offsetInCU: 0x12107, offset: 0x37742, size: 0x8, addend: 0x0, symName: __ZNSt3__114__rewrap_rangeB7v160006IPP3JobS3_EET_S4_T0_, symObjAddr: 0xBA94, symBinAddr: 0x100017F70, symSize: 0x2C }
  - { offsetInCU: 0x12153, offset: 0x3778E, size: 0x8, addend: 0x0, symName: __ZNSt3__19make_pairB7v160006IPP3JobS3_EENS_4pairINS_18__unwrap_ref_decayIT_E4typeENS5_IT0_E4typeEEEOS6_OS9_, symObjAddr: 0xBAC0, symBinAddr: 0x100017F9C, symSize: 0x38 }
  - { offsetInCU: 0x121A2, offset: 0x377DD, size: 0x8, addend: 0x0, symName: __ZNSt3__113__unwrap_iterB7v160006IPP3JobNS_18__unwrap_iter_implIS3_Lb1EEELi0EEEDTclsrT0_8__unwrapclsr3stdE7declvalIT_EEEES7_, symObjAddr: 0xBAF8, symBinAddr: 0x100017FD4, symSize: 0x24 }
  - { offsetInCU: 0x1236F, offset: 0x379AA, size: 0x8, addend: 0x0, symName: __ZNSt3__112__to_addressB7v160006IP3JobEEPT_S4_, symObjAddr: 0xBBB0, symBinAddr: 0x10001808C, symSize: 0x14 }
  - { offsetInCU: 0x123A4, offset: 0x379DF, size: 0x8, addend: 0x0, symName: __ZNSt3__19make_pairB7v160006IRPP3JobRNS_16__deque_iteratorIS2_S3_RS2_PS3_lLl512EEEEENS_4pairINS_18__unwrap_ref_decayIT_E4typeENSB_IT0_E4typeEEEOSC_OSF_, symObjAddr: 0xBBC4, symBinAddr: 0x1000180A0, symSize: 0x38 }
  - { offsetInCU: 0x123F3, offset: 0x37A2E, size: 0x8, addend: 0x0, symName: __ZNSt3__13minB7v160006IlEERKT_S3_S3_, symObjAddr: 0xBBFC, symBinAddr: 0x1000180D8, symSize: 0x2C }
  - { offsetInCU: 0x12436, offset: 0x37A71, size: 0x8, addend: 0x0, symName: __ZNSt3__115__move_backwardB7v160006INS_17_ClassicAlgPolicyEPP3JobS4_S4_EENS_4pairIT0_T2_EES6_T1_S7_, symObjAddr: 0xBC28, symBinAddr: 0x100018104, symSize: 0x44 }
  - { offsetInCU: 0x124A2, offset: 0x37ADD, size: 0x8, addend: 0x0, symName: __ZNSt3__13minB7v160006IlNS_6__lessIllEEEERKT_S5_S5_T0_, symObjAddr: 0xBD60, symBinAddr: 0x10001823C, symSize: 0x54 }
  - { offsetInCU: 0x12537, offset: 0x37B72, size: 0x8, addend: 0x0, symName: __ZNSt3__123__dispatch_copy_or_moveB7v160006INS_17_ClassicAlgPolicyENS_20__move_backward_loopIS1_EENS_23__move_backward_trivialEPP3JobS7_S7_EENS_4pairIT2_T4_EES9_T3_SA_, symObjAddr: 0xBDE8, symBinAddr: 0x1000182C4, symSize: 0x44 }
  - { offsetInCU: 0x125B5, offset: 0x37BF0, size: 0x8, addend: 0x0, symName: __ZNSt3__121__unwrap_and_dispatchB7v160006INS_10__overloadINS_20__move_backward_loopINS_17_ClassicAlgPolicyEEENS_23__move_backward_trivialEEEPP3JobS9_S9_Li0EEENS_4pairIT0_T2_EESB_T1_SC_, symObjAddr: 0xBE2C, symBinAddr: 0x100018308, symSize: 0xB4 }
  - { offsetInCU: 0x12644, offset: 0x37C7F, size: 0x8, addend: 0x0, symName: __ZNSt3__113__rewrap_iterB7v160006IPP3JobS3_NS_18__unwrap_iter_implIS3_Lb1EEEEET_S6_T0_, symObjAddr: 0xBF28, symBinAddr: 0x100018404, symSize: 0x3C }
  - { offsetInCU: 0x12699, offset: 0x37CD4, size: 0x8, addend: 0x0, symName: __ZNSt3__128__copy_backward_trivial_implB7v160006IP3JobS2_EENS_4pairIPT_PT0_EES5_S5_S7_, symObjAddr: 0xBF64, symBinAddr: 0x100018440, symSize: 0x94 }
  - { offsetInCU: 0x12701, offset: 0x37D3C, size: 0x8, addend: 0x0, symName: __ZNSt3__19make_pairB7v160006IRPP3JobS4_EENS_4pairINS_18__unwrap_ref_decayIT_E4typeENS6_IT0_E4typeEEEOS7_OSA_, symObjAddr: 0xBFF8, symBinAddr: 0x1000184D4, symSize: 0x38 }
  - { offsetInCU: 0x12798, offset: 0x37DD3, size: 0x8, addend: 0x0, symName: __ZNSt3__121__convert_to_integralB7v160006El, symObjAddr: 0xC350, symBinAddr: 0x10001882C, symSize: 0x14 }
  - { offsetInCU: 0x127C4, offset: 0x37DFF, size: 0x8, addend: 0x0, symName: __ZNSt3__19__advanceB7v160006INS_16__deque_iteratorIP3JobPS3_RS3_PS4_lLl512EEEEEvRT_NS_15iterator_traitsIS8_E15difference_typeENS_26random_access_iterator_tagE, symObjAddr: 0xC364, symBinAddr: 0x100018840, symSize: 0x2C }
  - { offsetInCU: 0x1280F, offset: 0x37E4A, size: 0x8, addend: 0x0, symName: __ZNSt3__16__moveB7v160006INS_17_ClassicAlgPolicyENS_16__deque_iteratorIP3JobPS4_RS4_PS5_lLl512EEES8_S8_EENS_4pairIT0_T2_EESA_T1_SB_, symObjAddr: 0xC3BC, symBinAddr: 0x100018898, symSize: 0x64 }
  - { offsetInCU: 0x1287B, offset: 0x37EB6, size: 0x8, addend: 0x0, symName: __ZNSt3__123__dispatch_copy_or_moveB7v160006INS_17_ClassicAlgPolicyENS_11__move_loopIS1_EENS_14__move_trivialENS_16__deque_iteratorIP3JobPS7_RS7_PS8_lLl512EEESB_SB_EENS_4pairIT2_T4_EESD_T3_SE_, symObjAddr: 0xC420, symBinAddr: 0x1000188FC, symSize: 0x64 }
  - { offsetInCU: 0x128F9, offset: 0x37F34, size: 0x8, addend: 0x0, symName: __ZNSt3__121__unwrap_and_dispatchB7v160006INS_10__overloadINS_11__move_loopINS_17_ClassicAlgPolicyEEENS_14__move_trivialEEENS_16__deque_iteratorIP3JobPS9_RS9_PSA_lLl512EEESD_SD_Li0EEENS_4pairIT0_T2_EESF_T1_SG_, symObjAddr: 0xC484, symBinAddr: 0x100018960, symSize: 0x12C }
  - { offsetInCU: 0x1298A, offset: 0x37FC5, size: 0x8, addend: 0x0, symName: __ZNSt3__16__moveB7v160006INS_17_ClassicAlgPolicyEPP3JobS4_NS_16__deque_iteratorIS3_S4_RS3_PS4_lLl512EEEEENS_4pairIT0_T2_EESA_T1_SB_, symObjAddr: 0xC7E8, symBinAddr: 0x100018CC4, symSize: 0x44 }
  - { offsetInCU: 0x129F6, offset: 0x38031, size: 0x8, addend: 0x0, symName: __ZNSt3__123__dispatch_copy_or_moveB7v160006INS_17_ClassicAlgPolicyENS_11__move_loopIS1_EENS_14__move_trivialEPP3JobS7_NS_16__deque_iteratorIS6_S7_RS6_PS7_lLl512EEEEENS_4pairIT2_T4_EESD_T3_SE_, symObjAddr: 0xC82C, symBinAddr: 0x100018D08, symSize: 0x44 }
  - { offsetInCU: 0x12A74, offset: 0x380AF, size: 0x8, addend: 0x0, symName: __ZNSt3__121__unwrap_and_dispatchB7v160006INS_10__overloadINS_11__move_loopINS_17_ClassicAlgPolicyEEENS_14__move_trivialEEEPP3JobS9_NS_16__deque_iteratorIS8_S9_RS8_PS9_lLl512EEELi0EEENS_4pairIT0_T2_EESF_T1_SG_, symObjAddr: 0xC870, symBinAddr: 0x100018D4C, symSize: 0xF0 }
  - { offsetInCU: 0x12B04, offset: 0x3813F, size: 0x8, addend: 0x0, symName: __ZNSt3__16__moveB7v160006INS_17_ClassicAlgPolicyEPP3JobS4_S4_EENS_4pairIT0_T2_EES6_T1_S7_, symObjAddr: 0xCAC4, symBinAddr: 0x100018FA0, symSize: 0x44 }
  - { offsetInCU: 0x12B70, offset: 0x381AB, size: 0x8, addend: 0x0, symName: __ZNSt3__123__dispatch_copy_or_moveB7v160006INS_17_ClassicAlgPolicyENS_11__move_loopIS1_EENS_14__move_trivialEPP3JobS7_S7_EENS_4pairIT2_T4_EES9_T3_SA_, symObjAddr: 0xCB08, symBinAddr: 0x100018FE4, symSize: 0x44 }
  - { offsetInCU: 0x12BEE, offset: 0x38229, size: 0x8, addend: 0x0, symName: __ZNSt3__121__unwrap_and_dispatchB7v160006INS_10__overloadINS_11__move_loopINS_17_ClassicAlgPolicyEEENS_14__move_trivialEEEPP3JobS9_S9_Li0EEENS_4pairIT0_T2_EESB_T1_SC_, symObjAddr: 0xCB4C, symBinAddr: 0x100019028, symSize: 0xB4 }
  - { offsetInCU: 0x12C7D, offset: 0x382B8, size: 0x8, addend: 0x0, symName: __ZNSt3__119__copy_trivial_implB7v160006IP3JobS2_EENS_4pairIPT_PT0_EES5_S5_S7_, symObjAddr: 0xCC48, symBinAddr: 0x100019124, symSize: 0x84 }
  - { offsetInCU: 0x12CE5, offset: 0x38320, size: 0x8, addend: 0x0, symName: __ZNSt3__19make_pairB7v160006IRPP3JobS3_EENS_4pairINS_18__unwrap_ref_decayIT_E4typeENS6_IT0_E4typeEEEOS7_OSA_, symObjAddr: 0xCCCC, symBinAddr: 0x1000191A8, symSize: 0x38 }
  - { offsetInCU: 0x12D34, offset: 0x3836F, size: 0x8, addend: 0x0, symName: __ZNSt3__1eqB7v160006IcNS_11char_traitsIcEENS_9allocatorIcEEEEbRKNS_12basic_stringIT_T0_T1_EEPKS6_, symObjAddr: 0xCE1C, symBinAddr: 0x1000192F8, symSize: 0xAC }
  - { offsetInCU: 0x12D9B, offset: 0x383D6, size: 0x8, addend: 0x0, symName: __ZNSt3__1neB7v160006ERKNS_21__tree_const_iteratorINS_12__value_typeINS_12basic_stringIcNS_11char_traitsIcEENS_9allocatorIcEEEENS_6vectorI5ErrorNS5_IS9_EEEEEEPNS_11__tree_nodeISC_PvEElEESJ_, symObjAddr: 0xD358, symBinAddr: 0x100019784, symSize: 0x34 }
  - { offsetInCU: 0x12DD8, offset: 0x38413, size: 0x8, addend: 0x0, symName: __ZNSt3__1eqB7v160006ERKNS_21__tree_const_iteratorINS_12__value_typeINS_12basic_stringIcNS_11char_traitsIcEENS_9allocatorIcEEEENS_6vectorI5ErrorNS5_IS9_EEEEEEPNS_11__tree_nodeISC_PvEElEESJ_, symObjAddr: 0xD6A8, symBinAddr: 0x100019AD4, symSize: 0x30 }
  - { offsetInCU: 0x12E15, offset: 0x38450, size: 0x8, addend: 0x0, symName: __ZNSt3__17launderB7v160006IKNS_4pairIKNS_12basic_stringIcNS_11char_traitsIcEENS_9allocatorIcEEEENS_6vectorI5ErrorNS5_ISA_EEEEEEEEPT_SG_, symObjAddr: 0xD7B4, symBinAddr: 0x100019BE0, symSize: 0x24 }
  - { offsetInCU: 0x12E4C, offset: 0x38487, size: 0x8, addend: 0x0, symName: __ZNSt3__19__launderB7v160006IKNS_4pairIKNS_12basic_stringIcNS_11char_traitsIcEENS_9allocatorIcEEEENS_6vectorI5ErrorNS5_ISA_EEEEEEEEPT_SG_, symObjAddr: 0xD7D8, symBinAddr: 0x100019C04, symSize: 0x14 }
  - { offsetInCU: 0x12E83, offset: 0x384BE, size: 0x8, addend: 0x0, symName: __ZNSt3__13getB7v160006ILm0EKNS_12basic_stringIcNS_11char_traitsIcEENS_9allocatorIcEEEENS_6vectorI5ErrorNS4_IS9_EEEEEERKNS_13tuple_elementIXT_ENS_4pairIT0_T1_EEE4typeERKSG_, symObjAddr: 0xD8B0, symBinAddr: 0x100019C80, symSize: 0x24 }
  - { offsetInCU: 0x12ECC, offset: 0x38507, size: 0x8, addend: 0x0, symName: __ZNSt3__13getB7v160006ILm1EKNS_12basic_stringIcNS_11char_traitsIcEENS_9allocatorIcEEEENS_6vectorI5ErrorNS4_IS9_EEEEEERKNS_13tuple_elementIXT_ENS_4pairIT0_T1_EEE4typeERKSG_, symObjAddr: 0xD8D4, symBinAddr: 0x100019CA4, symSize: 0x24 }
  - { offsetInCU: 0x12F8F, offset: 0x385CA, size: 0x8, addend: 0x0, symName: __ZNSt3__18distanceB7v160006IP5ErrorEENS_15iterator_traitsIT_E15difference_typeES4_S4_, symObjAddr: 0xDB48, symBinAddr: 0x100019F18, symSize: 0x2C }
  - { offsetInCU: 0x12FD2, offset: 0x3860D, size: 0x8, addend: 0x0, symName: __ZNSt3__14copyB7v160006IP5ErrorS2_EET0_T_S4_S3_, symObjAddr: 0xDC2C, symBinAddr: 0x100019F94, symSize: 0x40 }
  - { offsetInCU: 0x1302C, offset: 0x38667, size: 0x8, addend: 0x0, symName: __ZNSt3__125__debug_db_invalidate_allB7v160006INS_6vectorI5ErrorNS_9allocatorIS2_EEEEEEvPT_, symObjAddr: 0xDF4C, symBinAddr: 0x10001A2B4, symSize: 0x10 }
  - { offsetInCU: 0x1305D, offset: 0x38698, size: 0x8, addend: 0x0, symName: __ZNSt3__110__distanceB7v160006IP5ErrorEENS_15iterator_traitsIT_E15difference_typeES4_S4_NS_26random_access_iterator_tagE, symObjAddr: 0xDF5C, symBinAddr: 0x10001A2C4, symSize: 0x28 }
  - { offsetInCU: 0x130AB, offset: 0x386E6, size: 0x8, addend: 0x0, symName: __ZNSt3__121__convert_to_integralB7v160006Em, symObjAddr: 0xDFE4, symBinAddr: 0x10001A2EC, symSize: 0x14 }
  - { offsetInCU: 0x130D7, offset: 0x38712, size: 0x8, addend: 0x0, symName: __ZNSt3__19__advanceB7v160006IP5ErrorEEvRT_NS_15iterator_traitsIS3_E15difference_typeENS_26random_access_iterator_tagE, symObjAddr: 0xDFF8, symBinAddr: 0x10001A300, symSize: 0x30 }
  - { offsetInCU: 0x13121, offset: 0x3875C, size: 0x8, addend: 0x0, symName: __ZNSt3__16__copyB7v160006INS_17_ClassicAlgPolicyEP5ErrorS3_S3_EENS_4pairIT0_T2_EES5_T1_S6_, symObjAddr: 0xE028, symBinAddr: 0x10001A330, symSize: 0x44 }
  - { offsetInCU: 0x1318D, offset: 0x387C8, size: 0x8, addend: 0x0, symName: __ZNSt3__123__dispatch_copy_or_moveB7v160006INS_17_ClassicAlgPolicyENS_11__copy_loopIS1_EENS_14__copy_trivialEP5ErrorS6_S6_EENS_4pairIT2_T4_EES8_T3_S9_, symObjAddr: 0xE06C, symBinAddr: 0x10001A374, symSize: 0x44 }
  - { offsetInCU: 0x1320B, offset: 0x38846, size: 0x8, addend: 0x0, symName: __ZNSt3__121__unwrap_and_dispatchB7v160006INS_10__overloadINS_11__copy_loopINS_17_ClassicAlgPolicyEEENS_14__copy_trivialEEEP5ErrorS8_S8_Li0EEENS_4pairIT0_T2_EESA_T1_SB_, symObjAddr: 0xE0B0, symBinAddr: 0x10001A3B8, symSize: 0xB4 }
  - { offsetInCU: 0x1329A, offset: 0x388D5, size: 0x8, addend: 0x0, symName: __ZNSt3__114__unwrap_rangeB7v160006IP5ErrorS2_EENS_4pairIT0_S4_EET_S6_, symObjAddr: 0xE164, symBinAddr: 0x10001A46C, symSize: 0x60 }
  - { offsetInCU: 0x1340D, offset: 0x38A48, size: 0x8, addend: 0x0, symName: __ZNSt3__113__unwrap_iterB7v160006IP5ErrorNS_18__unwrap_iter_implIS2_Lb1EEELi0EEEDTclsrT0_8__unwrapclsr3stdE7declvalIT_EEEES6_, symObjAddr: 0xE24C, symBinAddr: 0x10001A554, symSize: 0x24 }
  - { offsetInCU: 0x13452, offset: 0x38A8D, size: 0x8, addend: 0x0, symName: __ZNSt3__19make_pairB7v160006IP5ErrorS2_EENS_4pairINS_18__unwrap_ref_decayIT_E4typeENS4_IT0_E4typeEEEOS5_OS8_, symObjAddr: 0xE270, symBinAddr: 0x10001A578, symSize: 0x38 }
  - { offsetInCU: 0x134A1, offset: 0x38ADC, size: 0x8, addend: 0x0, symName: __ZNSt3__114__rewrap_rangeB7v160006IP5ErrorS2_EET_S3_T0_, symObjAddr: 0xE2A8, symBinAddr: 0x10001A5B0, symSize: 0x2C }
  - { offsetInCU: 0x134ED, offset: 0x38B28, size: 0x8, addend: 0x0, symName: __ZNSt3__113__rewrap_iterB7v160006IP5ErrorS2_NS_18__unwrap_iter_implIS2_Lb1EEEEET_S5_T0_, symObjAddr: 0xE2D4, symBinAddr: 0x10001A5DC, symSize: 0x3C }
  - { offsetInCU: 0x13595, offset: 0x38BD0, size: 0x8, addend: 0x0, symName: __ZNSt3__130__uninitialized_allocator_copyB7v160006INS_9allocatorI5ErrorEEPS2_S4_S4_EET2_RT_T0_T1_S5_, symObjAddr: 0xE4B4, symBinAddr: 0x10001A7A8, symSize: 0xF4 }
  - { offsetInCU: 0x13633, offset: 0x38C6E, size: 0x8, addend: 0x0, symName: __ZNSt3__122__make_exception_guardB7v160006INS_29_AllocatorDestroyRangeReverseINS_9allocatorI5ErrorEEPS3_EEEENS_28__exception_guard_exceptionsIT_EES8_, symObjAddr: 0xE648, symBinAddr: 0x10001A914, symSize: 0x4C }
  - { offsetInCU: 0x13669, offset: 0x38CA4, size: 0x8, addend: 0x0, symName: __ZNSt3__119__allocator_destroyB7v160006INS_9allocatorI5ErrorEENS_16reverse_iteratorIPS2_EES6_EEvRT_T0_T1_, symObjAddr: 0xE9C0, symBinAddr: 0x10001AC8C, symSize: 0x70 }
  - { offsetInCU: 0x136CC, offset: 0x38D07, size: 0x8, addend: 0x0, symName: __ZNSt3__1neB7v160006IP5ErrorS2_EEbRKNS_16reverse_iteratorIT_EERKNS3_IT0_EE, symObjAddr: 0xEA64, symBinAddr: 0x10001AD30, symSize: 0x48 }
  - { offsetInCU: 0x13718, offset: 0x38D53, size: 0x8, addend: 0x0, symName: __ZNSt3__112__to_addressB7v160006INS_16reverse_iteratorIP5ErrorEEvEENS_5decayIDTclsr19__to_address_helperIT_EE6__callclsr3stdE7declvalIRKS6_EEEEE4typeES8_, symObjAddr: 0xEAD8, symBinAddr: 0x10001AD78, symSize: 0x24 }
  - { offsetInCU: 0x13778, offset: 0x38DB3, size: 0x8, addend: 0x0, symName: __ZNSt3__119__allocate_at_leastB7v160006INS_9allocatorI5ErrorEEEENS_19__allocation_resultINS_16allocator_traitsIT_E7pointerEEERS6_m, symObjAddr: 0xF058, symBinAddr: 0x10001B0B4, symSize: 0x40 }
  - { offsetInCU: 0x137BB, offset: 0x38DF6, size: 0x8, addend: 0x0, symName: __ZNSt3__1ltB7v160006IcNS_11char_traitsIcEENS_9allocatorIcEEEEbRKNS_12basic_stringIT_T0_T1_EESB_, symObjAddr: 0xF5B0, symBinAddr: 0x10001B580, symSize: 0x38 }
  - { offsetInCU: 0x13838, offset: 0x38E73, size: 0x8, addend: 0x0, symName: __ZNSt3__118__constexpr_memcmpB7v160006IcEEiPKT_S3_m, symObjAddr: 0xF874, symBinAddr: 0x10001B81C, symSize: 0x34 }
  - { offsetInCU: 0x13889, offset: 0x38EC4, size: 0x8, addend: 0x0, symName: __ZNSt3__127__tree_balance_after_insertB7v160006IPNS_16__tree_node_baseIPvEEEEvT_S5_, symObjAddr: 0xFA00, symBinAddr: 0x10001B8DC, symSize: 0x32C }
  - { offsetInCU: 0x13905, offset: 0x38F40, size: 0x8, addend: 0x0, symName: __ZNSt3__118__tree_left_rotateB7v160006IPNS_16__tree_node_baseIPvEEEEvT_, symObjAddr: 0xFD70, symBinAddr: 0x10001BC08, symSize: 0xD8 }
  - { offsetInCU: 0x13947, offset: 0x38F82, size: 0x8, addend: 0x0, symName: __ZNSt3__119__tree_right_rotateB7v160006IPNS_16__tree_node_baseIPvEEEEvT_, symObjAddr: 0xFE48, symBinAddr: 0x10001BCE0, symSize: 0xCC }
  - { offsetInCU: 0x13989, offset: 0x38FC4, size: 0x8, addend: 0x0, symName: __ZNSt3__111__tree_leafB7v160006IPNS_16__tree_node_baseIPvEEEET_S5_, symObjAddr: 0x10044, symBinAddr: 0x10001BEDC, symSize: 0x70 }
  - { offsetInCU: 0x139DC, offset: 0x39017, size: 0x8, addend: 0x0, symName: __ZNSt3__122__make_exception_guardB7v160006INS_6vectorI5ErrorNS_9allocatorIS2_EEE16__destroy_vectorEEENS_28__exception_guard_exceptionsIT_EES8_, symObjAddr: 0x10E78, symBinAddr: 0x10001C7D8, symSize: 0x40 }
  - { offsetInCU: 0x13DD4, offset: 0x3940F, size: 0x8, addend: 0x0, symName: __ZSt28__throw_bad_array_new_lengthB7v160006v, symObjAddr: 0x4CC0, symBinAddr: 0x100011B8C, symSize: 0x34 }
  - { offsetInCU: 0x14C7B, offset: 0x3A2B6, size: 0x8, addend: 0x0, symName: __ZN3JobC2Emi, symObjAddr: 0x1EE4, symBinAddr: 0x10000F194, symSize: 0x94 }
  - { offsetInCU: 0x14CA2, offset: 0x3A2DD, size: 0x8, addend: 0x0, symName: __ZZN3JobC1EmiE11s_nextJobID, symObjAddr: 0x11990, symBinAddr: 0x100058000, symSize: 0x0 }
  - { offsetInCU: 0x14D43, offset: 0x3A37E, size: 0x8, addend: 0x0, symName: __ZNSt3__16vectorI15JobHistoryEntryNS_9allocatorIS1_EEE26__swap_out_circular_bufferERNS_14__split_bufferIS1_RS3_EE, symObjAddr: 0x46D0, symBinAddr: 0x10001159C, symSize: 0x118 }
  - { offsetInCU: 0x14D99, offset: 0x3A3D4, size: 0x8, addend: 0x0, symName: __ZNSt3__16vectorIP15JobWorkerThreadNS_9allocatorIS2_EEE26__swap_out_circular_bufferERNS_14__split_bufferIS2_RS4_EE, symObjAddr: 0x5DA0, symBinAddr: 0x100012C6C, symSize: 0x118 }
  - { offsetInCU: 0x16C75, offset: 0x3C2B0, size: 0x8, addend: 0x0, symName: __ZN9JobSystemC2Ev, symObjAddr: 0x0, symBinAddr: 0x10000D388, symSize: 0x14C }
  - { offsetInCU: 0x16CA0, offset: 0x3C2DB, size: 0x8, addend: 0x0, symName: __ZNSt3__16vectorIP15JobWorkerThreadNS_9allocatorIS2_EEEC1B7v160006Ev, symObjAddr: 0x14C, symBinAddr: 0x10000D4D4, symSize: 0x2C }
  - { offsetInCU: 0x16CC8, offset: 0x3C303, size: 0x8, addend: 0x0, symName: __ZNSt3__15mutexC1B7v160006Ev, symObjAddr: 0x178, symBinAddr: 0x10000D500, symSize: 0x2C }
  - { offsetInCU: 0x16CF0, offset: 0x3C32B, size: 0x8, addend: 0x0, symName: __ZNSt3__15dequeIP3JobNS_9allocatorIS2_EEEC1B7v160006Ev, symObjAddr: 0x1A4, symBinAddr: 0x10000D52C, symSize: 0x2C }
  - { offsetInCU: 0x16D18, offset: 0x3C353, size: 0x8, addend: 0x0, symName: __ZNSt3__16vectorI15JobHistoryEntryNS_9allocatorIS1_EEEC1B7v160006Ev, symObjAddr: 0x1D0, symBinAddr: 0x10000D558, symSize: 0x2C }
  - { offsetInCU: 0x16D40, offset: 0x3C37B, size: 0x8, addend: 0x0, symName: __ZNSt3__16vectorI15JobHistoryEntryNS_9allocatorIS1_EEE7reserveEm, symObjAddr: 0x1FC, symBinAddr: 0x10000D584, symSize: 0xE8 }
  - { offsetInCU: 0x16D9B, offset: 0x3C3D6, size: 0x8, addend: 0x0, symName: __ZNSt3__16vectorI15JobHistoryEntryNS_9allocatorIS1_EEED1B7v160006Ev, symObjAddr: 0x2E4, symBinAddr: 0x10000D66C, symSize: 0x2C }
  - { offsetInCU: 0x16DC3, offset: 0x3C3FE, size: 0x8, addend: 0x0, symName: __ZNSt3__15dequeIP3JobNS_9allocatorIS2_EEED1B7v160006Ev, symObjAddr: 0x310, symBinAddr: 0x10000D698, symSize: 0x2C }
  - { offsetInCU: 0x16DEB, offset: 0x3C426, size: 0x8, addend: 0x0, symName: __ZNSt3__16vectorIP15JobWorkerThreadNS_9allocatorIS2_EEED1B7v160006Ev, symObjAddr: 0x33C, symBinAddr: 0x10000D6C4, symSize: 0x2C }
  - { offsetInCU: 0x16E13, offset: 0x3C44E, size: 0x8, addend: 0x0, symName: __ZN9JobSystemC1Ev, symObjAddr: 0x368, symBinAddr: 0x10000D6F0, symSize: 0x2C }
  - { offsetInCU: 0x16E3E, offset: 0x3C479, size: 0x8, addend: 0x0, symName: __ZN9JobSystemD2Ev, symObjAddr: 0x394, symBinAddr: 0x10000D71C, symSize: 0x188 }
  - { offsetInCU: 0x16E99, offset: 0x3C4D4, size: 0x8, addend: 0x0, symName: __ZNKSt3__16vectorIP15JobWorkerThreadNS_9allocatorIS2_EEE4sizeB7v160006Ev, symObjAddr: 0x528, symBinAddr: 0x10000D8A4, symSize: 0x28 }
  - { offsetInCU: 0x16EBE, offset: 0x3C4F9, size: 0x8, addend: 0x0, symName: __ZNSt3__16vectorIP15JobWorkerThreadNS_9allocatorIS2_EEEixB7v160006Em, symObjAddr: 0x550, symBinAddr: 0x10000D8CC, symSize: 0x24 }
  - { offsetInCU: 0x16EF4, offset: 0x3C52F, size: 0x8, addend: 0x0, symName: __ZNKSt3__16vectorIP15JobWorkerThreadNS_9allocatorIS2_EEE5emptyB7v160006Ev, symObjAddr: 0x574, symBinAddr: 0x10000D8F0, symSize: 0x28 }
  - { offsetInCU: 0x16F19, offset: 0x3C554, size: 0x8, addend: 0x0, symName: __ZNSt3__16vectorIP15JobWorkerThreadNS_9allocatorIS2_EEE4backB7v160006Ev, symObjAddr: 0x59C, symBinAddr: 0x10000D918, symSize: 0x1C }
  - { offsetInCU: 0x16F3E, offset: 0x3C579, size: 0x8, addend: 0x0, symName: __ZNSt3__16vectorIP15JobWorkerThreadNS_9allocatorIS2_EEE8pop_backEv, symObjAddr: 0x5B8, symBinAddr: 0x10000D934, symSize: 0x2C }
  - { offsetInCU: 0x16F65, offset: 0x3C5A0, size: 0x8, addend: 0x0, symName: __ZN9JobSystemD1Ev, symObjAddr: 0x5E4, symBinAddr: 0x10000D960, symSize: 0x2C }
  - { offsetInCU: 0x16F90, offset: 0x3C5CB, size: 0x8, addend: 0x0, symName: __ZN9JobSystem11createOrGetEv, symObjAddr: 0x610, symBinAddr: 0x10000D98C, symSize: 0x80 }
  - { offsetInCU: 0x16FA6, offset: 0x3C5E1, size: 0x8, addend: 0x0, symName: __ZN9JobSystem7destroyEv, symObjAddr: 0x690, symBinAddr: 0x10000DA0C, symSize: 0x6C }
  - { offsetInCU: 0x16FBC, offset: 0x3C5F7, size: 0x8, addend: 0x0, symName: __ZN9JobSystem18createWorkerThreadEPKcm, symObjAddr: 0x6FC, symBinAddr: 0x10000DA78, symSize: 0xBC }
  - { offsetInCU: 0x1700C, offset: 0x3C647, size: 0x8, addend: 0x0, symName: __ZNSt3__16vectorIP15JobWorkerThreadNS_9allocatorIS2_EEE9push_backB7v160006ERKS2_, symObjAddr: 0x7B8, symBinAddr: 0x10000DB34, symSize: 0x6C }
  - { offsetInCU: 0x17042, offset: 0x3C67D, size: 0x8, addend: 0x0, symName: __ZN9JobSystem19destroyWorkerThreadEPKc, symObjAddr: 0x824, symBinAddr: 0x10000DBA0, symSize: 0x13C }
  - { offsetInCU: 0x17092, offset: 0x3C6CD, size: 0x8, addend: 0x0, symName: __ZNSt3__16vectorIP15JobWorkerThreadNS_9allocatorIS2_EEE5beginB7v160006Ev, symObjAddr: 0x960, symBinAddr: 0x10000DCDC, symSize: 0x30 }
  - { offsetInCU: 0x170B9, offset: 0x3C6F4, size: 0x8, addend: 0x0, symName: __ZNSt3__16vectorIP15JobWorkerThreadNS_9allocatorIS2_EEE3endB7v160006Ev, symObjAddr: 0x9C4, symBinAddr: 0x10000DD40, symSize: 0x30 }
  - { offsetInCU: 0x170E0, offset: 0x3C71B, size: 0x8, addend: 0x0, symName: __ZNKSt3__111__wrap_iterIPP15JobWorkerThreadEdeB7v160006Ev, symObjAddr: 0x9F4, symBinAddr: 0x10000DD70, symSize: 0x18 }
  - { offsetInCU: 0x17105, offset: 0x3C740, size: 0x8, addend: 0x0, symName: __ZNSt3__16vectorIP15JobWorkerThreadNS_9allocatorIS2_EEE5eraseB7v160006ENS_11__wrap_iterIPKS2_EE, symObjAddr: 0xA0C, symBinAddr: 0x10000DD88, symSize: 0xA4 }
  - { offsetInCU: 0x17163, offset: 0x3C79E, size: 0x8, addend: 0x0, symName: __ZNSt3__111__wrap_iterIPKP15JobWorkerThreadEC1B7v160006IPS2_EERKNS0_IT_EEPNS_9enable_ifIXsr14is_convertibleIS8_S4_EE5valueEvE4typeE, symObjAddr: 0xAB0, symBinAddr: 0x10000DE2C, symSize: 0x3C }
  - { offsetInCU: 0x171AD, offset: 0x3C7E8, size: 0x8, addend: 0x0, symName: __ZNSt3__111__wrap_iterIPP15JobWorkerThreadEppB7v160006Ev, symObjAddr: 0xAEC, symBinAddr: 0x10000DE68, symSize: 0x20 }
  - { offsetInCU: 0x171D2, offset: 0x3C80D, size: 0x8, addend: 0x0, symName: __ZN9JobSystem8queueJobEP3Job, symObjAddr: 0xB0C, symBinAddr: 0x10000DE88, symSize: 0x94 }
  - { offsetInCU: 0x1720B, offset: 0x3C846, size: 0x8, addend: 0x0, symName: __ZNSt3__16vectorI15JobHistoryEntryNS_9allocatorIS1_EEE12emplace_backIJS1_EEERS1_DpOT_, symObjAddr: 0xBA0, symBinAddr: 0x10000DF1C, symSize: 0x74 }
  - { offsetInCU: 0x1724C, offset: 0x3C887, size: 0x8, addend: 0x0, symName: __ZN15JobHistoryEntryC1Ei9JobStatus, symObjAddr: 0xC14, symBinAddr: 0x10000DF90, symSize: 0x3C }
  - { offsetInCU: 0x17290, offset: 0x3C8CB, size: 0x8, addend: 0x0, symName: __ZNSt3__15dequeIP3JobNS_9allocatorIS2_EEE9push_backERKS2_, symObjAddr: 0xC50, symBinAddr: 0x10000DFCC, symSize: 0xA0 }
  - { offsetInCU: 0x172D5, offset: 0x3C910, size: 0x8, addend: 0x0, symName: __ZNK9JobSystem12getJobStatusEi, symObjAddr: 0xCF0, symBinAddr: 0x10000E06C, symSize: 0x8C }
  - { offsetInCU: 0x17317, offset: 0x3C952, size: 0x8, addend: 0x0, symName: __ZNKSt3__16vectorI15JobHistoryEntryNS_9allocatorIS1_EEE4sizeB7v160006Ev, symObjAddr: 0xD7C, symBinAddr: 0x10000E0F8, symSize: 0x28 }
  - { offsetInCU: 0x1733C, offset: 0x3C977, size: 0x8, addend: 0x0, symName: __ZNKSt3__16vectorI15JobHistoryEntryNS_9allocatorIS1_EEEixB7v160006Em, symObjAddr: 0xDA4, symBinAddr: 0x10000E120, symSize: 0x24 }
  - { offsetInCU: 0x17372, offset: 0x3C9AD, size: 0x8, addend: 0x0, symName: __ZN9JobSystem8getJobIDEP3Job, symObjAddr: 0xDC8, symBinAddr: 0x10000E144, symSize: 0x1C }
  - { offsetInCU: 0x173A7, offset: 0x3C9E2, size: 0x8, addend: 0x0, symName: __ZNK9JobSystem13isJobCompleteEi, symObjAddr: 0xDE4, symBinAddr: 0x10000E160, symSize: 0x38 }
  - { offsetInCU: 0x173DB, offset: 0x3CA16, size: 0x8, addend: 0x0, symName: __ZN9JobSystem19finishCompletedJobsEv, symObjAddr: 0xE1C, symBinAddr: 0x10000E198, symSize: 0x178 }
  - { offsetInCU: 0x17462, offset: 0x3CA9D, size: 0x8, addend: 0x0, symName: __ZNSt3__15dequeIP3JobNS_9allocatorIS2_EEE4swapERS5_, symObjAddr: 0xF94, symBinAddr: 0x10000E310, symSize: 0x84 }
  - { offsetInCU: 0x17498, offset: 0x3CAD3, size: 0x8, addend: 0x0, symName: __ZNSt3__15dequeIP3JobNS_9allocatorIS2_EEE5beginB7v160006Ev, symObjAddr: 0x1018, symBinAddr: 0x10000E394, symSize: 0xB8 }
  - { offsetInCU: 0x174CC, offset: 0x3CB07, size: 0x8, addend: 0x0, symName: __ZNSt3__15dequeIP3JobNS_9allocatorIS2_EEE3endB7v160006Ev, symObjAddr: 0x10D0, symBinAddr: 0x10000E44C, symSize: 0xBC }
  - { offsetInCU: 0x1750F, offset: 0x3CB4A, size: 0x8, addend: 0x0, symName: __ZNKSt3__116__deque_iteratorIP3JobPS2_RS2_PS3_lLl512EEdeB7v160006Ev, symObjAddr: 0x11C0, symBinAddr: 0x10000E53C, symSize: 0x18 }
  - { offsetInCU: 0x17534, offset: 0x3CB6F, size: 0x8, addend: 0x0, symName: __ZNSt3__16vectorI15JobHistoryEntryNS_9allocatorIS1_EEEixB7v160006Em, symObjAddr: 0x11D8, symBinAddr: 0x10000E554, symSize: 0x24 }
  - { offsetInCU: 0x1756A, offset: 0x3CBA5, size: 0x8, addend: 0x0, symName: __ZNSt3__116__deque_iteratorIP3JobPS2_RS2_PS3_lLl512EEppB7v160006Ev, symObjAddr: 0x11FC, symBinAddr: 0x10000E578, symSize: 0x70 }
  - { offsetInCU: 0x1758F, offset: 0x3CBCA, size: 0x8, addend: 0x0, symName: __ZN9JobSystem9finishJobEi, symObjAddr: 0x126C, symBinAddr: 0x10000E5E8, symSize: 0x3F0 }
  - { offsetInCU: 0x17656, offset: 0x3CC91, size: 0x8, addend: 0x0, symName: __ZNSt3__15dequeIP3JobNS_9allocatorIS2_EEE5eraseENS_16__deque_iteratorIS2_PKS2_RS7_PKS8_lLl512EEE, symObjAddr: 0x1728, symBinAddr: 0x10000E9D8, symSize: 0x260 }
  - { offsetInCU: 0x176EF, offset: 0x3CD2A, size: 0x8, addend: 0x0, symName: __ZNSt3__116__deque_iteratorIP3JobPKS2_RS3_PKS4_lLl512EEC1B7v160006IPS2_RS2_PSA_EERKNS0_IS2_T_T0_T1_lLl512EEEPNS_9enable_ifIXsr14is_convertibleISD_S4_EE5valueEvE4typeE, symObjAddr: 0x1988, symBinAddr: 0x10000EC38, symSize: 0x3C }
  - { offsetInCU: 0x17BD7, offset: 0x3D212, size: 0x8, addend: 0x0, symName: __ZN8ParseJobC1Emi, symObjAddr: 0x19F8, symBinAddr: 0x10000ECA8, symSize: 0x3C }
  - { offsetInCU: 0x17CA4, offset: 0x3D2DF, size: 0x8, addend: 0x0, symName: __ZN7JSONJobC1Emi, symObjAddr: 0x1A34, symBinAddr: 0x10000ECE4, symSize: 0x3C }
  - { offsetInCU: 0x17CE8, offset: 0x3D323, size: 0x8, addend: 0x0, symName: __ZNSt3__13mapINS_12basic_stringIcNS_11char_traitsIcEENS_9allocatorIcEEEENS_6vectorI5ErrorNS4_IS8_EEEENS_4lessIS6_EENS4_INS_4pairIKS6_SA_EEEEEaSB7v160006ERKSH_, symObjAddr: 0x1A70, symBinAddr: 0x10000ED20, symSize: 0x34 }
  - { offsetInCU: 0x17D1C, offset: 0x3D357, size: 0x8, addend: 0x0, symName: __ZN9JobSystem14onJobCompletedEP3Job, symObjAddr: 0x1AA4, symBinAddr: 0x10000ED54, symSize: 0x158 }
  - { offsetInCU: 0x17D5E, offset: 0x3D399, size: 0x8, addend: 0x0, symName: __ZN9JobSystem8claimJobEm, symObjAddr: 0x1BFC, symBinAddr: 0x10000EEAC, symSize: 0x16C }
  - { offsetInCU: 0x17DCB, offset: 0x3D406, size: 0x8, addend: 0x0, symName: __ZNSt3__15mutexC2B7v160006Ev, symObjAddr: 0x1D68, symBinAddr: 0x10000F018, symSize: 0x44 }
  - { offsetInCU: 0x17DF3, offset: 0x3D42E, size: 0x8, addend: 0x0, symName: __ZNKSt3__111__wrap_iterIPP15JobWorkerThreadE4baseB7v160006Ev, symObjAddr: 0x1DF4, symBinAddr: 0x10000F0A4, symSize: 0x18 }
  - { offsetInCU: 0x17E18, offset: 0x3D453, size: 0x8, addend: 0x0, symName: __ZNSt3__111__wrap_iterIPKP15JobWorkerThreadEC2B7v160006IPS2_EERKNS0_IT_EEPNS_9enable_ifIXsr14is_convertibleIS8_S4_EE5valueEvE4typeE, symObjAddr: 0x1E0C, symBinAddr: 0x10000F0BC, symSize: 0x40 }
  - { offsetInCU: 0x17E62, offset: 0x3D49D, size: 0x8, addend: 0x0, symName: __ZN15JobHistoryEntryC2Ei9JobStatus, symObjAddr: 0x1E4C, symBinAddr: 0x10000F0FC, symSize: 0x2C }
  - { offsetInCU: 0x17EA7, offset: 0x3D4E2, size: 0x8, addend: 0x0, symName: __ZN8ParseJobC2Emi, symObjAddr: 0x1E78, symBinAddr: 0x10000F128, symSize: 0x6C }
  - { offsetInCU: 0x17EEB, offset: 0x3D526, size: 0x8, addend: 0x0, symName: __ZNSt3__113unordered_mapINS_12basic_stringIcNS_11char_traitsIcEENS_9allocatorIcEEEENS_6vectorI5ErrorNS4_IS8_EEEENS_4hashIS6_EENS_8equal_toIS6_EENS4_INS_4pairIKS6_SA_EEEEEC1B7v160006Ev, symObjAddr: 0x1F78, symBinAddr: 0x10000F228, symSize: 0x2C }
  - { offsetInCU: 0x17F13, offset: 0x3D54E, size: 0x8, addend: 0x0, symName: __ZNSt3__13mapINS_12basic_stringIcNS_11char_traitsIcEENS_9allocatorIcEEEENS_6vectorI5ErrorNS4_IS8_EEEENS_4lessIS6_EENS4_INS_4pairIKS6_SA_EEEEEC1B7v160006Ev, symObjAddr: 0x1FD0, symBinAddr: 0x10000F254, symSize: 0x2C }
  - { offsetInCU: 0x17F3B, offset: 0x3D576, size: 0x8, addend: 0x0, symName: __ZNSt3__13mapINS_12basic_stringIcNS_11char_traitsIcEENS_9allocatorIcEEEENS_6vectorI5ErrorNS4_IS8_EEEENS_4lessIS6_EENS4_INS_4pairIKS6_SA_EEEEEC2B7v160006Ev, symObjAddr: 0x202C, symBinAddr: 0x10000F280, symSize: 0x40 }
  - { offsetInCU: 0x17F63, offset: 0x3D59E, size: 0x8, addend: 0x0, symName: __ZNSt3__119__map_value_compareINS_12basic_stringIcNS_11char_traitsIcEENS_9allocatorIcEEEENS_12__value_typeIS6_NS_6vectorI5ErrorNS4_IS9_EEEEEENS_4lessIS6_EELb1EEC1B7v160006ESE_, symObjAddr: 0x206C, symBinAddr: 0x10000F2C0, symSize: 0x2C }
  - { offsetInCU: 0x17F9A, offset: 0x3D5D5, size: 0x8, addend: 0x0, symName: __ZNSt3__16__treeINS_12__value_typeINS_12basic_stringIcNS_11char_traitsIcEENS_9allocatorIcEEEENS_6vectorI5ErrorNS5_IS9_EEEEEENS_19__map_value_compareIS7_SC_NS_4lessIS7_EELb1EEENS5_ISC_EEEC1ERKSG_, symObjAddr: 0x2098, symBinAddr: 0x10000F2EC, symSize: 0x34 }
  - { offsetInCU: 0x17FD4, offset: 0x3D60F, size: 0x8, addend: 0x0, symName: __ZNSt3__119__map_value_compareINS_12basic_stringIcNS_11char_traitsIcEENS_9allocatorIcEEEENS_12__value_typeIS6_NS_6vectorI5ErrorNS4_IS9_EEEEEENS_4lessIS6_EELb1EEC2B7v160006ESE_, symObjAddr: 0x20CC, symBinAddr: 0x10000F320, symSize: 0x14 }
  - { offsetInCU: 0x1800C, offset: 0x3D647, size: 0x8, addend: 0x0, symName: __ZNSt3__16__treeINS_12__value_typeINS_12basic_stringIcNS_11char_traitsIcEENS_9allocatorIcEEEENS_6vectorI5ErrorNS5_IS9_EEEEEENS_19__map_value_compareIS7_SC_NS_4lessIS7_EELb1EEENS5_ISC_EEEC2ERKSG_, symObjAddr: 0x20E0, symBinAddr: 0x10000F334, symSize: 0x7C }
  - { offsetInCU: 0x18046, offset: 0x3D681, size: 0x8, addend: 0x0, symName: __ZNSt3__117__compressed_pairINS_15__tree_end_nodeIPNS_16__tree_node_baseIPvEEEENS_9allocatorINS_11__tree_nodeINS_12__value_typeINS_12basic_stringIcNS_11char_traitsIcEENS7_IcEEEENS_6vectorI5ErrorNS7_ISG_EEEEEES3_EEEEEC1B7v160006ILb1EvEEv, symObjAddr: 0x215C, symBinAddr: 0x10000F3B0, symSize: 0x2C }
  - { offsetInCU: 0x1807E, offset: 0x3D6B9, size: 0x8, addend: 0x0, symName: __ZNSt3__117__compressed_pairImNS_19__map_value_compareINS_12basic_stringIcNS_11char_traitsIcEENS_9allocatorIcEEEENS_12__value_typeIS7_NS_6vectorI5ErrorNS5_ISA_EEEEEENS_4lessIS7_EELb1EEEEC1B7v160006IiRKSG_EEOT_OT0_, symObjAddr: 0x2188, symBinAddr: 0x10000F3DC, symSize: 0x3C }
  - { offsetInCU: 0x180D4, offset: 0x3D70F, size: 0x8, addend: 0x0, symName: __ZNSt3__117__compressed_pairINS_15__tree_end_nodeIPNS_16__tree_node_baseIPvEEEENS_9allocatorINS_11__tree_nodeINS_12__value_typeINS_12basic_stringIcNS_11char_traitsIcEENS7_IcEEEENS_6vectorI5ErrorNS7_ISG_EEEEEES3_EEEEEC2B7v160006ILb1EvEEv, symObjAddr: 0x2204, symBinAddr: 0x10000F418, symSize: 0x34 }
  - { offsetInCU: 0x18107, offset: 0x3D742, size: 0x8, addend: 0x0, symName: __ZNSt3__122__compressed_pair_elemINS_15__tree_end_nodeIPNS_16__tree_node_baseIPvEEEELi0ELb0EEC2B7v160006ENS_16__value_init_tagE, symObjAddr: 0x2238, symBinAddr: 0x10000F44C, symSize: 0x2C }
  - { offsetInCU: 0x1813A, offset: 0x3D775, size: 0x8, addend: 0x0, symName: __ZNSt3__122__compressed_pair_elemINS_9allocatorINS_11__tree_nodeINS_12__value_typeINS_12basic_stringIcNS_11char_traitsIcEENS1_IcEEEENS_6vectorI5ErrorNS1_ISA_EEEEEEPvEEEELi1ELb1EEC2B7v160006ENS_16__value_init_tagE, symObjAddr: 0x2264, symBinAddr: 0x10000F478, symSize: 0x2C }
  - { offsetInCU: 0x1816D, offset: 0x3D7A8, size: 0x8, addend: 0x0, symName: __ZNSt3__115__tree_end_nodeIPNS_16__tree_node_baseIPvEEEC1B7v160006Ev, symObjAddr: 0x2290, symBinAddr: 0x10000F4A4, symSize: 0x2C }
  - { offsetInCU: 0x18195, offset: 0x3D7D0, size: 0x8, addend: 0x0, symName: __ZNSt3__115__tree_end_nodeIPNS_16__tree_node_baseIPvEEEC2B7v160006Ev, symObjAddr: 0x22BC, symBinAddr: 0x10000F4D0, symSize: 0x18 }
  - { offsetInCU: 0x181BE, offset: 0x3D7F9, size: 0x8, addend: 0x0, symName: __ZNSt3__19allocatorINS_11__tree_nodeINS_12__value_typeINS_12basic_stringIcNS_11char_traitsIcEENS0_IcEEEENS_6vectorI5ErrorNS0_IS9_EEEEEEPvEEEC2B7v160006Ev, symObjAddr: 0x22D4, symBinAddr: 0x10000F4E8, symSize: 0x2C }
  - { offsetInCU: 0x181E6, offset: 0x3D821, size: 0x8, addend: 0x0, symName: __ZNSt3__116__non_trivial_ifILb1ENS_9allocatorINS_11__tree_nodeINS_12__value_typeINS_12basic_stringIcNS_11char_traitsIcEENS1_IcEEEENS_6vectorI5ErrorNS1_ISA_EEEEEEPvEEEEEC2B7v160006Ev, symObjAddr: 0x2300, symBinAddr: 0x10000F514, symSize: 0x14 }
  - { offsetInCU: 0x1820F, offset: 0x3D84A, size: 0x8, addend: 0x0, symName: __ZNSt3__117__compressed_pairImNS_19__map_value_compareINS_12basic_stringIcNS_11char_traitsIcEENS_9allocatorIcEEEENS_12__value_typeIS7_NS_6vectorI5ErrorNS5_ISA_EEEEEENS_4lessIS7_EELb1EEEEC2B7v160006IiRKSG_EEOT_OT0_, symObjAddr: 0x2314, symBinAddr: 0x10000F528, symSize: 0x44 }
  - { offsetInCU: 0x18265, offset: 0x3D8A0, size: 0x8, addend: 0x0, symName: __ZNSt3__122__compressed_pair_elemImLi0ELb0EEC2B7v160006IivEEOT_, symObjAddr: 0x2358, symBinAddr: 0x10000F56C, symSize: 0x24 }
  - { offsetInCU: 0x182A6, offset: 0x3D8E1, size: 0x8, addend: 0x0, symName: __ZNSt3__122__compressed_pair_elemINS_19__map_value_compareINS_12basic_stringIcNS_11char_traitsIcEENS_9allocatorIcEEEENS_12__value_typeIS7_NS_6vectorI5ErrorNS5_ISA_EEEEEENS_4lessIS7_EELb1EEELi1ELb1EEC2B7v160006IRKSG_vEEOT_, symObjAddr: 0x237C, symBinAddr: 0x10000F590, symSize: 0x18 }
  - { offsetInCU: 0x182E7, offset: 0x3D922, size: 0x8, addend: 0x0, symName: __ZNSt3__113unordered_mapINS_12basic_stringIcNS_11char_traitsIcEENS_9allocatorIcEEEENS_6vectorI5ErrorNS4_IS8_EEEENS_4hashIS6_EENS_8equal_toIS6_EENS4_INS_4pairIKS6_SA_EEEEEC2B7v160006Ev, symObjAddr: 0x23E0, symBinAddr: 0x10000F5A8, symSize: 0x3C }
  - { offsetInCU: 0x1830F, offset: 0x3D94A, size: 0x8, addend: 0x0, symName: __ZNSt3__112__hash_tableINS_17__hash_value_typeINS_12basic_stringIcNS_11char_traitsIcEENS_9allocatorIcEEEENS_6vectorI5ErrorNS5_IS9_EEEEEENS_22__unordered_map_hasherIS7_SC_NS_4hashIS7_EENS_8equal_toIS7_EELb1EEENS_21__unordered_map_equalIS7_SC_SH_SF_Lb1EEENS5_ISC_EEEC1Ev, symObjAddr: 0x241C, symBinAddr: 0x10000F5E4, symSize: 0x2C }
  - { offsetInCU: 0x1833A, offset: 0x3D975, size: 0x8, addend: 0x0, symName: __ZNSt3__112__hash_tableINS_17__hash_value_typeINS_12basic_stringIcNS_11char_traitsIcEENS_9allocatorIcEEEENS_6vectorI5ErrorNS5_IS9_EEEEEENS_22__unordered_map_hasherIS7_SC_NS_4hashIS7_EENS_8equal_toIS7_EELb1EEENS_21__unordered_map_equalIS7_SC_SH_SF_Lb1EEENS5_ISC_EEEC2Ev, symObjAddr: 0x2458, symBinAddr: 0x10000F620, symSize: 0x7C }
  - { offsetInCU: 0x18365, offset: 0x3D9A0, size: 0x8, addend: 0x0, symName: __ZNSt3__110unique_ptrIA_PNS_16__hash_node_baseIPNS_11__hash_nodeINS_17__hash_value_typeINS_12basic_stringIcNS_11char_traitsIcEENS_9allocatorIcEEEENS_6vectorI5ErrorNS7_ISB_EEEEEEPvEEEENS_25__bucket_list_deallocatorINS7_ISJ_EEEEEC1B7v160006ILb1EvEEv, symObjAddr: 0x24D4, symBinAddr: 0x10000F69C, symSize: 0x2C }
  - { offsetInCU: 0x18398, offset: 0x3D9D3, size: 0x8, addend: 0x0, symName: __ZNSt3__117__compressed_pairINS_16__hash_node_baseIPNS_11__hash_nodeINS_17__hash_value_typeINS_12basic_stringIcNS_11char_traitsIcEENS_9allocatorIcEEEENS_6vectorI5ErrorNS7_ISB_EEEEEEPvEEEENS7_ISG_EEEC1B7v160006ILb1EvEEv, symObjAddr: 0x2500, symBinAddr: 0x10000F6C8, symSize: 0x2C }
  - { offsetInCU: 0x183D0, offset: 0x3DA0B, size: 0x8, addend: 0x0, symName: __ZNSt3__117__compressed_pairImNS_22__unordered_map_hasherINS_12basic_stringIcNS_11char_traitsIcEENS_9allocatorIcEEEENS_17__hash_value_typeIS7_NS_6vectorI5ErrorNS5_ISA_EEEEEENS_4hashIS7_EENS_8equal_toIS7_EELb1EEEEC1B7v160006IiNS_18__default_init_tagEEEOT_OT0_, symObjAddr: 0x252C, symBinAddr: 0x10000F6F4, symSize: 0x3C }
  - { offsetInCU: 0x1842B, offset: 0x3DA66, size: 0x8, addend: 0x0, symName: __ZNSt3__117__compressed_pairIfNS_21__unordered_map_equalINS_12basic_stringIcNS_11char_traitsIcEENS_9allocatorIcEEEENS_17__hash_value_typeIS7_NS_6vectorI5ErrorNS5_ISA_EEEEEENS_8equal_toIS7_EENS_4hashIS7_EELb1EEEEC1B7v160006IfNS_18__default_init_tagEEEOT_OT0_, symObjAddr: 0x2568, symBinAddr: 0x10000F730, symSize: 0x3C }
  - { offsetInCU: 0x18481, offset: 0x3DABC, size: 0x8, addend: 0x0, symName: __ZNSt3__110unique_ptrIA_PNS_16__hash_node_baseIPNS_11__hash_nodeINS_17__hash_value_typeINS_12basic_stringIcNS_11char_traitsIcEENS_9allocatorIcEEEENS_6vectorI5ErrorNS7_ISB_EEEEEEPvEEEENS_25__bucket_list_deallocatorINS7_ISJ_EEEEEC2B7v160006ILb1EvEEv, symObjAddr: 0x25A4, symBinAddr: 0x10000F76C, symSize: 0x3C }
  - { offsetInCU: 0x184B9, offset: 0x3DAF4, size: 0x8, addend: 0x0, symName: __ZNSt3__117__compressed_pairIPPNS_16__hash_node_baseIPNS_11__hash_nodeINS_17__hash_value_typeINS_12basic_stringIcNS_11char_traitsIcEENS_9allocatorIcEEEENS_6vectorI5ErrorNS7_ISB_EEEEEEPvEEEENS_25__bucket_list_deallocatorINS7_ISJ_EEEEEC1B7v160006INS_16__value_init_tagESQ_EEOT_OT0_, symObjAddr: 0x25E0, symBinAddr: 0x10000F7A8, symSize: 0x3C }
  - { offsetInCU: 0x1850F, offset: 0x3DB4A, size: 0x8, addend: 0x0, symName: __ZNSt3__117__compressed_pairIPPNS_16__hash_node_baseIPNS_11__hash_nodeINS_17__hash_value_typeINS_12basic_stringIcNS_11char_traitsIcEENS_9allocatorIcEEEENS_6vectorI5ErrorNS7_ISB_EEEEEEPvEEEENS_25__bucket_list_deallocatorINS7_ISJ_EEEEEC2B7v160006INS_16__value_init_tagESQ_EEOT_OT0_, symObjAddr: 0x261C, symBinAddr: 0x10000F7E4, symSize: 0x40 }
  - { offsetInCU: 0x18565, offset: 0x3DBA0, size: 0x8, addend: 0x0, symName: __ZNSt3__122__compressed_pair_elemIPPNS_16__hash_node_baseIPNS_11__hash_nodeINS_17__hash_value_typeINS_12basic_stringIcNS_11char_traitsIcEENS_9allocatorIcEEEENS_6vectorI5ErrorNS7_ISB_EEEEEEPvEEEELi0ELb0EEC2B7v160006ENS_16__value_init_tagE, symObjAddr: 0x265C, symBinAddr: 0x10000F824, symSize: 0x18 }
  - { offsetInCU: 0x18599, offset: 0x3DBD4, size: 0x8, addend: 0x0, symName: __ZNSt3__122__compressed_pair_elemINS_25__bucket_list_deallocatorINS_9allocatorIPNS_16__hash_node_baseIPNS_11__hash_nodeINS_17__hash_value_typeINS_12basic_stringIcNS_11char_traitsIcEENS2_IcEEEENS_6vectorI5ErrorNS2_ISC_EEEEEEPvEEEEEEEELi1ELb0EEC2B7v160006ENS_16__value_init_tagE, symObjAddr: 0x2674, symBinAddr: 0x10000F83C, symSize: 0x2C }
  - { offsetInCU: 0x185CC, offset: 0x3DC07, size: 0x8, addend: 0x0, symName: __ZNSt3__125__bucket_list_deallocatorINS_9allocatorIPNS_16__hash_node_baseIPNS_11__hash_nodeINS_17__hash_value_typeINS_12basic_stringIcNS_11char_traitsIcEENS1_IcEEEENS_6vectorI5ErrorNS1_ISB_EEEEEEPvEEEEEEEC1B7v160006Ev, symObjAddr: 0x26A0, symBinAddr: 0x10000F868, symSize: 0x2C }
  - { offsetInCU: 0x185F4, offset: 0x3DC2F, size: 0x8, addend: 0x0, symName: __ZNSt3__125__bucket_list_deallocatorINS_9allocatorIPNS_16__hash_node_baseIPNS_11__hash_nodeINS_17__hash_value_typeINS_12basic_stringIcNS_11char_traitsIcEENS1_IcEEEENS_6vectorI5ErrorNS1_ISB_EEEEEEPvEEEEEEEC2B7v160006Ev, symObjAddr: 0x26CC, symBinAddr: 0x10000F894, symSize: 0x40 }
  - { offsetInCU: 0x1861C, offset: 0x3DC57, size: 0x8, addend: 0x0, symName: __ZNSt3__117__compressed_pairImNS_9allocatorIPNS_16__hash_node_baseIPNS_11__hash_nodeINS_17__hash_value_typeINS_12basic_stringIcNS_11char_traitsIcEENS1_IcEEEENS_6vectorI5ErrorNS1_ISB_EEEEEEPvEEEEEEEC1B7v160006IiNS_18__default_init_tagEEEOT_OT0_, symObjAddr: 0x270C, symBinAddr: 0x10000F8D4, symSize: 0x3C }
  - { offsetInCU: 0x18672, offset: 0x3DCAD, size: 0x8, addend: 0x0, symName: __ZNSt3__117__compressed_pairImNS_9allocatorIPNS_16__hash_node_baseIPNS_11__hash_nodeINS_17__hash_value_typeINS_12basic_stringIcNS_11char_traitsIcEENS1_IcEEEENS_6vectorI5ErrorNS1_ISB_EEEEEEPvEEEEEEEC2B7v160006IiNS_18__default_init_tagEEEOT_OT0_, symObjAddr: 0x2748, symBinAddr: 0x10000F910, symSize: 0x40 }
  - { offsetInCU: 0x186C8, offset: 0x3DD03, size: 0x8, addend: 0x0, symName: __ZNSt3__122__compressed_pair_elemINS_9allocatorIPNS_16__hash_node_baseIPNS_11__hash_nodeINS_17__hash_value_typeINS_12basic_stringIcNS_11char_traitsIcEENS1_IcEEEENS_6vectorI5ErrorNS1_ISB_EEEEEEPvEEEEEELi1ELb1EEC2B7v160006ENS_18__default_init_tagE, symObjAddr: 0x2788, symBinAddr: 0x10000F950, symSize: 0x2C }
  - { offsetInCU: 0x186FB, offset: 0x3DD36, size: 0x8, addend: 0x0, symName: __ZNSt3__19allocatorIPNS_16__hash_node_baseIPNS_11__hash_nodeINS_17__hash_value_typeINS_12basic_stringIcNS_11char_traitsIcEENS0_IcEEEENS_6vectorI5ErrorNS0_ISA_EEEEEEPvEEEEEC2B7v160006Ev, symObjAddr: 0x27B4, symBinAddr: 0x10000F97C, symSize: 0x2C }
  - { offsetInCU: 0x18723, offset: 0x3DD5E, size: 0x8, addend: 0x0, symName: __ZNSt3__116__non_trivial_ifILb1ENS_9allocatorIPNS_16__hash_node_baseIPNS_11__hash_nodeINS_17__hash_value_typeINS_12basic_stringIcNS_11char_traitsIcEENS1_IcEEEENS_6vectorI5ErrorNS1_ISB_EEEEEEPvEEEEEEEC2B7v160006Ev, symObjAddr: 0x27E0, symBinAddr: 0x10000F9A8, symSize: 0x14 }
  - { offsetInCU: 0x1874C, offset: 0x3DD87, size: 0x8, addend: 0x0, symName: __ZNSt3__117__compressed_pairINS_16__hash_node_baseIPNS_11__hash_nodeINS_17__hash_value_typeINS_12basic_stringIcNS_11char_traitsIcEENS_9allocatorIcEEEENS_6vectorI5ErrorNS7_ISB_EEEEEEPvEEEENS7_ISG_EEEC2B7v160006ILb1EvEEv, symObjAddr: 0x27F4, symBinAddr: 0x10000F9BC, symSize: 0x34 }
  - { offsetInCU: 0x1877F, offset: 0x3DDBA, size: 0x8, addend: 0x0, symName: __ZNSt3__122__compressed_pair_elemINS_16__hash_node_baseIPNS_11__hash_nodeINS_17__hash_value_typeINS_12basic_stringIcNS_11char_traitsIcEENS_9allocatorIcEEEENS_6vectorI5ErrorNS7_ISB_EEEEEEPvEEEELi0ELb0EEC2B7v160006ENS_16__value_init_tagE, symObjAddr: 0x2828, symBinAddr: 0x10000F9F0, symSize: 0x2C }
  - { offsetInCU: 0x187B2, offset: 0x3DDED, size: 0x8, addend: 0x0, symName: __ZNSt3__122__compressed_pair_elemINS_9allocatorINS_11__hash_nodeINS_17__hash_value_typeINS_12basic_stringIcNS_11char_traitsIcEENS1_IcEEEENS_6vectorI5ErrorNS1_ISA_EEEEEEPvEEEELi1ELb1EEC2B7v160006ENS_16__value_init_tagE, symObjAddr: 0x2854, symBinAddr: 0x10000FA1C, symSize: 0x2C }
  - { offsetInCU: 0x187E5, offset: 0x3DE20, size: 0x8, addend: 0x0, symName: __ZNSt3__116__hash_node_baseIPNS_11__hash_nodeINS_17__hash_value_typeINS_12basic_stringIcNS_11char_traitsIcEENS_9allocatorIcEEEENS_6vectorI5ErrorNS6_ISA_EEEEEEPvEEEC1B7v160006Ev, symObjAddr: 0x2880, symBinAddr: 0x10000FA48, symSize: 0x2C }
  - { offsetInCU: 0x1880D, offset: 0x3DE48, size: 0x8, addend: 0x0, symName: __ZNSt3__116__hash_node_baseIPNS_11__hash_nodeINS_17__hash_value_typeINS_12basic_stringIcNS_11char_traitsIcEENS_9allocatorIcEEEENS_6vectorI5ErrorNS6_ISA_EEEEEEPvEEEC2B7v160006Ev, symObjAddr: 0x28AC, symBinAddr: 0x10000FA74, symSize: 0x18 }
  - { offsetInCU: 0x18836, offset: 0x3DE71, size: 0x8, addend: 0x0, symName: __ZNSt3__19allocatorINS_11__hash_nodeINS_17__hash_value_typeINS_12basic_stringIcNS_11char_traitsIcEENS0_IcEEEENS_6vectorI5ErrorNS0_IS9_EEEEEEPvEEEC2B7v160006Ev, symObjAddr: 0x28C4, symBinAddr: 0x10000FA8C, symSize: 0x2C }
  - { offsetInCU: 0x1885E, offset: 0x3DE99, size: 0x8, addend: 0x0, symName: __ZNSt3__116__non_trivial_ifILb1ENS_9allocatorINS_11__hash_nodeINS_17__hash_value_typeINS_12basic_stringIcNS_11char_traitsIcEENS1_IcEEEENS_6vectorI5ErrorNS1_ISA_EEEEEEPvEEEEEC2B7v160006Ev, symObjAddr: 0x28F0, symBinAddr: 0x10000FAB8, symSize: 0x14 }
  - { offsetInCU: 0x18887, offset: 0x3DEC2, size: 0x8, addend: 0x0, symName: __ZNSt3__117__compressed_pairImNS_22__unordered_map_hasherINS_12basic_stringIcNS_11char_traitsIcEENS_9allocatorIcEEEENS_17__hash_value_typeIS7_NS_6vectorI5ErrorNS5_ISA_EEEEEENS_4hashIS7_EENS_8equal_toIS7_EELb1EEEEC2B7v160006IiNS_18__default_init_tagEEEOT_OT0_, symObjAddr: 0x2904, symBinAddr: 0x10000FACC, symSize: 0x40 }
  - { offsetInCU: 0x188DD, offset: 0x3DF18, size: 0x8, addend: 0x0, symName: __ZNSt3__122__compressed_pair_elemINS_22__unordered_map_hasherINS_12basic_stringIcNS_11char_traitsIcEENS_9allocatorIcEEEENS_17__hash_value_typeIS7_NS_6vectorI5ErrorNS5_ISA_EEEEEENS_4hashIS7_EENS_8equal_toIS7_EELb1EEELi1ELb1EEC2B7v160006ENS_18__default_init_tagE, symObjAddr: 0x2944, symBinAddr: 0x10000FB0C, symSize: 0x2C }
  - { offsetInCU: 0x18910, offset: 0x3DF4B, size: 0x8, addend: 0x0, symName: __ZNSt3__122__unordered_map_hasherINS_12basic_stringIcNS_11char_traitsIcEENS_9allocatorIcEEEENS_17__hash_value_typeIS6_NS_6vectorI5ErrorNS4_IS9_EEEEEENS_4hashIS6_EENS_8equal_toIS6_EELb1EEC2B7v160006Ev, symObjAddr: 0x2970, symBinAddr: 0x10000FB38, symSize: 0x14 }
  - { offsetInCU: 0x18939, offset: 0x3DF74, size: 0x8, addend: 0x0, symName: __ZNSt3__117__compressed_pairIfNS_21__unordered_map_equalINS_12basic_stringIcNS_11char_traitsIcEENS_9allocatorIcEEEENS_17__hash_value_typeIS7_NS_6vectorI5ErrorNS5_ISA_EEEEEENS_8equal_toIS7_EENS_4hashIS7_EELb1EEEEC2B7v160006IfNS_18__default_init_tagEEEOT_OT0_, symObjAddr: 0x2984, symBinAddr: 0x10000FB4C, symSize: 0x40 }
  - { offsetInCU: 0x1898F, offset: 0x3DFCA, size: 0x8, addend: 0x0, symName: __ZNSt3__122__compressed_pair_elemIfLi0ELb0EEC2B7v160006IfvEEOT_, symObjAddr: 0x29C4, symBinAddr: 0x10000FB8C, symSize: 0x24 }
  - { offsetInCU: 0x189D0, offset: 0x3E00B, size: 0x8, addend: 0x0, symName: __ZNSt3__122__compressed_pair_elemINS_21__unordered_map_equalINS_12basic_stringIcNS_11char_traitsIcEENS_9allocatorIcEEEENS_17__hash_value_typeIS7_NS_6vectorI5ErrorNS5_ISA_EEEEEENS_8equal_toIS7_EENS_4hashIS7_EELb1EEELi1ELb1EEC2B7v160006ENS_18__default_init_tagE, symObjAddr: 0x29E8, symBinAddr: 0x10000FBB0, symSize: 0x2C }
  - { offsetInCU: 0x18A03, offset: 0x3E03E, size: 0x8, addend: 0x0, symName: __ZNSt3__121__unordered_map_equalINS_12basic_stringIcNS_11char_traitsIcEENS_9allocatorIcEEEENS_17__hash_value_typeIS6_NS_6vectorI5ErrorNS4_IS9_EEEEEENS_8equal_toIS6_EENS_4hashIS6_EELb1EEC2B7v160006Ev, symObjAddr: 0x2A14, symBinAddr: 0x10000FBDC, symSize: 0x14 }
  - { offsetInCU: 0x18A2C, offset: 0x3E067, size: 0x8, addend: 0x0, symName: __ZN7JSONJobC2Emi, symObjAddr: 0x2BFC, symBinAddr: 0x10000FBF0, symSize: 0x78 }
  - { offsetInCU: 0x18A70, offset: 0x3E0AB, size: 0x8, addend: 0x0, symName: __ZNSt3__16vectorI5ErrorNS_9allocatorIS1_EEEC1B7v160006Ev, symObjAddr: 0x2C74, symBinAddr: 0x10000FC68, symSize: 0x2C }
  - { offsetInCU: 0x18A98, offset: 0x3E0D3, size: 0x8, addend: 0x0, symName: __ZNSt3__16vectorI5ErrorNS_9allocatorIS1_EEEC2B7v160006Ev, symObjAddr: 0x2CA0, symBinAddr: 0x10000FC94, symSize: 0x58 }
  - { offsetInCU: 0x18AC5, offset: 0x3E100, size: 0x8, addend: 0x0, symName: __ZNSt3__117__compressed_pairIP5ErrorNS_9allocatorIS1_EEEC1B7v160006IDnNS_18__default_init_tagEEEOT_OT0_, symObjAddr: 0x2CF8, symBinAddr: 0x10000FCEC, symSize: 0x3C }
  - { offsetInCU: 0x18B1B, offset: 0x3E156, size: 0x8, addend: 0x0, symName: __ZNSt3__117__compressed_pairIP5ErrorNS_9allocatorIS1_EEEC2B7v160006IDnNS_18__default_init_tagEEEOT_OT0_, symObjAddr: 0x2D44, symBinAddr: 0x10000FD38, symSize: 0x40 }
  - { offsetInCU: 0x18B71, offset: 0x3E1AC, size: 0x8, addend: 0x0, symName: __ZNSt3__122__compressed_pair_elemIP5ErrorLi0ELb0EEC2B7v160006IDnvEEOT_, symObjAddr: 0x2D84, symBinAddr: 0x10000FD78, symSize: 0x1C }
  - { offsetInCU: 0x18BB2, offset: 0x3E1ED, size: 0x8, addend: 0x0, symName: __ZNSt3__122__compressed_pair_elemINS_9allocatorI5ErrorEELi1ELb1EEC2B7v160006ENS_18__default_init_tagE, symObjAddr: 0x2DA0, symBinAddr: 0x10000FD94, symSize: 0x2C }
  - { offsetInCU: 0x18BE5, offset: 0x3E220, size: 0x8, addend: 0x0, symName: __ZNSt3__19allocatorI5ErrorEC2B7v160006Ev, symObjAddr: 0x2DCC, symBinAddr: 0x10000FDC0, symSize: 0x2C }
  - { offsetInCU: 0x18C0D, offset: 0x3E248, size: 0x8, addend: 0x0, symName: __ZNSt3__116__non_trivial_ifILb1ENS_9allocatorI5ErrorEEEC2B7v160006Ev, symObjAddr: 0x2DF8, symBinAddr: 0x10000FDEC, symSize: 0x14 }
  - { offsetInCU: 0x18C36, offset: 0x3E271, size: 0x8, addend: 0x0, symName: __ZNSt3__16vectorIP15JobWorkerThreadNS_9allocatorIS2_EEEC2B7v160006Ev, symObjAddr: 0x2E0C, symBinAddr: 0x10000FE00, symSize: 0x58 }
  - { offsetInCU: 0x18C5E, offset: 0x3E299, size: 0x8, addend: 0x0, symName: __ZNSt3__117__compressed_pairIPP15JobWorkerThreadNS_9allocatorIS2_EEEC1B7v160006IDnNS_18__default_init_tagEEEOT_OT0_, symObjAddr: 0x2E64, symBinAddr: 0x10000FE58, symSize: 0x3C }
  - { offsetInCU: 0x18CB4, offset: 0x3E2EF, size: 0x8, addend: 0x0, symName: __ZNSt3__117__compressed_pairIPP15JobWorkerThreadNS_9allocatorIS2_EEEC2B7v160006IDnNS_18__default_init_tagEEEOT_OT0_, symObjAddr: 0x2EB0, symBinAddr: 0x10000FEA4, symSize: 0x40 }
  - { offsetInCU: 0x18D0A, offset: 0x3E345, size: 0x8, addend: 0x0, symName: __ZNSt3__122__compressed_pair_elemIPP15JobWorkerThreadLi0ELb0EEC2B7v160006IDnvEEOT_, symObjAddr: 0x2EF0, symBinAddr: 0x10000FEE4, symSize: 0x1C }
  - { offsetInCU: 0x18D4B, offset: 0x3E386, size: 0x8, addend: 0x0, symName: __ZNSt3__122__compressed_pair_elemINS_9allocatorIP15JobWorkerThreadEELi1ELb1EEC2B7v160006ENS_18__default_init_tagE, symObjAddr: 0x2F0C, symBinAddr: 0x10000FF00, symSize: 0x2C }
  - { offsetInCU: 0x18D7E, offset: 0x3E3B9, size: 0x8, addend: 0x0, symName: __ZNSt3__19allocatorIP15JobWorkerThreadEC2B7v160006Ev, symObjAddr: 0x2F38, symBinAddr: 0x10000FF2C, symSize: 0x2C }
  - { offsetInCU: 0x18DA6, offset: 0x3E3E1, size: 0x8, addend: 0x0, symName: __ZNSt3__116__non_trivial_ifILb1ENS_9allocatorIP15JobWorkerThreadEEEC2B7v160006Ev, symObjAddr: 0x2F64, symBinAddr: 0x10000FF58, symSize: 0x14 }
  - { offsetInCU: 0x18DCF, offset: 0x3E40A, size: 0x8, addend: 0x0, symName: __ZNSt3__15dequeIP3JobNS_9allocatorIS2_EEEC2B7v160006Ev, symObjAddr: 0x2F78, symBinAddr: 0x10000FF6C, symSize: 0x50 }
  - { offsetInCU: 0x18DF7, offset: 0x3E432, size: 0x8, addend: 0x0, symName: __ZNSt3__114__split_bufferIPP3JobNS_9allocatorIS3_EEEC1Ev, symObjAddr: 0x2FC8, symBinAddr: 0x10000FFBC, symSize: 0x2C }
  - { offsetInCU: 0x18E22, offset: 0x3E45D, size: 0x8, addend: 0x0, symName: __ZNSt3__117__compressed_pairImNS_9allocatorIP3JobEEEC1B7v160006IiNS_18__default_init_tagEEEOT_OT0_, symObjAddr: 0x2FF4, symBinAddr: 0x10000FFE8, symSize: 0x3C }
  - { offsetInCU: 0x18E78, offset: 0x3E4B3, size: 0x8, addend: 0x0, symName: __ZNSt3__114__split_bufferIPP3JobNS_9allocatorIS3_EEEC2Ev, symObjAddr: 0x3030, symBinAddr: 0x100010024, symSize: 0x50 }
  - { offsetInCU: 0x18EA3, offset: 0x3E4DE, size: 0x8, addend: 0x0, symName: __ZNSt3__117__compressed_pairIPPP3JobNS_9allocatorIS3_EEEC1B7v160006IDnNS_18__default_init_tagEEEOT_OT0_, symObjAddr: 0x3080, symBinAddr: 0x100010074, symSize: 0x3C }
  - { offsetInCU: 0x18EF9, offset: 0x3E534, size: 0x8, addend: 0x0, symName: __ZNSt3__117__compressed_pairIPPP3JobNS_9allocatorIS3_EEEC2B7v160006IDnNS_18__default_init_tagEEEOT_OT0_, symObjAddr: 0x30BC, symBinAddr: 0x1000100B0, symSize: 0x40 }
  - { offsetInCU: 0x18F4F, offset: 0x3E58A, size: 0x8, addend: 0x0, symName: __ZNSt3__122__compressed_pair_elemIPPP3JobLi0ELb0EEC2B7v160006IDnvEEOT_, symObjAddr: 0x30FC, symBinAddr: 0x1000100F0, symSize: 0x1C }
  - { offsetInCU: 0x18F90, offset: 0x3E5CB, size: 0x8, addend: 0x0, symName: __ZNSt3__122__compressed_pair_elemINS_9allocatorIPP3JobEELi1ELb1EEC2B7v160006ENS_18__default_init_tagE, symObjAddr: 0x3118, symBinAddr: 0x10001010C, symSize: 0x2C }
  - { offsetInCU: 0x18FC3, offset: 0x3E5FE, size: 0x8, addend: 0x0, symName: __ZNSt3__19allocatorIPP3JobEC2B7v160006Ev, symObjAddr: 0x3144, symBinAddr: 0x100010138, symSize: 0x2C }
  - { offsetInCU: 0x18FEB, offset: 0x3E626, size: 0x8, addend: 0x0, symName: __ZNSt3__116__non_trivial_ifILb1ENS_9allocatorIPP3JobEEEC2B7v160006Ev, symObjAddr: 0x3170, symBinAddr: 0x100010164, symSize: 0x14 }
  - { offsetInCU: 0x19014, offset: 0x3E64F, size: 0x8, addend: 0x0, symName: __ZNSt3__117__compressed_pairImNS_9allocatorIP3JobEEEC2B7v160006IiNS_18__default_init_tagEEEOT_OT0_, symObjAddr: 0x3184, symBinAddr: 0x100010178, symSize: 0x40 }
  - { offsetInCU: 0x1906A, offset: 0x3E6A5, size: 0x8, addend: 0x0, symName: __ZNSt3__122__compressed_pair_elemINS_9allocatorIP3JobEELi1ELb1EEC2B7v160006ENS_18__default_init_tagE, symObjAddr: 0x31C4, symBinAddr: 0x1000101B8, symSize: 0x2C }
  - { offsetInCU: 0x1909D, offset: 0x3E6D8, size: 0x8, addend: 0x0, symName: __ZNSt3__19allocatorIP3JobEC2B7v160006Ev, symObjAddr: 0x31F0, symBinAddr: 0x1000101E4, symSize: 0x2C }
  - { offsetInCU: 0x190C5, offset: 0x3E700, size: 0x8, addend: 0x0, symName: __ZNSt3__116__non_trivial_ifILb1ENS_9allocatorIP3JobEEEC2B7v160006Ev, symObjAddr: 0x321C, symBinAddr: 0x100010210, symSize: 0x14 }
  - { offsetInCU: 0x190EE, offset: 0x3E729, size: 0x8, addend: 0x0, symName: __ZNSt3__16vectorI15JobHistoryEntryNS_9allocatorIS1_EEEC2B7v160006Ev, symObjAddr: 0x3230, symBinAddr: 0x100010224, symSize: 0x58 }
  - { offsetInCU: 0x19116, offset: 0x3E751, size: 0x8, addend: 0x0, symName: __ZNSt3__117__compressed_pairIP15JobHistoryEntryNS_9allocatorIS1_EEEC1B7v160006IDnNS_18__default_init_tagEEEOT_OT0_, symObjAddr: 0x3288, symBinAddr: 0x10001027C, symSize: 0x3C }
  - { offsetInCU: 0x1916C, offset: 0x3E7A7, size: 0x8, addend: 0x0, symName: __ZNSt3__117__compressed_pairIP15JobHistoryEntryNS_9allocatorIS1_EEEC2B7v160006IDnNS_18__default_init_tagEEEOT_OT0_, symObjAddr: 0x32D4, symBinAddr: 0x1000102C8, symSize: 0x40 }
  - { offsetInCU: 0x191C2, offset: 0x3E7FD, size: 0x8, addend: 0x0, symName: __ZNSt3__122__compressed_pair_elemIP15JobHistoryEntryLi0ELb0EEC2B7v160006IDnvEEOT_, symObjAddr: 0x3314, symBinAddr: 0x100010308, symSize: 0x1C }
  - { offsetInCU: 0x19203, offset: 0x3E83E, size: 0x8, addend: 0x0, symName: __ZNSt3__122__compressed_pair_elemINS_9allocatorI15JobHistoryEntryEELi1ELb1EEC2B7v160006ENS_18__default_init_tagE, symObjAddr: 0x3330, symBinAddr: 0x100010324, symSize: 0x2C }
  - { offsetInCU: 0x19236, offset: 0x3E871, size: 0x8, addend: 0x0, symName: __ZNSt3__19allocatorI15JobHistoryEntryEC2B7v160006Ev, symObjAddr: 0x335C, symBinAddr: 0x100010350, symSize: 0x2C }
  - { offsetInCU: 0x1925E, offset: 0x3E899, size: 0x8, addend: 0x0, symName: __ZNSt3__116__non_trivial_ifILb1ENS_9allocatorI15JobHistoryEntryEEEC2B7v160006Ev, symObjAddr: 0x3388, symBinAddr: 0x10001037C, symSize: 0x14 }
  - { offsetInCU: 0x19287, offset: 0x3E8C2, size: 0x8, addend: 0x0, symName: __ZNSt3__16vectorIP15JobWorkerThreadNS_9allocatorIS2_EEED2B7v160006Ev, symObjAddr: 0x339C, symBinAddr: 0x100010390, symSize: 0x44 }
  - { offsetInCU: 0x192AF, offset: 0x3E8EA, size: 0x8, addend: 0x0, symName: __ZNSt3__16vectorIP15JobWorkerThreadNS_9allocatorIS2_EEE16__destroy_vectorC1ERS5_, symObjAddr: 0x33E0, symBinAddr: 0x1000103D4, symSize: 0x34 }
  - { offsetInCU: 0x192E6, offset: 0x3E921, size: 0x8, addend: 0x0, symName: __ZNSt3__16vectorIP15JobWorkerThreadNS_9allocatorIS2_EEE16__destroy_vectorclB7v160006Ev, symObjAddr: 0x3414, symBinAddr: 0x100010408, symSize: 0x9C }
  - { offsetInCU: 0x1930B, offset: 0x3E946, size: 0x8, addend: 0x0, symName: __ZNSt3__16vectorIP15JobWorkerThreadNS_9allocatorIS2_EEE16__destroy_vectorC2ERS5_, symObjAddr: 0x34B0, symBinAddr: 0x1000104A4, symSize: 0x20 }
  - { offsetInCU: 0x19343, offset: 0x3E97E, size: 0x8, addend: 0x0, symName: __ZNKSt3__16vectorIP15JobWorkerThreadNS_9allocatorIS2_EEE17__annotate_deleteB7v160006Ev, symObjAddr: 0x34D0, symBinAddr: 0x1000104C4, symSize: 0xB8 }
  - { offsetInCU: 0x19368, offset: 0x3E9A3, size: 0x8, addend: 0x0, symName: __ZNSt3__16vectorIP15JobWorkerThreadNS_9allocatorIS2_EEE7__clearB7v160006Ev, symObjAddr: 0x3598, symBinAddr: 0x10001058C, symSize: 0x28 }
  - { offsetInCU: 0x1938D, offset: 0x3E9C8, size: 0x8, addend: 0x0, symName: __ZNSt3__116allocator_traitsINS_9allocatorIP15JobWorkerThreadEEE10deallocateB7v160006ERS4_PS3_m, symObjAddr: 0x35C0, symBinAddr: 0x1000105B4, symSize: 0x34 }
  - { offsetInCU: 0x193CF, offset: 0x3EA0A, size: 0x8, addend: 0x0, symName: __ZNSt3__16vectorIP15JobWorkerThreadNS_9allocatorIS2_EEE7__allocB7v160006Ev, symObjAddr: 0x35F4, symBinAddr: 0x1000105E8, symSize: 0x28 }
  - { offsetInCU: 0x193F4, offset: 0x3EA2F, size: 0x8, addend: 0x0, symName: __ZNKSt3__16vectorIP15JobWorkerThreadNS_9allocatorIS2_EEE8capacityB7v160006Ev, symObjAddr: 0x361C, symBinAddr: 0x100010610, symSize: 0x40 }
  - { offsetInCU: 0x19419, offset: 0x3EA54, size: 0x8, addend: 0x0, symName: __ZNKSt3__16vectorIP15JobWorkerThreadNS_9allocatorIS2_EEE31__annotate_contiguous_containerB7v160006EPKvS7_S7_S7_, symObjAddr: 0x365C, symBinAddr: 0x100010650, symSize: 0x20 }
  - { offsetInCU: 0x1946E, offset: 0x3EAA9, size: 0x8, addend: 0x0, symName: __ZNKSt3__16vectorIP15JobWorkerThreadNS_9allocatorIS2_EEE4dataB7v160006Ev, symObjAddr: 0x367C, symBinAddr: 0x100010670, symSize: 0x28 }
  - { offsetInCU: 0x19493, offset: 0x3EACE, size: 0x8, addend: 0x0, symName: __ZNSt3__16vectorIP15JobWorkerThreadNS_9allocatorIS2_EEE22__base_destruct_at_endB7v160006EPS2_, symObjAddr: 0x36B8, symBinAddr: 0x1000106AC, symSize: 0x8C }
  - { offsetInCU: 0x194D6, offset: 0x3EB11, size: 0x8, addend: 0x0, symName: __ZNSt3__116allocator_traitsINS_9allocatorIP15JobWorkerThreadEEE7destroyB7v160006IS3_vEEvRS4_PT_, symObjAddr: 0x3744, symBinAddr: 0x100010738, symSize: 0x2C }
  - { offsetInCU: 0x19513, offset: 0x3EB4E, size: 0x8, addend: 0x0, symName: __ZNSt3__19allocatorIP15JobWorkerThreadE7destroyB7v160006EPS2_, symObjAddr: 0x3770, symBinAddr: 0x100010764, symSize: 0x14 }
  - { offsetInCU: 0x19546, offset: 0x3EB81, size: 0x8, addend: 0x0, symName: __ZNSt3__19allocatorIP15JobWorkerThreadE10deallocateB7v160006EPS2_m, symObjAddr: 0x3784, symBinAddr: 0x100010778, symSize: 0x40 }
  - { offsetInCU: 0x19587, offset: 0x3EBC2, size: 0x8, addend: 0x0, symName: __ZNSt3__117__compressed_pairIPP15JobWorkerThreadNS_9allocatorIS2_EEE6secondB7v160006Ev, symObjAddr: 0x38EC, symBinAddr: 0x1000107B8, symSize: 0x24 }
  - { offsetInCU: 0x195AC, offset: 0x3EBE7, size: 0x8, addend: 0x0, symName: __ZNSt3__122__compressed_pair_elemINS_9allocatorIP15JobWorkerThreadEELi1ELb1EE5__getB7v160006Ev, symObjAddr: 0x3910, symBinAddr: 0x1000107DC, symSize: 0x14 }
  - { offsetInCU: 0x195D1, offset: 0x3EC0C, size: 0x8, addend: 0x0, symName: __ZNKSt3__16vectorIP15JobWorkerThreadNS_9allocatorIS2_EEE9__end_capB7v160006Ev, symObjAddr: 0x3924, symBinAddr: 0x1000107F0, symSize: 0x28 }
  - { offsetInCU: 0x195F6, offset: 0x3EC31, size: 0x8, addend: 0x0, symName: __ZNKSt3__117__compressed_pairIPP15JobWorkerThreadNS_9allocatorIS2_EEE5firstB7v160006Ev, symObjAddr: 0x394C, symBinAddr: 0x100010818, symSize: 0x24 }
  - { offsetInCU: 0x1961B, offset: 0x3EC56, size: 0x8, addend: 0x0, symName: __ZNKSt3__122__compressed_pair_elemIPP15JobWorkerThreadLi0ELb0EE5__getB7v160006Ev, symObjAddr: 0x3970, symBinAddr: 0x10001083C, symSize: 0x14 }
  - { offsetInCU: 0x19640, offset: 0x3EC7B, size: 0x8, addend: 0x0, symName: __ZNSt3__15dequeIP3JobNS_9allocatorIS2_EEED2B7v160006Ev, symObjAddr: 0x3984, symBinAddr: 0x100010850, symSize: 0x9C }
  - { offsetInCU: 0x19694, offset: 0x3ECCF, size: 0x8, addend: 0x0, symName: __ZNSt3__15dequeIP3JobNS_9allocatorIS2_EEE5clearEv, symObjAddr: 0x3A20, symBinAddr: 0x1000108EC, symSize: 0x180 }
  - { offsetInCU: 0x196EE, offset: 0x3ED29, size: 0x8, addend: 0x0, symName: __ZNSt3__114__split_bufferIPP3JobNS_9allocatorIS3_EEE5beginB7v160006Ev, symObjAddr: 0x3BA0, symBinAddr: 0x100010A6C, symSize: 0x18 }
  - { offsetInCU: 0x19713, offset: 0x3ED4E, size: 0x8, addend: 0x0, symName: __ZNSt3__114__split_bufferIPP3JobNS_9allocatorIS3_EEE3endB7v160006Ev, symObjAddr: 0x3BB8, symBinAddr: 0x100010A84, symSize: 0x18 }
  - { offsetInCU: 0x19738, offset: 0x3ED73, size: 0x8, addend: 0x0, symName: __ZNSt3__116allocator_traitsINS_9allocatorIP3JobEEE10deallocateB7v160006ERS4_PS3_m, symObjAddr: 0x3BD0, symBinAddr: 0x100010A9C, symSize: 0x34 }
  - { offsetInCU: 0x1977A, offset: 0x3EDB5, size: 0x8, addend: 0x0, symName: __ZNSt3__15dequeIP3JobNS_9allocatorIS2_EEE7__allocB7v160006Ev, symObjAddr: 0x3C04, symBinAddr: 0x100010AD0, symSize: 0x28 }
  - { offsetInCU: 0x1979F, offset: 0x3EDDA, size: 0x8, addend: 0x0, symName: __ZNSt3__114__split_bufferIPP3JobNS_9allocatorIS3_EEED1Ev, symObjAddr: 0x3C2C, symBinAddr: 0x100010AF8, symSize: 0x2C }
  - { offsetInCU: 0x197CA, offset: 0x3EE05, size: 0x8, addend: 0x0, symName: __ZNSt3__116allocator_traitsINS_9allocatorIP3JobEEE7destroyB7v160006IS3_vEEvRS4_PT_, symObjAddr: 0x3C58, symBinAddr: 0x100010B24, symSize: 0x2C }
  - { offsetInCU: 0x19807, offset: 0x3EE42, size: 0x8, addend: 0x0, symName: __ZNSt3__15dequeIP3JobNS_9allocatorIS2_EEE6__sizeB7v160006Ev, symObjAddr: 0x3C84, symBinAddr: 0x100010B50, symSize: 0x28 }
  - { offsetInCU: 0x1982C, offset: 0x3EE67, size: 0x8, addend: 0x0, symName: __ZNKSt3__114__split_bufferIPP3JobNS_9allocatorIS3_EEE4sizeB7v160006Ev, symObjAddr: 0x3CAC, symBinAddr: 0x100010B78, symSize: 0x28 }
  - { offsetInCU: 0x19851, offset: 0x3EE8C, size: 0x8, addend: 0x0, symName: __ZNSt3__114__split_bufferIPP3JobNS_9allocatorIS3_EEE5frontB7v160006Ev, symObjAddr: 0x3CD4, symBinAddr: 0x100010BA0, symSize: 0x18 }
  - { offsetInCU: 0x19876, offset: 0x3EEB1, size: 0x8, addend: 0x0, symName: __ZNSt3__114__split_bufferIPP3JobNS_9allocatorIS3_EEE9pop_frontB7v160006Ev, symObjAddr: 0x3CEC, symBinAddr: 0x100010BB8, symSize: 0x2C }
  - { offsetInCU: 0x1989B, offset: 0x3EED6, size: 0x8, addend: 0x0, symName: __ZNSt3__19allocatorIP3JobE7destroyB7v160006EPS2_, symObjAddr: 0x3D18, symBinAddr: 0x100010BE4, symSize: 0x14 }
  - { offsetInCU: 0x198CE, offset: 0x3EF09, size: 0x8, addend: 0x0, symName: __ZNSt3__117__compressed_pairImNS_9allocatorIP3JobEEE5firstB7v160006Ev, symObjAddr: 0x3D2C, symBinAddr: 0x100010BF8, symSize: 0x24 }
  - { offsetInCU: 0x198F3, offset: 0x3EF2E, size: 0x8, addend: 0x0, symName: __ZNSt3__122__compressed_pair_elemImLi0ELb0EE5__getB7v160006Ev, symObjAddr: 0x3D50, symBinAddr: 0x100010C1C, symSize: 0x14 }
  - { offsetInCU: 0x19918, offset: 0x3EF53, size: 0x8, addend: 0x0, symName: __ZNSt3__114__split_bufferIPP3JobNS_9allocatorIS3_EEE19__destruct_at_beginB7v160006EPS3_, symObjAddr: 0x3D64, symBinAddr: 0x100010C30, symSize: 0x2C }
  - { offsetInCU: 0x1994B, offset: 0x3EF86, size: 0x8, addend: 0x0, symName: __ZNSt3__114__split_bufferIPP3JobNS_9allocatorIS3_EEE19__destruct_at_beginEPS3_NS_17integral_constantIbLb1EEE, symObjAddr: 0x3D90, symBinAddr: 0x100010C5C, symSize: 0x20 }
  - { offsetInCU: 0x1998B, offset: 0x3EFC6, size: 0x8, addend: 0x0, symName: __ZNSt3__19allocatorIP3JobE10deallocateB7v160006EPS2_m, symObjAddr: 0x3DB0, symBinAddr: 0x100010C7C, symSize: 0x40 }
  - { offsetInCU: 0x199CC, offset: 0x3F007, size: 0x8, addend: 0x0, symName: __ZNSt3__117__compressed_pairImNS_9allocatorIP3JobEEE6secondB7v160006Ev, symObjAddr: 0x3DF0, symBinAddr: 0x100010CBC, symSize: 0x24 }
  - { offsetInCU: 0x199F1, offset: 0x3F02C, size: 0x8, addend: 0x0, symName: __ZNSt3__122__compressed_pair_elemINS_9allocatorIP3JobEELi1ELb1EE5__getB7v160006Ev, symObjAddr: 0x3E14, symBinAddr: 0x100010CE0, symSize: 0x14 }
  - { offsetInCU: 0x19A16, offset: 0x3F051, size: 0x8, addend: 0x0, symName: __ZNSt3__114__split_bufferIPP3JobNS_9allocatorIS3_EEED2Ev, symObjAddr: 0x3E28, symBinAddr: 0x100010CF4, symSize: 0x8C }
  - { offsetInCU: 0x19A41, offset: 0x3F07C, size: 0x8, addend: 0x0, symName: __ZNSt3__114__split_bufferIPP3JobNS_9allocatorIS3_EEE5clearB7v160006Ev, symObjAddr: 0x3EB4, symBinAddr: 0x100010D80, symSize: 0x28 }
  - { offsetInCU: 0x19A66, offset: 0x3F0A1, size: 0x8, addend: 0x0, symName: __ZNSt3__116allocator_traitsINS_9allocatorIPP3JobEEE10deallocateB7v160006ERS5_PS4_m, symObjAddr: 0x3EDC, symBinAddr: 0x100010DA8, symSize: 0x34 }
  - { offsetInCU: 0x19AA8, offset: 0x3F0E3, size: 0x8, addend: 0x0, symName: __ZNSt3__114__split_bufferIPP3JobNS_9allocatorIS3_EEE7__allocB7v160006Ev, symObjAddr: 0x3F10, symBinAddr: 0x100010DDC, symSize: 0x28 }
  - { offsetInCU: 0x19ACD, offset: 0x3F108, size: 0x8, addend: 0x0, symName: __ZNKSt3__114__split_bufferIPP3JobNS_9allocatorIS3_EEE8capacityB7v160006Ev, symObjAddr: 0x3F38, symBinAddr: 0x100010E04, symSize: 0x40 }
  - { offsetInCU: 0x19AF2, offset: 0x3F12D, size: 0x8, addend: 0x0, symName: __ZNSt3__114__split_bufferIPP3JobNS_9allocatorIS3_EEE17__destruct_at_endB7v160006EPS3_, symObjAddr: 0x3F78, symBinAddr: 0x100010E44, symSize: 0x2C }
  - { offsetInCU: 0x19B25, offset: 0x3F160, size: 0x8, addend: 0x0, symName: __ZNSt3__114__split_bufferIPP3JobNS_9allocatorIS3_EEE17__destruct_at_endB7v160006EPS3_NS_17integral_constantIbLb0EEE, symObjAddr: 0x3FA4, symBinAddr: 0x100010E70, symSize: 0x80 }
  - { offsetInCU: 0x19B65, offset: 0x3F1A0, size: 0x8, addend: 0x0, symName: __ZNSt3__116allocator_traitsINS_9allocatorIPP3JobEEE7destroyB7v160006IS4_vEEvRS5_PT_, symObjAddr: 0x4024, symBinAddr: 0x100010EF0, symSize: 0x2C }
  - { offsetInCU: 0x19BA2, offset: 0x3F1DD, size: 0x8, addend: 0x0, symName: __ZNSt3__19allocatorIPP3JobE7destroyB7v160006EPS3_, symObjAddr: 0x4064, symBinAddr: 0x100010F30, symSize: 0x14 }
  - { offsetInCU: 0x19BD5, offset: 0x3F210, size: 0x8, addend: 0x0, symName: __ZNSt3__19allocatorIPP3JobE10deallocateB7v160006EPS3_m, symObjAddr: 0x4078, symBinAddr: 0x100010F44, symSize: 0x40 }
  - { offsetInCU: 0x19C16, offset: 0x3F251, size: 0x8, addend: 0x0, symName: __ZNSt3__117__compressed_pairIPPP3JobNS_9allocatorIS3_EEE6secondB7v160006Ev, symObjAddr: 0x40B8, symBinAddr: 0x100010F84, symSize: 0x24 }
  - { offsetInCU: 0x19C3B, offset: 0x3F276, size: 0x8, addend: 0x0, symName: __ZNSt3__122__compressed_pair_elemINS_9allocatorIPP3JobEELi1ELb1EE5__getB7v160006Ev, symObjAddr: 0x40DC, symBinAddr: 0x100010FA8, symSize: 0x14 }
  - { offsetInCU: 0x19C60, offset: 0x3F29B, size: 0x8, addend: 0x0, symName: __ZNKSt3__114__split_bufferIPP3JobNS_9allocatorIS3_EEE9__end_capB7v160006Ev, symObjAddr: 0x40F0, symBinAddr: 0x100010FBC, symSize: 0x28 }
  - { offsetInCU: 0x19C85, offset: 0x3F2C0, size: 0x8, addend: 0x0, symName: __ZNKSt3__117__compressed_pairIPPP3JobNS_9allocatorIS3_EEE5firstB7v160006Ev, symObjAddr: 0x4118, symBinAddr: 0x100010FE4, symSize: 0x24 }
  - { offsetInCU: 0x19CAA, offset: 0x3F2E5, size: 0x8, addend: 0x0, symName: __ZNKSt3__122__compressed_pair_elemIPPP3JobLi0ELb0EE5__getB7v160006Ev, symObjAddr: 0x413C, symBinAddr: 0x100011008, symSize: 0x14 }
  - { offsetInCU: 0x19CCF, offset: 0x3F30A, size: 0x8, addend: 0x0, symName: __ZNSt3__16vectorI15JobHistoryEntryNS_9allocatorIS1_EEED2B7v160006Ev, symObjAddr: 0x4150, symBinAddr: 0x10001101C, symSize: 0x44 }
  - { offsetInCU: 0x19CF7, offset: 0x3F332, size: 0x8, addend: 0x0, symName: __ZNSt3__16vectorI15JobHistoryEntryNS_9allocatorIS1_EEE16__destroy_vectorC1ERS4_, symObjAddr: 0x4194, symBinAddr: 0x100011060, symSize: 0x34 }
  - { offsetInCU: 0x19D2E, offset: 0x3F369, size: 0x8, addend: 0x0, symName: __ZNSt3__16vectorI15JobHistoryEntryNS_9allocatorIS1_EEE16__destroy_vectorclB7v160006Ev, symObjAddr: 0x41C8, symBinAddr: 0x100011094, symSize: 0x9C }
  - { offsetInCU: 0x19D53, offset: 0x3F38E, size: 0x8, addend: 0x0, symName: __ZNSt3__16vectorI15JobHistoryEntryNS_9allocatorIS1_EEE16__destroy_vectorC2ERS4_, symObjAddr: 0x4264, symBinAddr: 0x100011130, symSize: 0x20 }
  - { offsetInCU: 0x19D8B, offset: 0x3F3C6, size: 0x8, addend: 0x0, symName: __ZNKSt3__16vectorI15JobHistoryEntryNS_9allocatorIS1_EEE17__annotate_deleteB7v160006Ev, symObjAddr: 0x4284, symBinAddr: 0x100011150, symSize: 0xB8 }
  - { offsetInCU: 0x19DB0, offset: 0x3F3EB, size: 0x8, addend: 0x0, symName: __ZNSt3__16vectorI15JobHistoryEntryNS_9allocatorIS1_EEE7__clearB7v160006Ev, symObjAddr: 0x434C, symBinAddr: 0x100011218, symSize: 0x28 }
  - { offsetInCU: 0x19DD5, offset: 0x3F410, size: 0x8, addend: 0x0, symName: __ZNSt3__116allocator_traitsINS_9allocatorI15JobHistoryEntryEEE10deallocateB7v160006ERS3_PS2_m, symObjAddr: 0x4374, symBinAddr: 0x100011240, symSize: 0x34 }
  - { offsetInCU: 0x19E17, offset: 0x3F452, size: 0x8, addend: 0x0, symName: __ZNSt3__16vectorI15JobHistoryEntryNS_9allocatorIS1_EEE7__allocB7v160006Ev, symObjAddr: 0x43A8, symBinAddr: 0x100011274, symSize: 0x28 }
  - { offsetInCU: 0x19E3C, offset: 0x3F477, size: 0x8, addend: 0x0, symName: __ZNKSt3__16vectorI15JobHistoryEntryNS_9allocatorIS1_EEE8capacityB7v160006Ev, symObjAddr: 0x43D0, symBinAddr: 0x10001129C, symSize: 0x40 }
  - { offsetInCU: 0x19E61, offset: 0x3F49C, size: 0x8, addend: 0x0, symName: __ZNKSt3__16vectorI15JobHistoryEntryNS_9allocatorIS1_EEE31__annotate_contiguous_containerB7v160006EPKvS6_S6_S6_, symObjAddr: 0x4410, symBinAddr: 0x1000112DC, symSize: 0x20 }
  - { offsetInCU: 0x19EB6, offset: 0x3F4F1, size: 0x8, addend: 0x0, symName: __ZNKSt3__16vectorI15JobHistoryEntryNS_9allocatorIS1_EEE4dataB7v160006Ev, symObjAddr: 0x4430, symBinAddr: 0x1000112FC, symSize: 0x28 }
  - { offsetInCU: 0x19EDB, offset: 0x3F516, size: 0x8, addend: 0x0, symName: __ZNSt3__16vectorI15JobHistoryEntryNS_9allocatorIS1_EEE22__base_destruct_at_endB7v160006EPS1_, symObjAddr: 0x446C, symBinAddr: 0x100011338, symSize: 0x8C }
  - { offsetInCU: 0x19F1E, offset: 0x3F559, size: 0x8, addend: 0x0, symName: __ZNSt3__116allocator_traitsINS_9allocatorI15JobHistoryEntryEEE7destroyB7v160006IS2_vEEvRS3_PT_, symObjAddr: 0x44F8, symBinAddr: 0x1000113C4, symSize: 0x2C }
  - { offsetInCU: 0x19F5B, offset: 0x3F596, size: 0x8, addend: 0x0, symName: __ZNSt3__19allocatorI15JobHistoryEntryE7destroyB7v160006EPS1_, symObjAddr: 0x4524, symBinAddr: 0x1000113F0, symSize: 0x14 }
  - { offsetInCU: 0x19F8E, offset: 0x3F5C9, size: 0x8, addend: 0x0, symName: __ZNSt3__19allocatorI15JobHistoryEntryE10deallocateB7v160006EPS1_m, symObjAddr: 0x4538, symBinAddr: 0x100011404, symSize: 0x40 }
  - { offsetInCU: 0x19FCF, offset: 0x3F60A, size: 0x8, addend: 0x0, symName: __ZNSt3__117__compressed_pairIP15JobHistoryEntryNS_9allocatorIS1_EEE6secondB7v160006Ev, symObjAddr: 0x4578, symBinAddr: 0x100011444, symSize: 0x24 }
  - { offsetInCU: 0x19FF4, offset: 0x3F62F, size: 0x8, addend: 0x0, symName: __ZNSt3__122__compressed_pair_elemINS_9allocatorI15JobHistoryEntryEELi1ELb1EE5__getB7v160006Ev, symObjAddr: 0x459C, symBinAddr: 0x100011468, symSize: 0x14 }
  - { offsetInCU: 0x1A019, offset: 0x3F654, size: 0x8, addend: 0x0, symName: __ZNKSt3__16vectorI15JobHistoryEntryNS_9allocatorIS1_EEE9__end_capB7v160006Ev, symObjAddr: 0x45B0, symBinAddr: 0x10001147C, symSize: 0x28 }
  - { offsetInCU: 0x1A03E, offset: 0x3F679, size: 0x8, addend: 0x0, symName: __ZNKSt3__117__compressed_pairIP15JobHistoryEntryNS_9allocatorIS1_EEE5firstB7v160006Ev, symObjAddr: 0x45D8, symBinAddr: 0x1000114A4, symSize: 0x24 }
  - { offsetInCU: 0x1A063, offset: 0x3F69E, size: 0x8, addend: 0x0, symName: __ZNKSt3__122__compressed_pair_elemIP15JobHistoryEntryLi0ELb0EE5__getB7v160006Ev, symObjAddr: 0x45FC, symBinAddr: 0x1000114C8, symSize: 0x14 }
  - { offsetInCU: 0x1A088, offset: 0x3F6C3, size: 0x8, addend: 0x0, symName: __ZNKSt3__16vectorI15JobHistoryEntryNS_9allocatorIS1_EEE8max_sizeEv, symObjAddr: 0x4610, symBinAddr: 0x1000114DC, symSize: 0x60 }
  - { offsetInCU: 0x1A0AF, offset: 0x3F6EA, size: 0x8, addend: 0x0, symName: __ZNKSt3__16vectorI15JobHistoryEntryNS_9allocatorIS1_EEE20__throw_length_errorB7v160006Ev, symObjAddr: 0x4670, symBinAddr: 0x10001153C, symSize: 0x1C }
  - { offsetInCU: 0x1A0D4, offset: 0x3F70F, size: 0x8, addend: 0x0, symName: __ZNSt3__114__split_bufferI15JobHistoryEntryRNS_9allocatorIS1_EEEC1EmmS4_, symObjAddr: 0x468C, symBinAddr: 0x100011558, symSize: 0x44 }
  - { offsetInCU: 0x1A129, offset: 0x3F764, size: 0x8, addend: 0x0, symName: __ZNSt3__114__split_bufferI15JobHistoryEntryRNS_9allocatorIS1_EEED1Ev, symObjAddr: 0x47E8, symBinAddr: 0x1000116B4, symSize: 0x2C }
  - { offsetInCU: 0x1A15E, offset: 0x3F799, size: 0x8, addend: 0x0, symName: __ZNSt3__116allocator_traitsINS_9allocatorI15JobHistoryEntryEEE8max_sizeB7v160006IS3_vEEmRKS3_, symObjAddr: 0x4840, symBinAddr: 0x10001170C, symSize: 0x24 }
  - { offsetInCU: 0x1A18C, offset: 0x3F7C7, size: 0x8, addend: 0x0, symName: __ZNKSt3__16vectorI15JobHistoryEntryNS_9allocatorIS1_EEE7__allocB7v160006Ev, symObjAddr: 0x4864, symBinAddr: 0x100011730, symSize: 0x28 }
  - { offsetInCU: 0x1A1B1, offset: 0x3F7EC, size: 0x8, addend: 0x0, symName: __ZNSt3__114numeric_limitsIlE3maxB7v160006Ev, symObjAddr: 0x488C, symBinAddr: 0x100011758, symSize: 0x14 }
  - { offsetInCU: 0x1A1CF, offset: 0x3F80A, size: 0x8, addend: 0x0, symName: __ZNKSt3__16__lessImmEclB7v160006ERKmS3_, symObjAddr: 0x48F4, symBinAddr: 0x1000117C0, symSize: 0x34 }
  - { offsetInCU: 0x1A210, offset: 0x3F84B, size: 0x8, addend: 0x0, symName: __ZNKSt3__19allocatorI15JobHistoryEntryE8max_sizeB7v160006Ev, symObjAddr: 0x4928, symBinAddr: 0x1000117F4, symSize: 0x14 }
  - { offsetInCU: 0x1A235, offset: 0x3F870, size: 0x8, addend: 0x0, symName: __ZNKSt3__117__compressed_pairIP15JobHistoryEntryNS_9allocatorIS1_EEE6secondB7v160006Ev, symObjAddr: 0x493C, symBinAddr: 0x100011808, symSize: 0x24 }
  - { offsetInCU: 0x1A25A, offset: 0x3F895, size: 0x8, addend: 0x0, symName: __ZNKSt3__122__compressed_pair_elemINS_9allocatorI15JobHistoryEntryEELi1ELb1EE5__getB7v160006Ev, symObjAddr: 0x4960, symBinAddr: 0x10001182C, symSize: 0x14 }
  - { offsetInCU: 0x1A27F, offset: 0x3F8BA, size: 0x8, addend: 0x0, symName: __ZNSt3__123__libcpp_numeric_limitsIlLb1EE3maxB7v160006Ev, symObjAddr: 0x4974, symBinAddr: 0x100011840, symSize: 0x8 }
  - { offsetInCU: 0x1A293, offset: 0x3F8CE, size: 0x8, addend: 0x0, symName: __ZNSt12length_errorC1B7v160006EPKc, symObjAddr: 0x49E0, symBinAddr: 0x1000118AC, symSize: 0x34 }
  - { offsetInCU: 0x1A2C9, offset: 0x3F904, size: 0x8, addend: 0x0, symName: __ZNSt12length_errorC2B7v160006EPKc, symObjAddr: 0x4A14, symBinAddr: 0x1000118E0, symSize: 0x4C }
  - { offsetInCU: 0x1A2FF, offset: 0x3F93A, size: 0x8, addend: 0x0, symName: __ZNSt3__114__split_bufferI15JobHistoryEntryRNS_9allocatorIS1_EEEC2EmmS4_, symObjAddr: 0x4A60, symBinAddr: 0x10001192C, symSize: 0xD4 }
  - { offsetInCU: 0x1A371, offset: 0x3F9AC, size: 0x8, addend: 0x0, symName: __ZNSt3__117__compressed_pairIP15JobHistoryEntryRNS_9allocatorIS1_EEEC1B7v160006IDnS5_EEOT_OT0_, symObjAddr: 0x4B34, symBinAddr: 0x100011A00, symSize: 0x3C }
  - { offsetInCU: 0x1A3C7, offset: 0x3FA02, size: 0x8, addend: 0x0, symName: __ZNSt3__114__split_bufferI15JobHistoryEntryRNS_9allocatorIS1_EEE7__allocB7v160006Ev, symObjAddr: 0x4BB0, symBinAddr: 0x100011A7C, symSize: 0x28 }
  - { offsetInCU: 0x1A3EC, offset: 0x3FA27, size: 0x8, addend: 0x0, symName: __ZNSt3__114__split_bufferI15JobHistoryEntryRNS_9allocatorIS1_EEE9__end_capB7v160006Ev, symObjAddr: 0x4BD8, symBinAddr: 0x100011AA4, symSize: 0x28 }
  - { offsetInCU: 0x1A411, offset: 0x3FA4C, size: 0x8, addend: 0x0, symName: __ZNSt3__117__compressed_pairIP15JobHistoryEntryRNS_9allocatorIS1_EEEC2B7v160006IDnS5_EEOT_OT0_, symObjAddr: 0x4C00, symBinAddr: 0x100011ACC, symSize: 0x48 }
  - { offsetInCU: 0x1A467, offset: 0x3FAA2, size: 0x8, addend: 0x0, symName: __ZNSt3__122__compressed_pair_elemIRNS_9allocatorI15JobHistoryEntryEELi1ELb0EEC2B7v160006IS4_vEEOT_, symObjAddr: 0x4C48, symBinAddr: 0x100011B14, symSize: 0x20 }
  - { offsetInCU: 0x1A4A8, offset: 0x3FAE3, size: 0x8, addend: 0x0, symName: __ZNSt3__19allocatorI15JobHistoryEntryE8allocateB7v160006Em, symObjAddr: 0x4C68, symBinAddr: 0x100011B34, symSize: 0x58 }
  - { offsetInCU: 0x1A4DB, offset: 0x3FB16, size: 0x8, addend: 0x0, symName: __ZNSt3__117__compressed_pairIP15JobHistoryEntryRNS_9allocatorIS1_EEE6secondB7v160006Ev, symObjAddr: 0x4DA4, symBinAddr: 0x100011C70, symSize: 0x28 }
  - { offsetInCU: 0x1A500, offset: 0x3FB3B, size: 0x8, addend: 0x0, symName: __ZNSt3__122__compressed_pair_elemIRNS_9allocatorI15JobHistoryEntryEELi1ELb0EE5__getB7v160006Ev, symObjAddr: 0x4DCC, symBinAddr: 0x100011C98, symSize: 0x18 }
  - { offsetInCU: 0x1A525, offset: 0x3FB60, size: 0x8, addend: 0x0, symName: __ZNSt3__117__compressed_pairIP15JobHistoryEntryRNS_9allocatorIS1_EEE5firstB7v160006Ev, symObjAddr: 0x4DE4, symBinAddr: 0x100011CB0, symSize: 0x24 }
  - { offsetInCU: 0x1A54A, offset: 0x3FB85, size: 0x8, addend: 0x0, symName: __ZNSt3__122__compressed_pair_elemIP15JobHistoryEntryLi0ELb0EE5__getB7v160006Ev, symObjAddr: 0x4E08, symBinAddr: 0x100011CD4, symSize: 0x14 }
  - { offsetInCU: 0x1A56F, offset: 0x3FBAA, size: 0x8, addend: 0x0, symName: __ZNSt3__116reverse_iteratorIP15JobHistoryEntryEC1B7v160006ES2_, symObjAddr: 0x4E94, symBinAddr: 0x100011D60, symSize: 0x34 }
  - { offsetInCU: 0x1A5A5, offset: 0x3FBE0, size: 0x8, addend: 0x0, symName: __ZNKSt3__116reverse_iteratorIP15JobHistoryEntryE4baseB7v160006Ev, symObjAddr: 0x4EC8, symBinAddr: 0x100011D94, symSize: 0x18 }
  - { offsetInCU: 0x1A5CA, offset: 0x3FC05, size: 0x8, addend: 0x0, symName: __ZNSt3__16vectorI15JobHistoryEntryNS_9allocatorIS1_EEE9__end_capB7v160006Ev, symObjAddr: 0x4F1C, symBinAddr: 0x100011DE8, symSize: 0x28 }
  - { offsetInCU: 0x1A5EF, offset: 0x3FC2A, size: 0x8, addend: 0x0, symName: __ZNKSt3__16vectorI15JobHistoryEntryNS_9allocatorIS1_EEE14__annotate_newB7v160006Em, symObjAddr: 0x4F44, symBinAddr: 0x100011E10, symSize: 0xAC }
  - { offsetInCU: 0x1A646, offset: 0x3FC81, size: 0x8, addend: 0x0, symName: __ZNKSt3__111__move_loopINS_17_ClassicAlgPolicyEEclB7v160006INS_16reverse_iteratorIP15JobHistoryEntryEES7_S7_EENS_4pairIT_T1_EES9_T0_SA_, symObjAddr: 0x52F0, symBinAddr: 0x1000121BC, symSize: 0xA0 }
  - { offsetInCU: 0x1A6B0, offset: 0x3FCEB, size: 0x8, addend: 0x0, symName: __ZNSt3__18_IterOpsINS_17_ClassicAlgPolicyEE11__iter_moveB7v160006IRNS_16reverse_iteratorIP15JobHistoryEntryEEEENS_9enable_ifIXsr12is_referenceIDTdeclsr3stdE7declvalIRT_EEEEE5valueEDTclsr3stdE4movedeclsr3stdE7declvalISB_EEEEE4typeEOSA_, symObjAddr: 0x5524, symBinAddr: 0x1000123F0, symSize: 0x28 }
  - { offsetInCU: 0x1A6DC, offset: 0x3FD17, size: 0x8, addend: 0x0, symName: __ZNKSt3__116reverse_iteratorIP15JobHistoryEntryEdeB7v160006Ev, symObjAddr: 0x554C, symBinAddr: 0x100012418, symSize: 0x28 }
  - { offsetInCU: 0x1A70F, offset: 0x3FD4A, size: 0x8, addend: 0x0, symName: __ZNSt3__116reverse_iteratorIP15JobHistoryEntryEppB7v160006Ev, symObjAddr: 0x5574, symBinAddr: 0x100012440, symSize: 0x20 }
  - { offsetInCU: 0x1A734, offset: 0x3FD6F, size: 0x8, addend: 0x0, symName: __ZNSt3__18_IterOpsINS_17_ClassicAlgPolicyEE25__validate_iter_referenceB7v160006IRNS_16reverse_iteratorIP15JobHistoryEntryEEEEvv, symObjAddr: 0x5594, symBinAddr: 0x100012460, symSize: 0x4 }
  - { offsetInCU: 0x1A752, offset: 0x3FD8D, size: 0x8, addend: 0x0, symName: __ZNSt3__118__unwrap_iter_implINS_16reverse_iteratorIP15JobHistoryEntryEELb0EE8__unwrapB7v160006ES4_, symObjAddr: 0x5598, symBinAddr: 0x100012464, symSize: 0x24 }
  - { offsetInCU: 0x1A77A, offset: 0x3FDB5, size: 0x8, addend: 0x0, symName: __ZNSt3__14pairINS_16reverse_iteratorIP15JobHistoryEntryEES4_EC1B7v160006IS4_S4_LPv0EEEOT_OT0_, symObjAddr: 0x55BC, symBinAddr: 0x100012488, symSize: 0x3C }
  - { offsetInCU: 0x1A7D7, offset: 0x3FE12, size: 0x8, addend: 0x0, symName: __ZNSt3__14pairINS_16reverse_iteratorIP15JobHistoryEntryEES4_EC2B7v160006IS4_S4_LPv0EEEOT_OT0_, symObjAddr: 0x55F8, symBinAddr: 0x1000124C4, symSize: 0x34 }
  - { offsetInCU: 0x1A835, offset: 0x3FE70, size: 0x8, addend: 0x0, symName: __ZNSt3__118__unwrap_iter_implINS_16reverse_iteratorIP15JobHistoryEntryEELb0EE8__rewrapB7v160006ES4_S4_, symObjAddr: 0x562C, symBinAddr: 0x1000124F8, symSize: 0x2C }
  - { offsetInCU: 0x1A863, offset: 0x3FE9E, size: 0x8, addend: 0x0, symName: __ZNSt3__116reverse_iteratorIP15JobHistoryEntryEC2B7v160006ES2_, symObjAddr: 0x5658, symBinAddr: 0x100012524, symSize: 0x28 }
  - { offsetInCU: 0x1A89A, offset: 0x3FED5, size: 0x8, addend: 0x0, symName: __ZNSt3__117__compressed_pairIP15JobHistoryEntryNS_9allocatorIS1_EEE5firstB7v160006Ev, symObjAddr: 0x5680, symBinAddr: 0x10001254C, symSize: 0x24 }
  - { offsetInCU: 0x1A8BF, offset: 0x3FEFA, size: 0x8, addend: 0x0, symName: __ZNSt3__114__split_bufferI15JobHistoryEntryRNS_9allocatorIS1_EEED2Ev, symObjAddr: 0x56A4, symBinAddr: 0x100012570, symSize: 0x8C }
  - { offsetInCU: 0x1A8EA, offset: 0x3FF25, size: 0x8, addend: 0x0, symName: __ZNSt3__114__split_bufferI15JobHistoryEntryRNS_9allocatorIS1_EEE5clearB7v160006Ev, symObjAddr: 0x5730, symBinAddr: 0x1000125FC, symSize: 0x28 }
  - { offsetInCU: 0x1A90F, offset: 0x3FF4A, size: 0x8, addend: 0x0, symName: __ZNKSt3__114__split_bufferI15JobHistoryEntryRNS_9allocatorIS1_EEE8capacityB7v160006Ev, symObjAddr: 0x5758, symBinAddr: 0x100012624, symSize: 0x40 }
  - { offsetInCU: 0x1A934, offset: 0x3FF6F, size: 0x8, addend: 0x0, symName: __ZNSt3__114__split_bufferI15JobHistoryEntryRNS_9allocatorIS1_EEE17__destruct_at_endB7v160006EPS1_, symObjAddr: 0x5798, symBinAddr: 0x100012664, symSize: 0x2C }
  - { offsetInCU: 0x1A967, offset: 0x3FFA2, size: 0x8, addend: 0x0, symName: __ZNSt3__114__split_bufferI15JobHistoryEntryRNS_9allocatorIS1_EEE17__destruct_at_endB7v160006EPS1_NS_17integral_constantIbLb0EEE, symObjAddr: 0x57C4, symBinAddr: 0x100012690, symSize: 0x80 }
  - { offsetInCU: 0x1A9A7, offset: 0x3FFE2, size: 0x8, addend: 0x0, symName: __ZNKSt3__114__split_bufferI15JobHistoryEntryRNS_9allocatorIS1_EEE9__end_capB7v160006Ev, symObjAddr: 0x5844, symBinAddr: 0x100012710, symSize: 0x28 }
  - { offsetInCU: 0x1A9CC, offset: 0x40007, size: 0x8, addend: 0x0, symName: __ZNKSt3__117__compressed_pairIP15JobHistoryEntryRNS_9allocatorIS1_EEE5firstB7v160006Ev, symObjAddr: 0x586C, symBinAddr: 0x100012738, symSize: 0x24 }
  - { offsetInCU: 0x1A9F1, offset: 0x4002C, size: 0x8, addend: 0x0, symName: __ZNSt3__16vectorIP15JobWorkerThreadNS_9allocatorIS2_EEE17__destruct_at_endB7v160006EPS2_, symObjAddr: 0x5890, symBinAddr: 0x10001275C, symSize: 0x60 }
  - { offsetInCU: 0x1AA34, offset: 0x4006F, size: 0x8, addend: 0x0, symName: __ZNSt3__16vectorIP15JobWorkerThreadNS_9allocatorIS2_EEE27__invalidate_iterators_pastB7v160006EPS2_, symObjAddr: 0x58F0, symBinAddr: 0x1000127BC, symSize: 0x14 }
  - { offsetInCU: 0x1AA6A, offset: 0x400A5, size: 0x8, addend: 0x0, symName: __ZNKSt3__16vectorIP15JobWorkerThreadNS_9allocatorIS2_EEE17__annotate_shrinkB7v160006Em, symObjAddr: 0x5904, symBinAddr: 0x1000127D0, symSize: 0xB4 }
  - { offsetInCU: 0x1AA9E, offset: 0x400D9, size: 0x8, addend: 0x0, symName: __ZNSt3__16vectorIP15JobWorkerThreadNS_9allocatorIS2_EEE9__end_capB7v160006Ev, symObjAddr: 0x59B8, symBinAddr: 0x100012884, symSize: 0x28 }
  - { offsetInCU: 0x1AAC3, offset: 0x400FE, size: 0x8, addend: 0x0, symName: __ZNSt3__16vectorIP15JobWorkerThreadNS_9allocatorIS2_EEE22__construct_one_at_endB7v160006IJRKS2_EEEvDpOT_, symObjAddr: 0x59E0, symBinAddr: 0x1000128AC, symSize: 0x90 }
  - { offsetInCU: 0x1AB11, offset: 0x4014C, size: 0x8, addend: 0x0, symName: __ZNSt3__16vectorIP15JobWorkerThreadNS_9allocatorIS2_EEE21__push_back_slow_pathIRKS2_EEvOT_, symObjAddr: 0x5A70, symBinAddr: 0x10001293C, symSize: 0xD8 }
  - { offsetInCU: 0x1AB6E, offset: 0x401A9, size: 0x8, addend: 0x0, symName: __ZNSt3__117__compressed_pairIPP15JobWorkerThreadNS_9allocatorIS2_EEE5firstB7v160006Ev, symObjAddr: 0x5B48, symBinAddr: 0x100012A14, symSize: 0x24 }
  - { offsetInCU: 0x1AB93, offset: 0x401CE, size: 0x8, addend: 0x0, symName: __ZNSt3__122__compressed_pair_elemIPP15JobWorkerThreadLi0ELb0EE5__getB7v160006Ev, symObjAddr: 0x5B6C, symBinAddr: 0x100012A38, symSize: 0x14 }
  - { offsetInCU: 0x1ABD1, offset: 0x4020C, size: 0x8, addend: 0x0, symName: __ZNSt3__16vectorIP15JobWorkerThreadNS_9allocatorIS2_EEE21_ConstructTransactionC1B7v160006ERS5_m, symObjAddr: 0x5B80, symBinAddr: 0x100012A4C, symSize: 0x3C }
  - { offsetInCU: 0x1AC17, offset: 0x40252, size: 0x8, addend: 0x0, symName: __ZNSt3__116allocator_traitsINS_9allocatorIP15JobWorkerThreadEEE9constructB7v160006IS3_JRKS3_EvEEvRS4_PT_DpOT0_, symObjAddr: 0x5BBC, symBinAddr: 0x100012A88, symSize: 0x34 }
  - { offsetInCU: 0x1AC6E, offset: 0x402A9, size: 0x8, addend: 0x0, symName: __ZNSt3__16vectorIP15JobWorkerThreadNS_9allocatorIS2_EEE21_ConstructTransactionD1B7v160006Ev, symObjAddr: 0x5BF0, symBinAddr: 0x100012ABC, symSize: 0x2C }
  - { offsetInCU: 0x1AC96, offset: 0x402D1, size: 0x8, addend: 0x0, symName: __ZNSt3__16vectorIP15JobWorkerThreadNS_9allocatorIS2_EEE21_ConstructTransactionC2B7v160006ERS5_m, symObjAddr: 0x5C1C, symBinAddr: 0x100012AE8, symSize: 0x44 }
  - { offsetInCU: 0x1ACDD, offset: 0x40318, size: 0x8, addend: 0x0, symName: __ZNSt3__19allocatorIP15JobWorkerThreadE9constructB7v160006IS2_JRKS2_EEEvPT_DpOT0_, symObjAddr: 0x5C60, symBinAddr: 0x100012B2C, symSize: 0x28 }
  - { offsetInCU: 0x1AD32, offset: 0x4036D, size: 0x8, addend: 0x0, symName: __ZNSt3__16vectorIP15JobWorkerThreadNS_9allocatorIS2_EEE21_ConstructTransactionD2B7v160006Ev, symObjAddr: 0x5C88, symBinAddr: 0x100012B54, symSize: 0x20 }
  - { offsetInCU: 0x1AD5B, offset: 0x40396, size: 0x8, addend: 0x0, symName: __ZNKSt3__16vectorIP15JobWorkerThreadNS_9allocatorIS2_EEE11__recommendB7v160006Em, symObjAddr: 0x5CA8, symBinAddr: 0x100012B74, symSize: 0xB4 }
  - { offsetInCU: 0x1ADAF, offset: 0x403EA, size: 0x8, addend: 0x0, symName: __ZNSt3__114__split_bufferIP15JobWorkerThreadRNS_9allocatorIS2_EEEC1EmmS5_, symObjAddr: 0x5D5C, symBinAddr: 0x100012C28, symSize: 0x44 }
  - { offsetInCU: 0x1AE04, offset: 0x4043F, size: 0x8, addend: 0x0, symName: __ZNSt3__114__split_bufferIP15JobWorkerThreadRNS_9allocatorIS2_EEED1Ev, symObjAddr: 0x5EB8, symBinAddr: 0x100012D84, symSize: 0x2C }
  - { offsetInCU: 0x1AE2F, offset: 0x4046A, size: 0x8, addend: 0x0, symName: __ZNKSt3__16vectorIP15JobWorkerThreadNS_9allocatorIS2_EEE8max_sizeEv, symObjAddr: 0x5EE4, symBinAddr: 0x100012DB0, symSize: 0x60 }
  - { offsetInCU: 0x1AE56, offset: 0x40491, size: 0x8, addend: 0x0, symName: __ZNKSt3__16vectorIP15JobWorkerThreadNS_9allocatorIS2_EEE20__throw_length_errorB7v160006Ev, symObjAddr: 0x5F44, symBinAddr: 0x100012E10, symSize: 0x1C }
  - { offsetInCU: 0x1AE85, offset: 0x404C0, size: 0x8, addend: 0x0, symName: __ZNSt3__116allocator_traitsINS_9allocatorIP15JobWorkerThreadEEE8max_sizeB7v160006IS4_vEEmRKS4_, symObjAddr: 0x5F8C, symBinAddr: 0x100012E58, symSize: 0x24 }
  - { offsetInCU: 0x1AEB3, offset: 0x404EE, size: 0x8, addend: 0x0, symName: __ZNKSt3__16vectorIP15JobWorkerThreadNS_9allocatorIS2_EEE7__allocB7v160006Ev, symObjAddr: 0x5FB0, symBinAddr: 0x100012E7C, symSize: 0x28 }
  - { offsetInCU: 0x1AED8, offset: 0x40513, size: 0x8, addend: 0x0, symName: __ZNKSt3__19allocatorIP15JobWorkerThreadE8max_sizeB7v160006Ev, symObjAddr: 0x5FD8, symBinAddr: 0x100012EA4, symSize: 0x14 }
  - { offsetInCU: 0x1AEFD, offset: 0x40538, size: 0x8, addend: 0x0, symName: __ZNKSt3__117__compressed_pairIPP15JobWorkerThreadNS_9allocatorIS2_EEE6secondB7v160006Ev, symObjAddr: 0x5FEC, symBinAddr: 0x100012EB8, symSize: 0x24 }
  - { offsetInCU: 0x1AF22, offset: 0x4055D, size: 0x8, addend: 0x0, symName: __ZNKSt3__122__compressed_pair_elemINS_9allocatorIP15JobWorkerThreadEELi1ELb1EE5__getB7v160006Ev, symObjAddr: 0x6010, symBinAddr: 0x100012EDC, symSize: 0x14 }
  - { offsetInCU: 0x1AF47, offset: 0x40582, size: 0x8, addend: 0x0, symName: __ZNSt3__114__split_bufferIP15JobWorkerThreadRNS_9allocatorIS2_EEEC2EmmS5_, symObjAddr: 0x6078, symBinAddr: 0x100012F44, symSize: 0xD4 }
  - { offsetInCU: 0x1AFB9, offset: 0x405F4, size: 0x8, addend: 0x0, symName: __ZNSt3__117__compressed_pairIPP15JobWorkerThreadRNS_9allocatorIS2_EEEC1B7v160006IDnS6_EEOT_OT0_, symObjAddr: 0x614C, symBinAddr: 0x100013018, symSize: 0x3C }
  - { offsetInCU: 0x1B00F, offset: 0x4064A, size: 0x8, addend: 0x0, symName: __ZNSt3__114__split_bufferIP15JobWorkerThreadRNS_9allocatorIS2_EEE7__allocB7v160006Ev, symObjAddr: 0x61C8, symBinAddr: 0x100013094, symSize: 0x28 }
  - { offsetInCU: 0x1B034, offset: 0x4066F, size: 0x8, addend: 0x0, symName: __ZNSt3__114__split_bufferIP15JobWorkerThreadRNS_9allocatorIS2_EEE9__end_capB7v160006Ev, symObjAddr: 0x61F0, symBinAddr: 0x1000130BC, symSize: 0x28 }
  - { offsetInCU: 0x1B059, offset: 0x40694, size: 0x8, addend: 0x0, symName: __ZNSt3__117__compressed_pairIPP15JobWorkerThreadRNS_9allocatorIS2_EEEC2B7v160006IDnS6_EEOT_OT0_, symObjAddr: 0x6218, symBinAddr: 0x1000130E4, symSize: 0x48 }
  - { offsetInCU: 0x1B0AF, offset: 0x406EA, size: 0x8, addend: 0x0, symName: __ZNSt3__122__compressed_pair_elemIRNS_9allocatorIP15JobWorkerThreadEELi1ELb0EEC2B7v160006IS5_vEEOT_, symObjAddr: 0x6260, symBinAddr: 0x10001312C, symSize: 0x20 }
  - { offsetInCU: 0x1B0F0, offset: 0x4072B, size: 0x8, addend: 0x0, symName: __ZNSt3__19allocatorIP15JobWorkerThreadE8allocateB7v160006Em, symObjAddr: 0x6280, symBinAddr: 0x10001314C, symSize: 0x58 }
  - { offsetInCU: 0x1B123, offset: 0x4075E, size: 0x8, addend: 0x0, symName: __ZNSt3__117__compressed_pairIPP15JobWorkerThreadRNS_9allocatorIS2_EEE6secondB7v160006Ev, symObjAddr: 0x62D8, symBinAddr: 0x1000131A4, symSize: 0x28 }
  - { offsetInCU: 0x1B148, offset: 0x40783, size: 0x8, addend: 0x0, symName: __ZNSt3__122__compressed_pair_elemIRNS_9allocatorIP15JobWorkerThreadEELi1ELb0EE5__getB7v160006Ev, symObjAddr: 0x6300, symBinAddr: 0x1000131CC, symSize: 0x18 }
  - { offsetInCU: 0x1B16D, offset: 0x407A8, size: 0x8, addend: 0x0, symName: __ZNSt3__117__compressed_pairIPP15JobWorkerThreadRNS_9allocatorIS2_EEE5firstB7v160006Ev, symObjAddr: 0x6318, symBinAddr: 0x1000131E4, symSize: 0x24 }
  - { offsetInCU: 0x1B192, offset: 0x407CD, size: 0x8, addend: 0x0, symName: __ZNSt3__116reverse_iteratorIPP15JobWorkerThreadEC1B7v160006ES3_, symObjAddr: 0x63B4, symBinAddr: 0x100013280, symSize: 0x34 }
  - { offsetInCU: 0x1B1C8, offset: 0x40803, size: 0x8, addend: 0x0, symName: __ZNKSt3__116reverse_iteratorIPP15JobWorkerThreadE4baseB7v160006Ev, symObjAddr: 0x63E8, symBinAddr: 0x1000132B4, symSize: 0x18 }
  - { offsetInCU: 0x1B1ED, offset: 0x40828, size: 0x8, addend: 0x0, symName: __ZNKSt3__16vectorIP15JobWorkerThreadNS_9allocatorIS2_EEE14__annotate_newB7v160006Em, symObjAddr: 0x643C, symBinAddr: 0x100013308, symSize: 0xAC }
  - { offsetInCU: 0x1B23A, offset: 0x40875, size: 0x8, addend: 0x0, symName: __ZNKSt3__111__move_loopINS_17_ClassicAlgPolicyEEclB7v160006INS_16reverse_iteratorIPP15JobWorkerThreadEES8_S8_EENS_4pairIT_T1_EESA_T0_SB_, symObjAddr: 0x67E8, symBinAddr: 0x1000136B4, symSize: 0xA0 }
  - { offsetInCU: 0x1B2A9, offset: 0x408E4, size: 0x8, addend: 0x0, symName: __ZNSt3__18_IterOpsINS_17_ClassicAlgPolicyEE11__iter_moveB7v160006IRNS_16reverse_iteratorIPP15JobWorkerThreadEEEENS_9enable_ifIXsr12is_referenceIDTdeclsr3stdE7declvalIRT_EEEEE5valueEDTclsr3stdE4movedeclsr3stdE7declvalISC_EEEEE4typeEOSB_, symObjAddr: 0x6A1C, symBinAddr: 0x1000138E8, symSize: 0x28 }
  - { offsetInCU: 0x1B2D5, offset: 0x40910, size: 0x8, addend: 0x0, symName: __ZNKSt3__116reverse_iteratorIPP15JobWorkerThreadEdeB7v160006Ev, symObjAddr: 0x6A44, symBinAddr: 0x100013910, symSize: 0x28 }
  - { offsetInCU: 0x1B308, offset: 0x40943, size: 0x8, addend: 0x0, symName: __ZNSt3__116reverse_iteratorIPP15JobWorkerThreadEppB7v160006Ev, symObjAddr: 0x6A6C, symBinAddr: 0x100013938, symSize: 0x20 }
  - { offsetInCU: 0x1B32D, offset: 0x40968, size: 0x8, addend: 0x0, symName: __ZNSt3__18_IterOpsINS_17_ClassicAlgPolicyEE25__validate_iter_referenceB7v160006IRNS_16reverse_iteratorIPP15JobWorkerThreadEEEEvv, symObjAddr: 0x6A8C, symBinAddr: 0x100013958, symSize: 0x4 }
  - { offsetInCU: 0x1B34B, offset: 0x40986, size: 0x8, addend: 0x0, symName: __ZNSt3__118__unwrap_iter_implINS_16reverse_iteratorIPP15JobWorkerThreadEELb0EE8__unwrapB7v160006ES5_, symObjAddr: 0x6A90, symBinAddr: 0x10001395C, symSize: 0x24 }
  - { offsetInCU: 0x1B373, offset: 0x409AE, size: 0x8, addend: 0x0, symName: __ZNSt3__14pairINS_16reverse_iteratorIPP15JobWorkerThreadEES5_EC1B7v160006IS5_S5_LPv0EEEOT_OT0_, symObjAddr: 0x6AB4, symBinAddr: 0x100013980, symSize: 0x3C }
  - { offsetInCU: 0x1B3D0, offset: 0x40A0B, size: 0x8, addend: 0x0, symName: __ZNSt3__14pairINS_16reverse_iteratorIPP15JobWorkerThreadEES5_EC2B7v160006IS5_S5_LPv0EEEOT_OT0_, symObjAddr: 0x6AF0, symBinAddr: 0x1000139BC, symSize: 0x34 }
  - { offsetInCU: 0x1B42E, offset: 0x40A69, size: 0x8, addend: 0x0, symName: __ZNSt3__118__unwrap_iter_implINS_16reverse_iteratorIPP15JobWorkerThreadEELb0EE8__rewrapB7v160006ES5_S5_, symObjAddr: 0x6B24, symBinAddr: 0x1000139F0, symSize: 0x2C }
  - { offsetInCU: 0x1B45C, offset: 0x40A97, size: 0x8, addend: 0x0, symName: __ZNSt3__116reverse_iteratorIPP15JobWorkerThreadEC2B7v160006ES3_, symObjAddr: 0x6B50, symBinAddr: 0x100013A1C, symSize: 0x28 }
  - { offsetInCU: 0x1B493, offset: 0x40ACE, size: 0x8, addend: 0x0, symName: __ZNSt3__114__split_bufferIP15JobWorkerThreadRNS_9allocatorIS2_EEED2Ev, symObjAddr: 0x6B78, symBinAddr: 0x100013A44, symSize: 0x8C }
  - { offsetInCU: 0x1B4BE, offset: 0x40AF9, size: 0x8, addend: 0x0, symName: __ZNSt3__114__split_bufferIP15JobWorkerThreadRNS_9allocatorIS2_EEE5clearB7v160006Ev, symObjAddr: 0x6C04, symBinAddr: 0x100013AD0, symSize: 0x28 }
  - { offsetInCU: 0x1B4E3, offset: 0x40B1E, size: 0x8, addend: 0x0, symName: __ZNKSt3__114__split_bufferIP15JobWorkerThreadRNS_9allocatorIS2_EEE8capacityB7v160006Ev, symObjAddr: 0x6C2C, symBinAddr: 0x100013AF8, symSize: 0x40 }
  - { offsetInCU: 0x1B508, offset: 0x40B43, size: 0x8, addend: 0x0, symName: __ZNSt3__114__split_bufferIP15JobWorkerThreadRNS_9allocatorIS2_EEE17__destruct_at_endB7v160006EPS2_, symObjAddr: 0x6C6C, symBinAddr: 0x100013B38, symSize: 0x2C }
  - { offsetInCU: 0x1B53B, offset: 0x40B76, size: 0x8, addend: 0x0, symName: __ZNSt3__114__split_bufferIP15JobWorkerThreadRNS_9allocatorIS2_EEE17__destruct_at_endB7v160006EPS2_NS_17integral_constantIbLb0EEE, symObjAddr: 0x6C98, symBinAddr: 0x100013B64, symSize: 0x80 }
  - { offsetInCU: 0x1B57B, offset: 0x40BB6, size: 0x8, addend: 0x0, symName: __ZNKSt3__114__split_bufferIP15JobWorkerThreadRNS_9allocatorIS2_EEE9__end_capB7v160006Ev, symObjAddr: 0x6D18, symBinAddr: 0x100013BE4, symSize: 0x28 }
  - { offsetInCU: 0x1B5A0, offset: 0x40BDB, size: 0x8, addend: 0x0, symName: __ZNKSt3__117__compressed_pairIPP15JobWorkerThreadRNS_9allocatorIS2_EEE5firstB7v160006Ev, symObjAddr: 0x6D40, symBinAddr: 0x100013C0C, symSize: 0x24 }
  - { offsetInCU: 0x1B5C5, offset: 0x40C00, size: 0x8, addend: 0x0, symName: __ZNSt3__16vectorIP15JobWorkerThreadNS_9allocatorIS2_EEE11__make_iterB7v160006EPS2_, symObjAddr: 0x6D64, symBinAddr: 0x100013C30, symSize: 0x34 }
  - { offsetInCU: 0x1B5F9, offset: 0x40C34, size: 0x8, addend: 0x0, symName: __ZNSt3__111__wrap_iterIPP15JobWorkerThreadEC1B7v160006EPKvS3_, symObjAddr: 0x6D98, symBinAddr: 0x100013C64, symSize: 0x3C }
  - { offsetInCU: 0x1B63D, offset: 0x40C78, size: 0x8, addend: 0x0, symName: __ZNSt3__111__wrap_iterIPP15JobWorkerThreadEC2B7v160006EPKvS3_, symObjAddr: 0x6DD4, symBinAddr: 0x100013CA0, symSize: 0x24 }
  - { offsetInCU: 0x1B682, offset: 0x40CBD, size: 0x8, addend: 0x0, symName: __ZNKSt3__16vectorIP15JobWorkerThreadNS_9allocatorIS2_EEE6cbeginB7v160006Ev, symObjAddr: 0x6E40, symBinAddr: 0x100013D0C, symSize: 0x2C }
  - { offsetInCU: 0x1B6A7, offset: 0x40CE2, size: 0x8, addend: 0x0, symName: __ZNKSt3__111__wrap_iterIPKP15JobWorkerThreadE4baseB7v160006Ev, symObjAddr: 0x6EAC, symBinAddr: 0x100013D78, symSize: 0x18 }
  - { offsetInCU: 0x1B6CC, offset: 0x40D07, size: 0x8, addend: 0x0, symName: __ZNKSt3__16vectorIP15JobWorkerThreadNS_9allocatorIS2_EEE5beginB7v160006Ev, symObjAddr: 0x6EC4, symBinAddr: 0x100013D90, symSize: 0x30 }
  - { offsetInCU: 0x1B6F3, offset: 0x40D2E, size: 0x8, addend: 0x0, symName: __ZNKSt3__16vectorIP15JobWorkerThreadNS_9allocatorIS2_EEE11__make_iterB7v160006EPKS2_, symObjAddr: 0x6EF4, symBinAddr: 0x100013DC0, symSize: 0x34 }
  - { offsetInCU: 0x1B727, offset: 0x40D62, size: 0x8, addend: 0x0, symName: __ZNSt3__111__wrap_iterIPKP15JobWorkerThreadEC1B7v160006EPKvS4_, symObjAddr: 0x6F28, symBinAddr: 0x100013DF4, symSize: 0x3C }
  - { offsetInCU: 0x1B76B, offset: 0x40DA6, size: 0x8, addend: 0x0, symName: __ZNSt3__111__wrap_iterIPKP15JobWorkerThreadEC2B7v160006EPKvS4_, symObjAddr: 0x6F64, symBinAddr: 0x100013E30, symSize: 0x24 }
  - { offsetInCU: 0x1B7D3, offset: 0x40E0E, size: 0x8, addend: 0x0, symName: __ZNKSt3__114__move_trivialclB7v160006IP15JobWorkerThreadS3_Li0EEENS_4pairIPT_PT0_EES6_S6_S8_, symObjAddr: 0x7124, symBinAddr: 0x100013FF0, symSize: 0x48 }
  - { offsetInCU: 0x1B840, offset: 0x40E7B, size: 0x8, addend: 0x0, symName: __ZNSt3__14pairIPP15JobWorkerThreadS3_EC1B7v160006IRS3_S3_LPv0EEEOT_OT0_, symObjAddr: 0x72EC, symBinAddr: 0x1000141B8, symSize: 0x3C }
  - { offsetInCU: 0x1B89D, offset: 0x40ED8, size: 0x8, addend: 0x0, symName: __ZNSt3__14pairIPP15JobWorkerThreadS3_EC2B7v160006IRS3_S3_LPv0EEEOT_OT0_, symObjAddr: 0x7328, symBinAddr: 0x1000141F4, symSize: 0x34 }
  - { offsetInCU: 0x1B8FB, offset: 0x40F36, size: 0x8, addend: 0x0, symName: __ZNSt3__118__unwrap_iter_implIPP15JobWorkerThreadLb1EE8__unwrapB7v160006ES3_, symObjAddr: 0x735C, symBinAddr: 0x100014228, symSize: 0x24 }
  - { offsetInCU: 0x1B91E, offset: 0x40F59, size: 0x8, addend: 0x0, symName: __ZNSt3__14pairIPP15JobWorkerThreadS3_EC1B7v160006IS3_S3_LPv0EEEOT_OT0_, symObjAddr: 0x7380, symBinAddr: 0x10001424C, symSize: 0x3C }
  - { offsetInCU: 0x1B97B, offset: 0x40FB6, size: 0x8, addend: 0x0, symName: __ZNSt3__14pairIPP15JobWorkerThreadS3_EC2B7v160006IS3_S3_LPv0EEEOT_OT0_, symObjAddr: 0x73BC, symBinAddr: 0x100014288, symSize: 0x34 }
  - { offsetInCU: 0x1B9D9, offset: 0x41014, size: 0x8, addend: 0x0, symName: __ZNSt3__118__unwrap_iter_implIPP15JobWorkerThreadLb1EE8__rewrapB7v160006ES3_S3_, symObjAddr: 0x73F0, symBinAddr: 0x1000142BC, symSize: 0x50 }
  - { offsetInCU: 0x1BA0A, offset: 0x41045, size: 0x8, addend: 0x0, symName: __ZNSt3__16vectorI15JobHistoryEntryNS_9allocatorIS1_EEE22__construct_one_at_endB7v160006IJS1_EEEvDpOT_, symObjAddr: 0x7440, symBinAddr: 0x10001430C, symSize: 0x90 }
  - { offsetInCU: 0x1BA58, offset: 0x41093, size: 0x8, addend: 0x0, symName: __ZNSt3__16vectorI15JobHistoryEntryNS_9allocatorIS1_EEE24__emplace_back_slow_pathIJS1_EEEvDpOT_, symObjAddr: 0x74D0, symBinAddr: 0x10001439C, symSize: 0xD8 }
  - { offsetInCU: 0x1BAB7, offset: 0x410F2, size: 0x8, addend: 0x0, symName: __ZNSt3__16vectorI15JobHistoryEntryNS_9allocatorIS1_EEE4backB7v160006Ev, symObjAddr: 0x75A8, symBinAddr: 0x100014474, symSize: 0x1C }
  - { offsetInCU: 0x1BAF5, offset: 0x41130, size: 0x8, addend: 0x0, symName: __ZNSt3__16vectorI15JobHistoryEntryNS_9allocatorIS1_EEE21_ConstructTransactionC1B7v160006ERS4_m, symObjAddr: 0x75C4, symBinAddr: 0x100014490, symSize: 0x3C }
  - { offsetInCU: 0x1BB3B, offset: 0x41176, size: 0x8, addend: 0x0, symName: __ZNSt3__116allocator_traitsINS_9allocatorI15JobHistoryEntryEEE9constructB7v160006IS2_JS2_EvEEvRS3_PT_DpOT0_, symObjAddr: 0x7600, symBinAddr: 0x1000144CC, symSize: 0x34 }
  - { offsetInCU: 0x1BB92, offset: 0x411CD, size: 0x8, addend: 0x0, symName: __ZNSt3__16vectorI15JobHistoryEntryNS_9allocatorIS1_EEE21_ConstructTransactionD1B7v160006Ev, symObjAddr: 0x7634, symBinAddr: 0x100014500, symSize: 0x2C }
  - { offsetInCU: 0x1BBBA, offset: 0x411F5, size: 0x8, addend: 0x0, symName: __ZNSt3__16vectorI15JobHistoryEntryNS_9allocatorIS1_EEE21_ConstructTransactionC2B7v160006ERS4_m, symObjAddr: 0x7660, symBinAddr: 0x10001452C, symSize: 0x44 }
  - { offsetInCU: 0x1BC01, offset: 0x4123C, size: 0x8, addend: 0x0, symName: __ZNSt3__19allocatorI15JobHistoryEntryE9constructB7v160006IS1_JS1_EEEvPT_DpOT0_, symObjAddr: 0x76A4, symBinAddr: 0x100014570, symSize: 0x28 }
  - { offsetInCU: 0x1BC56, offset: 0x41291, size: 0x8, addend: 0x0, symName: __ZNSt3__16vectorI15JobHistoryEntryNS_9allocatorIS1_EEE21_ConstructTransactionD2B7v160006Ev, symObjAddr: 0x76CC, symBinAddr: 0x100014598, symSize: 0x20 }
  - { offsetInCU: 0x1BC7F, offset: 0x412BA, size: 0x8, addend: 0x0, symName: __ZNKSt3__16vectorI15JobHistoryEntryNS_9allocatorIS1_EEE11__recommendB7v160006Em, symObjAddr: 0x76EC, symBinAddr: 0x1000145B8, symSize: 0xB4 }
  - { offsetInCU: 0x1BCD3, offset: 0x4130E, size: 0x8, addend: 0x0, symName: __ZNKSt3__15dequeIP3JobNS_9allocatorIS2_EEE12__back_spareB7v160006Ev, symObjAddr: 0x77A0, symBinAddr: 0x10001466C, symSize: 0x54 }
  - { offsetInCU: 0x1BCF8, offset: 0x41333, size: 0x8, addend: 0x0, symName: __ZNSt3__15dequeIP3JobNS_9allocatorIS2_EEE19__add_back_capacityEv, symObjAddr: 0x77F4, symBinAddr: 0x1000146C0, symSize: 0x314 }
  - { offsetInCU: 0x1BDAC, offset: 0x413E7, size: 0x8, addend: 0x0, symName: __ZNSt3__116allocator_traitsINS_9allocatorIP3JobEEE9constructB7v160006IS3_JRKS3_EvEEvRS4_PT_DpOT0_, symObjAddr: 0x7B08, symBinAddr: 0x1000149D4, symSize: 0x34 }
  - { offsetInCU: 0x1BE03, offset: 0x4143E, size: 0x8, addend: 0x0, symName: __ZNKSt3__15dequeIP3JobNS_9allocatorIS2_EEE10__capacityB7v160006Ev, symObjAddr: 0x7B3C, symBinAddr: 0x100014A08, symSize: 0x60 }
  - { offsetInCU: 0x1BE28, offset: 0x41463, size: 0x8, addend: 0x0, symName: __ZNKSt3__15dequeIP3JobNS_9allocatorIS2_EEE4sizeB7v160006Ev, symObjAddr: 0x7B9C, symBinAddr: 0x100014A68, symSize: 0x28 }
  - { offsetInCU: 0x1BE4D, offset: 0x41488, size: 0x8, addend: 0x0, symName: __ZNKSt3__15dequeIP3JobNS_9allocatorIS2_EEE6__sizeB7v160006Ev, symObjAddr: 0x7BC4, symBinAddr: 0x100014A90, symSize: 0x28 }
  - { offsetInCU: 0x1BE72, offset: 0x414AD, size: 0x8, addend: 0x0, symName: __ZNKSt3__117__compressed_pairImNS_9allocatorIP3JobEEE5firstB7v160006Ev, symObjAddr: 0x7BEC, symBinAddr: 0x100014AB8, symSize: 0x24 }
  - { offsetInCU: 0x1BE97, offset: 0x414D2, size: 0x8, addend: 0x0, symName: __ZNKSt3__122__compressed_pair_elemImLi0ELb0EE5__getB7v160006Ev, symObjAddr: 0x7C10, symBinAddr: 0x100014ADC, symSize: 0x14 }
  - { offsetInCU: 0x1BEBC, offset: 0x414F7, size: 0x8, addend: 0x0, symName: __ZNKSt3__15dequeIP3JobNS_9allocatorIS2_EEE13__front_spareB7v160006Ev, symObjAddr: 0x7C24, symBinAddr: 0x100014AF0, symSize: 0x18 }
  - { offsetInCU: 0x1BEE1, offset: 0x4151C, size: 0x8, addend: 0x0, symName: __ZNSt3__114__split_bufferIPP3JobNS_9allocatorIS3_EEE9push_backB7v160006ERKS3_, symObjAddr: 0x7C3C, symBinAddr: 0x100014B08, symSize: 0x260 }
  - { offsetInCU: 0x1BF58, offset: 0x41593, size: 0x8, addend: 0x0, symName: __ZNKSt3__114__split_bufferIPP3JobNS_9allocatorIS3_EEE12__back_spareB7v160006Ev, symObjAddr: 0x7E9C, symBinAddr: 0x100014D68, symSize: 0x40 }
  - { offsetInCU: 0x1BF7D, offset: 0x415B8, size: 0x8, addend: 0x0, symName: __ZNSt3__114__split_bufferIPP3JobNS_9allocatorIS3_EEE9push_backEOS3_, symObjAddr: 0x7EDC, symBinAddr: 0x100014DA8, symSize: 0x260 }
  - { offsetInCU: 0x1BFF4, offset: 0x4162F, size: 0x8, addend: 0x0, symName: __ZNSt3__116allocator_traitsINS_9allocatorIP3JobEEE8allocateB7v160006ERS4_m, symObjAddr: 0x813C, symBinAddr: 0x100015008, symSize: 0x2C }
  - { offsetInCU: 0x1C027, offset: 0x41662, size: 0x8, addend: 0x0, symName: __ZNSt3__114__split_bufferIPP3JobNS_9allocatorIS3_EEE10push_frontEOS3_, symObjAddr: 0x8168, symBinAddr: 0x100015034, symSize: 0x25C }
  - { offsetInCU: 0x1C09E, offset: 0x416D9, size: 0x8, addend: 0x0, symName: __ZNSt3__114__split_bufferIPP3JobRNS_9allocatorIS3_EEEC1EmmS6_, symObjAddr: 0x83C4, symBinAddr: 0x100015290, symSize: 0x44 }
  - { offsetInCU: 0x1C0F8, offset: 0x41733, size: 0x8, addend: 0x0, symName: __ZNSt3__122__allocator_destructorINS_9allocatorIP3JobEEEC1B7v160006ERS4_m, symObjAddr: 0x8408, symBinAddr: 0x1000152D4, symSize: 0x3C }
  - { offsetInCU: 0x1C1B9, offset: 0x417F4, size: 0x8, addend: 0x0, symName: __ZNSt3__110unique_ptrIPP3JobNS_22__allocator_destructorINS_9allocatorIS2_EEEEEC1B7v160006ILb1EvEES3_NS_16__dependent_typeINS_27__unique_ptr_deleter_sfinaeIS7_EEXT_EE20__good_rval_ref_typeE, symObjAddr: 0x8444, symBinAddr: 0x100015310, symSize: 0x3C }
  - { offsetInCU: 0x1C208, offset: 0x41843, size: 0x8, addend: 0x0, symName: __ZNSt3__114__split_bufferIPP3JobRNS_9allocatorIS3_EEE9push_backEOS3_, symObjAddr: 0x8480, symBinAddr: 0x10001534C, symSize: 0x260 }
  - { offsetInCU: 0x1C27F, offset: 0x418BA, size: 0x8, addend: 0x0, symName: __ZNKSt3__110unique_ptrIPP3JobNS_22__allocator_destructorINS_9allocatorIS2_EEEEE3getB7v160006Ev, symObjAddr: 0x86E0, symBinAddr: 0x1000155AC, symSize: 0x28 }
  - { offsetInCU: 0x1C2A4, offset: 0x418DF, size: 0x8, addend: 0x0, symName: __ZNSt3__110unique_ptrIPP3JobNS_22__allocator_destructorINS_9allocatorIS2_EEEEE7releaseB7v160006Ev, symObjAddr: 0x8708, symBinAddr: 0x1000155D4, symSize: 0x44 }
  - { offsetInCU: 0x1C2D8, offset: 0x41913, size: 0x8, addend: 0x0, symName: __ZNSt3__114__split_bufferIPP3JobRNS_9allocatorIS3_EEE10push_frontERKS3_, symObjAddr: 0x874C, symBinAddr: 0x100015618, symSize: 0x25C }
  - { offsetInCU: 0x1C34F, offset: 0x4198A, size: 0x8, addend: 0x0, symName: __ZNSt3__114__split_bufferIPP3JobNS_9allocatorIS3_EEE9__end_capB7v160006Ev, symObjAddr: 0x89E4, symBinAddr: 0x1000158B0, symSize: 0x28 }
  - { offsetInCU: 0x1C374, offset: 0x419AF, size: 0x8, addend: 0x0, symName: __ZNSt3__114__split_bufferIPP3JobRNS_9allocatorIS3_EEE9__end_capB7v160006Ev, symObjAddr: 0x8A0C, symBinAddr: 0x1000158D8, symSize: 0x28 }
  - { offsetInCU: 0x1C399, offset: 0x419D4, size: 0x8, addend: 0x0, symName: __ZNSt3__110unique_ptrIPP3JobNS_22__allocator_destructorINS_9allocatorIS2_EEEEED1B7v160006Ev, symObjAddr: 0x8A34, symBinAddr: 0x100015900, symSize: 0x2C }
  - { offsetInCU: 0x1C3C1, offset: 0x419FC, size: 0x8, addend: 0x0, symName: __ZNSt3__114__split_bufferIPP3JobRNS_9allocatorIS3_EEED1Ev, symObjAddr: 0x8A60, symBinAddr: 0x10001592C, symSize: 0x2C }
  - { offsetInCU: 0x1C3EC, offset: 0x41A27, size: 0x8, addend: 0x0, symName: __ZNSt3__114__split_bufferIPP3JobRNS_9allocatorIS3_EEE18__construct_at_endINS_13move_iteratorIPS3_EEEENS_9enable_ifIXsr27__is_cpp17_forward_iteratorIT_EE5valueEvE4typeESD_SD_, symObjAddr: 0x8ACC, symBinAddr: 0x100015998, symSize: 0xFC }
  - { offsetInCU: 0x1C447, offset: 0x41A82, size: 0x8, addend: 0x0, symName: __ZNSt3__113move_iteratorIPPP3JobEC1B7v160006ES4_, symObjAddr: 0x8BC8, symBinAddr: 0x100015A94, symSize: 0x34 }
  - { offsetInCU: 0x1C47D, offset: 0x41AB8, size: 0x8, addend: 0x0, symName: __ZNSt3__116allocator_traitsINS_9allocatorIPP3JobEEE9constructB7v160006IS4_JRKS4_EvEEvRS5_PT_DpOT0_, symObjAddr: 0x8BFC, symBinAddr: 0x100015AC8, symSize: 0x34 }
  - { offsetInCU: 0x1C4ED, offset: 0x41B28, size: 0x8, addend: 0x0, symName: __ZNKSt3__114__move_trivialclB7v160006IPP3JobS4_Li0EEENS_4pairIPT_PT0_EES7_S7_S9_, symObjAddr: 0x8DCC, symBinAddr: 0x100015C98, symSize: 0x48 }
  - { offsetInCU: 0x1C55A, offset: 0x41B95, size: 0x8, addend: 0x0, symName: __ZNSt3__14pairIPPP3JobS4_EC1B7v160006IRS4_S4_LPv0EEEOT_OT0_, symObjAddr: 0x8F94, symBinAddr: 0x100015E60, symSize: 0x3C }
  - { offsetInCU: 0x1C5B7, offset: 0x41BF2, size: 0x8, addend: 0x0, symName: __ZNSt3__14pairIPPP3JobS4_EC2B7v160006IRS4_S4_LPv0EEEOT_OT0_, symObjAddr: 0x8FD0, symBinAddr: 0x100015E9C, symSize: 0x34 }
  - { offsetInCU: 0x1C615, offset: 0x41C50, size: 0x8, addend: 0x0, symName: __ZNSt3__118__unwrap_iter_implIPPP3JobLb1EE8__unwrapB7v160006ES4_, symObjAddr: 0x9004, symBinAddr: 0x100015ED0, symSize: 0x24 }
  - { offsetInCU: 0x1C638, offset: 0x41C73, size: 0x8, addend: 0x0, symName: __ZNSt3__14pairIPPP3JobS4_EC1B7v160006IS4_S4_LPv0EEEOT_OT0_, symObjAddr: 0x9028, symBinAddr: 0x100015EF4, symSize: 0x3C }
  - { offsetInCU: 0x1C695, offset: 0x41CD0, size: 0x8, addend: 0x0, symName: __ZNSt3__14pairIPPP3JobS4_EC2B7v160006IS4_S4_LPv0EEEOT_OT0_, symObjAddr: 0x9064, symBinAddr: 0x100015F30, symSize: 0x34 }
  - { offsetInCU: 0x1C6F3, offset: 0x41D2E, size: 0x8, addend: 0x0, symName: __ZNSt3__118__unwrap_iter_implIPPP3JobLb1EE8__rewrapB7v160006ES4_S4_, symObjAddr: 0x9098, symBinAddr: 0x100015F64, symSize: 0x50 }
  - { offsetInCU: 0x1C72E, offset: 0x41D69, size: 0x8, addend: 0x0, symName: __ZNSt3__114__split_bufferIPP3JobRNS_9allocatorIS3_EEE21_ConstructTransactionC1B7v160006EPPS3_m, symObjAddr: 0x9124, symBinAddr: 0x100015FF0, symSize: 0x3C }
  - { offsetInCU: 0x1C772, offset: 0x41DAD, size: 0x8, addend: 0x0, symName: __ZNSt3__116allocator_traitsINS_9allocatorIPP3JobEEE9constructB7v160006IS4_JS4_EvEEvRS5_PT_DpOT0_, symObjAddr: 0x9160, symBinAddr: 0x10001602C, symSize: 0x34 }
  - { offsetInCU: 0x1C7C9, offset: 0x41E04, size: 0x8, addend: 0x0, symName: __ZNSt3__114__split_bufferIPP3JobRNS_9allocatorIS3_EEE7__allocB7v160006Ev, symObjAddr: 0x9194, symBinAddr: 0x100016060, symSize: 0x28 }
  - { offsetInCU: 0x1C7EE, offset: 0x41E29, size: 0x8, addend: 0x0, symName: __ZNKSt3__113move_iteratorIPPP3JobEdeB7v160006Ev, symObjAddr: 0x91BC, symBinAddr: 0x100016088, symSize: 0x18 }
  - { offsetInCU: 0x1C813, offset: 0x41E4E, size: 0x8, addend: 0x0, symName: __ZNSt3__113move_iteratorIPPP3JobEppB7v160006Ev, symObjAddr: 0x91D4, symBinAddr: 0x1000160A0, symSize: 0x20 }
  - { offsetInCU: 0x1C838, offset: 0x41E73, size: 0x8, addend: 0x0, symName: __ZNSt3__114__split_bufferIPP3JobRNS_9allocatorIS3_EEE21_ConstructTransactionD1B7v160006Ev, symObjAddr: 0x91F4, symBinAddr: 0x1000160C0, symSize: 0x2C }
  - { offsetInCU: 0x1C860, offset: 0x41E9B, size: 0x8, addend: 0x0, symName: __ZNKSt3__113move_iteratorIPPP3JobE4baseB7v160006Ev, symObjAddr: 0x9298, symBinAddr: 0x100016164, symSize: 0x18 }
  - { offsetInCU: 0x1C885, offset: 0x41EC0, size: 0x8, addend: 0x0, symName: __ZNSt3__114__split_bufferIPP3JobRNS_9allocatorIS3_EEE21_ConstructTransactionC2B7v160006EPPS3_m, symObjAddr: 0x92B0, symBinAddr: 0x10001617C, symSize: 0x44 }
  - { offsetInCU: 0x1C8CA, offset: 0x41F05, size: 0x8, addend: 0x0, symName: __ZNSt3__19allocatorIPP3JobE9constructB7v160006IS3_JS3_EEEvPT_DpOT0_, symObjAddr: 0x92F4, symBinAddr: 0x1000161C0, symSize: 0x28 }
  - { offsetInCU: 0x1C91F, offset: 0x41F5A, size: 0x8, addend: 0x0, symName: __ZNSt3__117__compressed_pairIPPP3JobRNS_9allocatorIS3_EEE6secondB7v160006Ev, symObjAddr: 0x931C, symBinAddr: 0x1000161E8, symSize: 0x28 }
  - { offsetInCU: 0x1C944, offset: 0x41F7F, size: 0x8, addend: 0x0, symName: __ZNSt3__122__compressed_pair_elemIRNS_9allocatorIPP3JobEELi1ELb0EE5__getB7v160006Ev, symObjAddr: 0x9344, symBinAddr: 0x100016210, symSize: 0x18 }
  - { offsetInCU: 0x1C969, offset: 0x41FA4, size: 0x8, addend: 0x0, symName: __ZNSt3__114__split_bufferIPP3JobRNS_9allocatorIS3_EEE21_ConstructTransactionD2B7v160006Ev, symObjAddr: 0x935C, symBinAddr: 0x100016228, symSize: 0x20 }
  - { offsetInCU: 0x1C992, offset: 0x41FCD, size: 0x8, addend: 0x0, symName: __ZNSt3__113move_iteratorIPPP3JobEC2B7v160006ES4_, symObjAddr: 0x937C, symBinAddr: 0x100016248, symSize: 0x20 }
  - { offsetInCU: 0x1C9C9, offset: 0x42004, size: 0x8, addend: 0x0, symName: __ZNSt3__19allocatorIPP3JobE9constructB7v160006IS3_JRKS3_EEEvPT_DpOT0_, symObjAddr: 0x939C, symBinAddr: 0x100016268, symSize: 0x28 }
  - { offsetInCU: 0x1CA1E, offset: 0x42059, size: 0x8, addend: 0x0, symName: __ZNSt3__19allocatorIP3JobE8allocateB7v160006Em, symObjAddr: 0x93C4, symBinAddr: 0x100016290, symSize: 0x58 }
  - { offsetInCU: 0x1CA5B, offset: 0x42096, size: 0x8, addend: 0x0, symName: __ZNSt3__116allocator_traitsINS_9allocatorIP3JobEEE8max_sizeB7v160006IS4_vEEmRKS4_, symObjAddr: 0x941C, symBinAddr: 0x1000162E8, symSize: 0x24 }
  - { offsetInCU: 0x1CA89, offset: 0x420C4, size: 0x8, addend: 0x0, symName: __ZNKSt3__19allocatorIP3JobE8max_sizeB7v160006Ev, symObjAddr: 0x9440, symBinAddr: 0x10001630C, symSize: 0x14 }
  - { offsetInCU: 0x1CAB8, offset: 0x420F3, size: 0x8, addend: 0x0, symName: __ZNKSt3__123__move_backward_trivialclB7v160006IPP3JobS4_Li0EEENS_4pairIPT_PT0_EES7_S7_S9_, symObjAddr: 0x95D0, symBinAddr: 0x10001649C, symSize: 0x48 }
  - { offsetInCU: 0x1CB20, offset: 0x4215B, size: 0x8, addend: 0x0, symName: __ZNSt3__14pairIPPP3JobS4_EC1B7v160006IRS4_S7_LPv0EEEOT_OT0_, symObjAddr: 0x96E4, symBinAddr: 0x1000165B0, symSize: 0x3C }
  - { offsetInCU: 0x1CB7D, offset: 0x421B8, size: 0x8, addend: 0x0, symName: __ZNSt3__14pairIPPP3JobS4_EC2B7v160006IRS4_S7_LPv0EEEOT_OT0_, symObjAddr: 0x9720, symBinAddr: 0x1000165EC, symSize: 0x34 }
  - { offsetInCU: 0x1CBDB, offset: 0x42216, size: 0x8, addend: 0x0, symName: __ZNSt3__114__split_bufferIPP3JobRNS_9allocatorIS3_EEEC2EmmS6_, symObjAddr: 0x9754, symBinAddr: 0x100016620, symSize: 0xD4 }
  - { offsetInCU: 0x1CC4D, offset: 0x42288, size: 0x8, addend: 0x0, symName: __ZNSt3__117__compressed_pairIPPP3JobRNS_9allocatorIS3_EEEC1B7v160006IDnS7_EEOT_OT0_, symObjAddr: 0x9828, symBinAddr: 0x1000166F4, symSize: 0x3C }
  - { offsetInCU: 0x1CCA3, offset: 0x422DE, size: 0x8, addend: 0x0, symName: __ZNSt3__117__compressed_pairIPPP3JobRNS_9allocatorIS3_EEEC2B7v160006IDnS7_EEOT_OT0_, symObjAddr: 0x98A4, symBinAddr: 0x100016770, symSize: 0x48 }
  - { offsetInCU: 0x1CCF9, offset: 0x42334, size: 0x8, addend: 0x0, symName: __ZNSt3__122__compressed_pair_elemIRNS_9allocatorIPP3JobEELi1ELb0EEC2B7v160006IS6_vEEOT_, symObjAddr: 0x98EC, symBinAddr: 0x1000167B8, symSize: 0x20 }
  - { offsetInCU: 0x1CD3A, offset: 0x42375, size: 0x8, addend: 0x0, symName: __ZNSt3__19allocatorIPP3JobE8allocateB7v160006Em, symObjAddr: 0x990C, symBinAddr: 0x1000167D8, symSize: 0x58 }
  - { offsetInCU: 0x1CD77, offset: 0x423B2, size: 0x8, addend: 0x0, symName: __ZNSt3__116allocator_traitsINS_9allocatorIPP3JobEEE8max_sizeB7v160006IS5_vEEmRKS5_, symObjAddr: 0x9964, symBinAddr: 0x100016830, symSize: 0x24 }
  - { offsetInCU: 0x1CDA5, offset: 0x423E0, size: 0x8, addend: 0x0, symName: __ZNKSt3__19allocatorIPP3JobE8max_sizeB7v160006Ev, symObjAddr: 0x9988, symBinAddr: 0x100016854, symSize: 0x14 }
  - { offsetInCU: 0x1CDCA, offset: 0x42405, size: 0x8, addend: 0x0, symName: __ZNSt3__122__allocator_destructorINS_9allocatorIP3JobEEEC2B7v160006ERS4_m, symObjAddr: 0x999C, symBinAddr: 0x100016868, symSize: 0x2C }
  - { offsetInCU: 0x1CE0F, offset: 0x4244A, size: 0x8, addend: 0x0, symName: __ZNSt3__110unique_ptrIPP3JobNS_22__allocator_destructorINS_9allocatorIS2_EEEEEC2B7v160006ILb1EvEES3_NS_16__dependent_typeINS_27__unique_ptr_deleter_sfinaeIS7_EEXT_EE20__good_rval_ref_typeE, symObjAddr: 0x99C8, symBinAddr: 0x100016894, symSize: 0x48 }
  - { offsetInCU: 0x1CE5E, offset: 0x42499, size: 0x8, addend: 0x0, symName: __ZNSt3__117__compressed_pairIPP3JobNS_22__allocator_destructorINS_9allocatorIS2_EEEEEC1B7v160006IRS3_S7_EEOT_OT0_, symObjAddr: 0x9A10, symBinAddr: 0x1000168DC, symSize: 0x3C }
  - { offsetInCU: 0x1CEB4, offset: 0x424EF, size: 0x8, addend: 0x0, symName: __ZNSt3__117__compressed_pairIPP3JobNS_22__allocator_destructorINS_9allocatorIS2_EEEEEC2B7v160006IRS3_S7_EEOT_OT0_, symObjAddr: 0x9A4C, symBinAddr: 0x100016918, symSize: 0x48 }
  - { offsetInCU: 0x1CF0A, offset: 0x42545, size: 0x8, addend: 0x0, symName: __ZNSt3__122__compressed_pair_elemIPP3JobLi0ELb0EEC2B7v160006IRS3_vEEOT_, symObjAddr: 0x9A94, symBinAddr: 0x100016960, symSize: 0x24 }
  - { offsetInCU: 0x1CF4B, offset: 0x42586, size: 0x8, addend: 0x0, symName: __ZNSt3__122__compressed_pair_elemINS_22__allocator_destructorINS_9allocatorIP3JobEEEELi1ELb0EEC2B7v160006IS6_vEEOT_, symObjAddr: 0x9AB8, symBinAddr: 0x100016984, symSize: 0x24 }
  - { offsetInCU: 0x1CF8C, offset: 0x425C7, size: 0x8, addend: 0x0, symName: __ZNKSt3__117__compressed_pairIPP3JobNS_22__allocator_destructorINS_9allocatorIS2_EEEEE5firstB7v160006Ev, symObjAddr: 0x9ADC, symBinAddr: 0x1000169A8, symSize: 0x24 }
  - { offsetInCU: 0x1CFB1, offset: 0x425EC, size: 0x8, addend: 0x0, symName: __ZNKSt3__122__compressed_pair_elemIPP3JobLi0ELb0EE5__getB7v160006Ev, symObjAddr: 0x9B00, symBinAddr: 0x1000169CC, symSize: 0x14 }
  - { offsetInCU: 0x1CFD6, offset: 0x42611, size: 0x8, addend: 0x0, symName: __ZNSt3__117__compressed_pairIPP3JobNS_22__allocator_destructorINS_9allocatorIS2_EEEEE5firstB7v160006Ev, symObjAddr: 0x9B14, symBinAddr: 0x1000169E0, symSize: 0x24 }
  - { offsetInCU: 0x1CFFB, offset: 0x42636, size: 0x8, addend: 0x0, symName: __ZNSt3__122__compressed_pair_elemIPP3JobLi0ELb0EE5__getB7v160006Ev, symObjAddr: 0x9B38, symBinAddr: 0x100016A04, symSize: 0x14 }
  - { offsetInCU: 0x1D020, offset: 0x4265B, size: 0x8, addend: 0x0, symName: __ZNSt3__117__compressed_pairIPPP3JobNS_9allocatorIS3_EEE5firstB7v160006Ev, symObjAddr: 0x9B4C, symBinAddr: 0x100016A18, symSize: 0x24 }
  - { offsetInCU: 0x1D045, offset: 0x42680, size: 0x8, addend: 0x0, symName: __ZNSt3__122__compressed_pair_elemIPPP3JobLi0ELb0EE5__getB7v160006Ev, symObjAddr: 0x9B70, symBinAddr: 0x100016A3C, symSize: 0x14 }
  - { offsetInCU: 0x1D06A, offset: 0x426A5, size: 0x8, addend: 0x0, symName: __ZNSt3__117__compressed_pairIPPP3JobRNS_9allocatorIS3_EEE5firstB7v160006Ev, symObjAddr: 0x9B84, symBinAddr: 0x100016A50, symSize: 0x24 }
  - { offsetInCU: 0x1D08F, offset: 0x426CA, size: 0x8, addend: 0x0, symName: __ZNSt3__110unique_ptrIPP3JobNS_22__allocator_destructorINS_9allocatorIS2_EEEEED2B7v160006Ev, symObjAddr: 0x9BA8, symBinAddr: 0x100016A74, symSize: 0x30 }
  - { offsetInCU: 0x1D0B7, offset: 0x426F2, size: 0x8, addend: 0x0, symName: __ZNSt3__110unique_ptrIPP3JobNS_22__allocator_destructorINS_9allocatorIS2_EEEEE5resetB7v160006ES3_, symObjAddr: 0x9BD8, symBinAddr: 0x100016AA4, symSize: 0x78 }
  - { offsetInCU: 0x1D0FA, offset: 0x42735, size: 0x8, addend: 0x0, symName: __ZNSt3__117__compressed_pairIPP3JobNS_22__allocator_destructorINS_9allocatorIS2_EEEEE6secondB7v160006Ev, symObjAddr: 0x9C50, symBinAddr: 0x100016B1C, symSize: 0x28 }
  - { offsetInCU: 0x1D11F, offset: 0x4275A, size: 0x8, addend: 0x0, symName: __ZNSt3__122__allocator_destructorINS_9allocatorIP3JobEEEclB7v160006EPS3_, symObjAddr: 0x9C78, symBinAddr: 0x100016B44, symSize: 0x34 }
  - { offsetInCU: 0x1D152, offset: 0x4278D, size: 0x8, addend: 0x0, symName: __ZNSt3__122__compressed_pair_elemINS_22__allocator_destructorINS_9allocatorIP3JobEEEELi1ELb0EE5__getB7v160006Ev, symObjAddr: 0x9CAC, symBinAddr: 0x100016B78, symSize: 0x14 }
  - { offsetInCU: 0x1D177, offset: 0x427B2, size: 0x8, addend: 0x0, symName: __ZNSt3__114__split_bufferIPP3JobRNS_9allocatorIS3_EEED2Ev, symObjAddr: 0x9CC0, symBinAddr: 0x100016B8C, symSize: 0x8C }
  - { offsetInCU: 0x1D1A2, offset: 0x427DD, size: 0x8, addend: 0x0, symName: __ZNSt3__114__split_bufferIPP3JobRNS_9allocatorIS3_EEE5clearB7v160006Ev, symObjAddr: 0x9D4C, symBinAddr: 0x100016C18, symSize: 0x28 }
  - { offsetInCU: 0x1D1C7, offset: 0x42802, size: 0x8, addend: 0x0, symName: __ZNKSt3__114__split_bufferIPP3JobRNS_9allocatorIS3_EEE8capacityB7v160006Ev, symObjAddr: 0x9D74, symBinAddr: 0x100016C40, symSize: 0x40 }
  - { offsetInCU: 0x1D1EC, offset: 0x42827, size: 0x8, addend: 0x0, symName: __ZNSt3__114__split_bufferIPP3JobRNS_9allocatorIS3_EEE17__destruct_at_endB7v160006EPS3_, symObjAddr: 0x9DB4, symBinAddr: 0x100016C80, symSize: 0x2C }
  - { offsetInCU: 0x1D21F, offset: 0x4285A, size: 0x8, addend: 0x0, symName: __ZNSt3__114__split_bufferIPP3JobRNS_9allocatorIS3_EEE17__destruct_at_endB7v160006EPS3_NS_17integral_constantIbLb0EEE, symObjAddr: 0x9DE0, symBinAddr: 0x100016CAC, symSize: 0x80 }
  - { offsetInCU: 0x1D25F, offset: 0x4289A, size: 0x8, addend: 0x0, symName: __ZNKSt3__114__split_bufferIPP3JobRNS_9allocatorIS3_EEE9__end_capB7v160006Ev, symObjAddr: 0x9E60, symBinAddr: 0x100016D2C, symSize: 0x28 }
  - { offsetInCU: 0x1D284, offset: 0x428BF, size: 0x8, addend: 0x0, symName: __ZNKSt3__117__compressed_pairIPPP3JobRNS_9allocatorIS3_EEE5firstB7v160006Ev, symObjAddr: 0x9E88, symBinAddr: 0x100016D54, symSize: 0x24 }
  - { offsetInCU: 0x1D2A9, offset: 0x428E4, size: 0x8, addend: 0x0, symName: __ZNSt3__19allocatorIP3JobE9constructB7v160006IS2_JRKS2_EEEvPT_DpOT0_, symObjAddr: 0x9EAC, symBinAddr: 0x100016D78, symSize: 0x28 }
  - { offsetInCU: 0x1D2FE, offset: 0x42939, size: 0x8, addend: 0x0, symName: __ZNSt3__114__split_bufferIPP3JobNS_9allocatorIS3_EEE4swapERS6_, symObjAddr: 0x9ED4, symBinAddr: 0x100016DA0, symSize: 0x98 }
  - { offsetInCU: 0x1D333, offset: 0x4296E, size: 0x8, addend: 0x0, symName: __ZNKSt3__114__split_bufferIPP3JobNS_9allocatorIS3_EEE5emptyB7v160006Ev, symObjAddr: 0xA028, symBinAddr: 0x100016EF4, symSize: 0x28 }
  - { offsetInCU: 0x1D358, offset: 0x42993, size: 0x8, addend: 0x0, symName: __ZNSt3__116__deque_iteratorIP3JobPS2_RS2_PS3_lLl512EEC1B7v160006ES5_S3_, symObjAddr: 0xA050, symBinAddr: 0x100016F1C, symSize: 0x3C }
  - { offsetInCU: 0x1D39E, offset: 0x429D9, size: 0x8, addend: 0x0, symName: __ZNSt3__116__deque_iteratorIP3JobPS2_RS2_PS3_lLl512EEC2B7v160006ES5_S3_, symObjAddr: 0xA08C, symBinAddr: 0x100016F58, symSize: 0x2C }
  - { offsetInCU: 0x1D3EA, offset: 0x42A25, size: 0x8, addend: 0x0, symName: __ZNKSt3__116__deque_iteratorIP3JobPS2_RS2_PS3_lLl512EEplB7v160006El, symObjAddr: 0xAB7C, symBinAddr: 0x100017058, symSize: 0x40 }
  - { offsetInCU: 0x1D42D, offset: 0x42A68, size: 0x8, addend: 0x0, symName: __ZNSt3__15dequeIP3JobNS_9allocatorIS2_EEE26__maybe_remove_front_spareB7v160006Eb, symObjAddr: 0xAC8C, symBinAddr: 0x100017168, symSize: 0xDC }
  - { offsetInCU: 0x1D461, offset: 0x42A9C, size: 0x8, addend: 0x0, symName: __ZNSt3__15dequeIP3JobNS_9allocatorIS2_EEE25__maybe_remove_back_spareB7v160006Eb, symObjAddr: 0xADE0, symBinAddr: 0x1000172BC, symSize: 0xCC }
  - { offsetInCU: 0x1D495, offset: 0x42AD0, size: 0x8, addend: 0x0, symName: __ZNSt3__116__deque_iteratorIP3JobPS2_RS2_PS3_lLl512EEpLB7v160006El, symObjAddr: 0xAF10, symBinAddr: 0x1000173EC, symSize: 0x110 }
  - { offsetInCU: 0x1D509, offset: 0x42B44, size: 0x8, addend: 0x0, symName: __ZNKSt3__120__move_backward_loopINS_17_ClassicAlgPolicyEEclB7v160006INS_16__deque_iteratorIP3JobPS6_RS6_PS7_lLl512EEESA_Li0EEENS_4pairIT_T0_EESC_SC_SD_, symObjAddr: 0xB298, symBinAddr: 0x100017774, symSize: 0x230 }
  - { offsetInCU: 0x1D5AD, offset: 0x42BE8, size: 0x8, addend: 0x0, symName: __ZNSt3__127__segmented_iterator_traitsINS_16__deque_iteratorIP3JobPS3_RS3_PS4_lLl512EEEE9__segmentB7v160006ES7_, symObjAddr: 0xB614, symBinAddr: 0x100017AF0, symSize: 0x18 }
  - { offsetInCU: 0x1D5D1, offset: 0x42C0C, size: 0x8, addend: 0x0, symName: __ZNSt3__127__segmented_iterator_traitsINS_16__deque_iteratorIP3JobPS3_RS3_PS4_lLl512EEEE7__localB7v160006ES7_, symObjAddr: 0xB670, symBinAddr: 0x100017B4C, symSize: 0x18 }
  - { offsetInCU: 0x1D5F5, offset: 0x42C30, size: 0x8, addend: 0x0, symName: __ZNSt3__127__segmented_iterator_traitsINS_16__deque_iteratorIP3JobPS3_RS3_PS4_lLl512EEEE7__beginB7v160006ES6_, symObjAddr: 0xB6C0, symBinAddr: 0x100017B9C, symSize: 0x18 }
  - { offsetInCU: 0x1D619, offset: 0x42C54, size: 0x8, addend: 0x0, symName: __ZNSt3__127__segmented_iterator_traitsINS_16__deque_iteratorIP3JobPS3_RS3_PS4_lLl512EEEE5__endB7v160006ES6_, symObjAddr: 0xB6D8, symBinAddr: 0x100017BB4, symSize: 0x1C }
  - { offsetInCU: 0x1D65B, offset: 0x42C96, size: 0x8, addend: 0x0, symName: __ZNSt3__120__move_backward_loopINS_17_ClassicAlgPolicyEEclB7v160006IPP3JobNS_16__deque_iteratorIS5_S6_RS5_PS6_lLl512EEELi0EEENS_4pairIT_T0_EESC_SC_SD_, symObjAddr: 0xB8C0, symBinAddr: 0x100017D9C, symSize: 0x19C }
  - { offsetInCU: 0x1D741, offset: 0x42D7C, size: 0x8, addend: 0x0, symName: __ZNSt3__14pairIPP3JobS3_EC1B7v160006IS3_S3_LPv0EEEOT_OT0_, symObjAddr: 0xBB1C, symBinAddr: 0x100017FF8, symSize: 0x3C }
  - { offsetInCU: 0x1D79E, offset: 0x42DD9, size: 0x8, addend: 0x0, symName: __ZNSt3__14pairIPP3JobS3_EC2B7v160006IS3_S3_LPv0EEEOT_OT0_, symObjAddr: 0xBB58, symBinAddr: 0x100018034, symSize: 0x34 }
  - { offsetInCU: 0x1D7FC, offset: 0x42E37, size: 0x8, addend: 0x0, symName: __ZNSt3__118__unwrap_iter_implIPP3JobLb1EE8__unwrapB7v160006ES3_, symObjAddr: 0xBB8C, symBinAddr: 0x100018068, symSize: 0x24 }
  - { offsetInCU: 0x1D81F, offset: 0x42E5A, size: 0x8, addend: 0x0, symName: __ZNSt3__127__segmented_iterator_traitsINS_16__deque_iteratorIP3JobPS3_RS3_PS4_lLl512EEEE9__composeB7v160006ES6_S4_, symObjAddr: 0xBC6C, symBinAddr: 0x100018148, symSize: 0x84 }
  - { offsetInCU: 0x1D852, offset: 0x42E8D, size: 0x8, addend: 0x0, symName: __ZNSt3__14pairIPP3JobNS_16__deque_iteratorIS2_S3_RS2_PS3_lLl512EEEEC1B7v160006IRS3_RS7_LPv0EEEOT_OT0_, symObjAddr: 0xBCF0, symBinAddr: 0x1000181CC, symSize: 0x3C }
  - { offsetInCU: 0x1D8AF, offset: 0x42EEA, size: 0x8, addend: 0x0, symName: __ZNSt3__14pairIPP3JobNS_16__deque_iteratorIS2_S3_RS2_PS3_lLl512EEEEC2B7v160006IRS3_RS7_LPv0EEEOT_OT0_, symObjAddr: 0xBD2C, symBinAddr: 0x100018208, symSize: 0x34 }
  - { offsetInCU: 0x1D921, offset: 0x42F5C, size: 0x8, addend: 0x0, symName: __ZNKSt3__16__lessIllEclB7v160006ERKlS3_, symObjAddr: 0xBDB4, symBinAddr: 0x100018290, symSize: 0x34 }
  - { offsetInCU: 0x1D962, offset: 0x42F9D, size: 0x8, addend: 0x0, symName: __ZNKSt3__123__move_backward_trivialclB7v160006IP3JobS3_Li0EEENS_4pairIPT_PT0_EES6_S6_S8_, symObjAddr: 0xBEE0, symBinAddr: 0x1000183BC, symSize: 0x48 }
  - { offsetInCU: 0x1D9CA, offset: 0x43005, size: 0x8, addend: 0x0, symName: __ZNSt3__14pairIPP3JobS3_EC1B7v160006IRS3_S6_LPv0EEEOT_OT0_, symObjAddr: 0xC030, symBinAddr: 0x10001850C, symSize: 0x3C }
  - { offsetInCU: 0x1DA27, offset: 0x43062, size: 0x8, addend: 0x0, symName: __ZNSt3__14pairIPP3JobS3_EC2B7v160006IRS3_S6_LPv0EEEOT_OT0_, symObjAddr: 0xC06C, symBinAddr: 0x100018548, symSize: 0x34 }
  - { offsetInCU: 0x1DA85, offset: 0x430C0, size: 0x8, addend: 0x0, symName: __ZNSt3__118__unwrap_iter_implIPP3JobLb1EE8__rewrapB7v160006ES3_S3_, symObjAddr: 0xC0A0, symBinAddr: 0x10001857C, symSize: 0x50 }
  - { offsetInCU: 0x1DABB, offset: 0x430F6, size: 0x8, addend: 0x0, symName: __ZNSt3__14pairIPP3JobNS_16__deque_iteratorIS2_S3_RS2_PS3_lLl512EEEEC1B7v160006IS3_S7_LPv0EEEOT_OT0_, symObjAddr: 0xC0F0, symBinAddr: 0x1000185CC, symSize: 0x3C }
  - { offsetInCU: 0x1DB18, offset: 0x43153, size: 0x8, addend: 0x0, symName: __ZNSt3__14pairIPP3JobNS_16__deque_iteratorIS2_S3_RS2_PS3_lLl512EEEEC2B7v160006IS3_S7_LPv0EEEOT_OT0_, symObjAddr: 0xC12C, symBinAddr: 0x100018608, symSize: 0x34 }
  - { offsetInCU: 0x1DB76, offset: 0x431B1, size: 0x8, addend: 0x0, symName: __ZNSt3__14pairINS_16__deque_iteratorIP3JobPS3_RS3_PS4_lLl512EEES7_EC1B7v160006IRS7_SA_LPv0EEEOT_OT0_, symObjAddr: 0xC160, symBinAddr: 0x10001863C, symSize: 0x3C }
  - { offsetInCU: 0x1DBD3, offset: 0x4320E, size: 0x8, addend: 0x0, symName: __ZNSt3__14pairINS_16__deque_iteratorIP3JobPS3_RS3_PS4_lLl512EEES7_EC2B7v160006IRS7_SA_LPv0EEEOT_OT0_, symObjAddr: 0xC19C, symBinAddr: 0x100018678, symSize: 0x34 }
  - { offsetInCU: 0x1DC31, offset: 0x4326C, size: 0x8, addend: 0x0, symName: __ZNSt3__14pairINS_16__deque_iteratorIP3JobPS3_RS3_PS4_lLl512EEES7_EC1B7v160006IRS7_S7_LPv0EEEOT_OT0_, symObjAddr: 0xC1D0, symBinAddr: 0x1000186AC, symSize: 0x3C }
  - { offsetInCU: 0x1DC8E, offset: 0x432C9, size: 0x8, addend: 0x0, symName: __ZNSt3__14pairINS_16__deque_iteratorIP3JobPS3_RS3_PS4_lLl512EEES7_EC2B7v160006IRS7_S7_LPv0EEEOT_OT0_, symObjAddr: 0xC20C, symBinAddr: 0x1000186E8, symSize: 0x34 }
  - { offsetInCU: 0x1DCEC, offset: 0x43327, size: 0x8, addend: 0x0, symName: __ZNSt3__118__unwrap_iter_implINS_16__deque_iteratorIP3JobPS3_RS3_PS4_lLl512EEELb0EE8__unwrapB7v160006ES7_, symObjAddr: 0xC240, symBinAddr: 0x10001871C, symSize: 0x24 }
  - { offsetInCU: 0x1DD0F, offset: 0x4334A, size: 0x8, addend: 0x0, symName: __ZNSt3__14pairINS_16__deque_iteratorIP3JobPS3_RS3_PS4_lLl512EEES7_EC1B7v160006IS7_S7_LPv0EEEOT_OT0_, symObjAddr: 0xC264, symBinAddr: 0x100018740, symSize: 0x3C }
  - { offsetInCU: 0x1DD6C, offset: 0x433A7, size: 0x8, addend: 0x0, symName: __ZNSt3__14pairINS_16__deque_iteratorIP3JobPS3_RS3_PS4_lLl512EEES7_EC2B7v160006IS7_S7_LPv0EEEOT_OT0_, symObjAddr: 0xC2A0, symBinAddr: 0x10001877C, symSize: 0x34 }
  - { offsetInCU: 0x1DDCA, offset: 0x43405, size: 0x8, addend: 0x0, symName: __ZNSt3__118__unwrap_iter_implINS_16__deque_iteratorIP3JobPS3_RS3_PS4_lLl512EEELb0EE8__rewrapB7v160006ES7_S7_, symObjAddr: 0xC2D4, symBinAddr: 0x1000187B0, symSize: 0x2C }
  - { offsetInCU: 0x1DDF8, offset: 0x43433, size: 0x8, addend: 0x0, symName: __ZNKSt3__15dequeIP3JobNS_9allocatorIS2_EEE20__front_spare_blocksB7v160006Ev, symObjAddr: 0xC390, symBinAddr: 0x10001886C, symSize: 0x2C }
  - { offsetInCU: 0x1DE1D, offset: 0x43458, size: 0x8, addend: 0x0, symName: __ZNKSt3__111__move_loopINS_17_ClassicAlgPolicyEEclB7v160006INS_16__deque_iteratorIP3JobPS6_RS6_PS7_lLl512EEESA_Li0EEENS_4pairIT_T0_EESC_SC_SD_, symObjAddr: 0xC5B0, symBinAddr: 0x100018A8C, symSize: 0x238 }
  - { offsetInCU: 0x1DEC6, offset: 0x43501, size: 0x8, addend: 0x0, symName: __ZNSt3__111__move_loopINS_17_ClassicAlgPolicyEEclB7v160006IPP3JobNS_16__deque_iteratorIS5_S6_RS5_PS6_lLl512EEELi0EEENS_4pairIT_T0_EESC_SC_SD_, symObjAddr: 0xC960, symBinAddr: 0x100018E3C, symSize: 0x164 }
  - { offsetInCU: 0x1DF85, offset: 0x435C0, size: 0x8, addend: 0x0, symName: __ZNKSt3__114__move_trivialclB7v160006IP3JobS3_Li0EEENS_4pairIPT_PT0_EES6_S6_S8_, symObjAddr: 0xCC00, symBinAddr: 0x1000190DC, symSize: 0x48 }
  - { offsetInCU: 0x1DFED, offset: 0x43628, size: 0x8, addend: 0x0, symName: __ZNSt3__14pairIPP3JobS3_EC1B7v160006IRS3_S3_LPv0EEEOT_OT0_, symObjAddr: 0xCD04, symBinAddr: 0x1000191E0, symSize: 0x3C }
  - { offsetInCU: 0x1E04A, offset: 0x43685, size: 0x8, addend: 0x0, symName: __ZNSt3__14pairIPP3JobS3_EC2B7v160006IRS3_S3_LPv0EEEOT_OT0_, symObjAddr: 0xCD40, symBinAddr: 0x10001921C, symSize: 0x34 }
  - { offsetInCU: 0x1E0A8, offset: 0x436E3, size: 0x8, addend: 0x0, symName: __ZNKSt3__15dequeIP3JobNS_9allocatorIS2_EEE19__back_spare_blocksB7v160006Ev, symObjAddr: 0xCD74, symBinAddr: 0x100019250, symSize: 0x2C }
  - { offsetInCU: 0x1E0CD, offset: 0x43708, size: 0x8, addend: 0x0, symName: __ZNSt3__114__split_bufferIPP3JobNS_9allocatorIS3_EEE4backB7v160006Ev, symObjAddr: 0xCDA0, symBinAddr: 0x10001927C, symSize: 0x1C }
  - { offsetInCU: 0x1E0F2, offset: 0x4372D, size: 0x8, addend: 0x0, symName: __ZNSt3__114__split_bufferIPP3JobNS_9allocatorIS3_EEE8pop_backB7v160006Ev, symObjAddr: 0xCDBC, symBinAddr: 0x100019298, symSize: 0x2C }
  - { offsetInCU: 0x1E117, offset: 0x43752, size: 0x8, addend: 0x0, symName: __ZNSt3__116__deque_iteratorIP3JobPKS2_RS3_PKS4_lLl512EEC2B7v160006IPS2_RS2_PSA_EERKNS0_IS2_T_T0_T1_lLl512EEEPNS_9enable_ifIXsr14is_convertibleISD_S4_EE5valueEvE4typeE, symObjAddr: 0xCDE8, symBinAddr: 0x1000192C4, symSize: 0x34 }
  - { offsetInCU: 0x1E176, offset: 0x437B1, size: 0x8, addend: 0x0, symName: __ZNSt3__16__treeINS_12__value_typeINS_12basic_stringIcNS_11char_traitsIcEENS_9allocatorIcEEEENS_6vectorI5ErrorNS5_IS9_EEEEEENS_19__map_value_compareIS7_SC_NS_4lessIS7_EELb1EEENS5_ISC_EEEaSERKSI_, symObjAddr: 0xCF78, symBinAddr: 0x1000193A4, symSize: 0x8C }
  - { offsetInCU: 0x1E1AC, offset: 0x437E7, size: 0x8, addend: 0x0, symName: __ZNKSt3__16__treeINS_12__value_typeINS_12basic_stringIcNS_11char_traitsIcEENS_9allocatorIcEEEENS_6vectorI5ErrorNS5_IS9_EEEEEENS_19__map_value_compareIS7_SC_NS_4lessIS7_EELb1EEENS5_ISC_EEE10value_compB7v160006Ev, symObjAddr: 0xD004, symBinAddr: 0x100019430, symSize: 0x28 }
  - { offsetInCU: 0x1E1D1, offset: 0x4380C, size: 0x8, addend: 0x0, symName: __ZNSt3__16__treeINS_12__value_typeINS_12basic_stringIcNS_11char_traitsIcEENS_9allocatorIcEEEENS_6vectorI5ErrorNS5_IS9_EEEEEENS_19__map_value_compareIS7_SC_NS_4lessIS7_EELb1EEENS5_ISC_EEE10value_compB7v160006Ev, symObjAddr: 0xD02C, symBinAddr: 0x100019458, symSize: 0x28 }
  - { offsetInCU: 0x1E1F6, offset: 0x43831, size: 0x8, addend: 0x0, symName: __ZNSt3__16__treeINS_12__value_typeINS_12basic_stringIcNS_11char_traitsIcEENS_9allocatorIcEEEENS_6vectorI5ErrorNS5_IS9_EEEEEENS_19__map_value_compareIS7_SC_NS_4lessIS7_EELb1EEENS5_ISC_EEE19__copy_assign_allocB7v160006ERKSI_, symObjAddr: 0xD054, symBinAddr: 0x100019480, symSize: 0x2C }
  - { offsetInCU: 0x1E22A, offset: 0x43865, size: 0x8, addend: 0x0, symName: __ZNSt3__16__treeINS_12__value_typeINS_12basic_stringIcNS_11char_traitsIcEENS_9allocatorIcEEEENS_6vectorI5ErrorNS5_IS9_EEEEEENS_19__map_value_compareIS7_SC_NS_4lessIS7_EELb1EEENS5_ISC_EEE14__assign_multiINS_21__tree_const_iteratorISC_PNS_11__tree_nodeISC_PvEElEEEEvT_SQ_, symObjAddr: 0xD080, symBinAddr: 0x1000194AC, symSize: 0x178 }
  - { offsetInCU: 0x1E28D, offset: 0x438C8, size: 0x8, addend: 0x0, symName: __ZNKSt3__16__treeINS_12__value_typeINS_12basic_stringIcNS_11char_traitsIcEENS_9allocatorIcEEEENS_6vectorI5ErrorNS5_IS9_EEEEEENS_19__map_value_compareIS7_SC_NS_4lessIS7_EELb1EEENS5_ISC_EEE5beginB7v160006Ev, symObjAddr: 0xD1F8, symBinAddr: 0x100019624, symSize: 0x34 }
  - { offsetInCU: 0x1E2B2, offset: 0x438ED, size: 0x8, addend: 0x0, symName: __ZNKSt3__16__treeINS_12__value_typeINS_12basic_stringIcNS_11char_traitsIcEENS_9allocatorIcEEEENS_6vectorI5ErrorNS5_IS9_EEEEEENS_19__map_value_compareIS7_SC_NS_4lessIS7_EELb1EEENS5_ISC_EEE3endB7v160006Ev, symObjAddr: 0xD22C, symBinAddr: 0x100019658, symSize: 0x34 }
  - { offsetInCU: 0x1E2D7, offset: 0x43912, size: 0x8, addend: 0x0, symName: __ZNKSt3__117__compressed_pairImNS_19__map_value_compareINS_12basic_stringIcNS_11char_traitsIcEENS_9allocatorIcEEEENS_12__value_typeIS7_NS_6vectorI5ErrorNS5_ISA_EEEEEENS_4lessIS7_EELb1EEEE6secondB7v160006Ev, symObjAddr: 0xD260, symBinAddr: 0x10001968C, symSize: 0x24 }
  - { offsetInCU: 0x1E2FC, offset: 0x43937, size: 0x8, addend: 0x0, symName: __ZNKSt3__122__compressed_pair_elemINS_19__map_value_compareINS_12basic_stringIcNS_11char_traitsIcEENS_9allocatorIcEEEENS_12__value_typeIS7_NS_6vectorI5ErrorNS5_ISA_EEEEEENS_4lessIS7_EELb1EEELi1ELb1EE5__getB7v160006Ev, symObjAddr: 0xD284, symBinAddr: 0x1000196B0, symSize: 0x14 }
  - { offsetInCU: 0x1E321, offset: 0x4395C, size: 0x8, addend: 0x0, symName: __ZNSt3__117__compressed_pairImNS_19__map_value_compareINS_12basic_stringIcNS_11char_traitsIcEENS_9allocatorIcEEEENS_12__value_typeIS7_NS_6vectorI5ErrorNS5_ISA_EEEEEENS_4lessIS7_EELb1EEEE6secondB7v160006Ev, symObjAddr: 0xD298, symBinAddr: 0x1000196C4, symSize: 0x24 }
  - { offsetInCU: 0x1E346, offset: 0x43981, size: 0x8, addend: 0x0, symName: __ZNSt3__122__compressed_pair_elemINS_19__map_value_compareINS_12basic_stringIcNS_11char_traitsIcEENS_9allocatorIcEEEENS_12__value_typeIS7_NS_6vectorI5ErrorNS5_ISA_EEEEEENS_4lessIS7_EELb1EEELi1ELb1EE5__getB7v160006Ev, symObjAddr: 0xD2BC, symBinAddr: 0x1000196E8, symSize: 0x14 }
  - { offsetInCU: 0x1E36B, offset: 0x439A6, size: 0x8, addend: 0x0, symName: __ZNSt3__16__treeINS_12__value_typeINS_12basic_stringIcNS_11char_traitsIcEENS_9allocatorIcEEEENS_6vectorI5ErrorNS5_IS9_EEEEEENS_19__map_value_compareIS7_SC_NS_4lessIS7_EELb1EEENS5_ISC_EEE19__copy_assign_allocB7v160006ERKSI_NS_17integral_constantIbLb0EEE, symObjAddr: 0xD2D0, symBinAddr: 0x1000196FC, symSize: 0x14 }
  - { offsetInCU: 0x1E3A8, offset: 0x439E3, size: 0x8, addend: 0x0, symName: __ZNSt3__16__treeINS_12__value_typeINS_12basic_stringIcNS_11char_traitsIcEENS_9allocatorIcEEEENS_6vectorI5ErrorNS5_IS9_EEEEEENS_19__map_value_compareIS7_SC_NS_4lessIS7_EELb1EEENS5_ISC_EEE4sizeB7v160006Ev, symObjAddr: 0xD2E4, symBinAddr: 0x100019710, symSize: 0x28 }
  - { offsetInCU: 0x1E3EB, offset: 0x43A26, size: 0x8, addend: 0x0, symName: __ZNSt3__16__treeINS_12__value_typeINS_12basic_stringIcNS_11char_traitsIcEENS_9allocatorIcEEEENS_6vectorI5ErrorNS5_IS9_EEEEEENS_19__map_value_compareIS7_SC_NS_4lessIS7_EELb1EEENS5_ISC_EEE18_DetachedTreeCacheC1B7v160006EPSI_, symObjAddr: 0xD30C, symBinAddr: 0x100019738, symSize: 0x34 }
  - { offsetInCU: 0x1E422, offset: 0x43A5D, size: 0x8, addend: 0x0, symName: __ZNKSt3__16__treeINS_12__value_typeINS_12basic_stringIcNS_11char_traitsIcEENS_9allocatorIcEEEENS_6vectorI5ErrorNS5_IS9_EEEEEENS_19__map_value_compareIS7_SC_NS_4lessIS7_EELb1EEENS5_ISC_EEE18_DetachedTreeCache5__getB7v160006Ev, symObjAddr: 0xD340, symBinAddr: 0x10001976C, symSize: 0x18 }
  - { offsetInCU: 0x1E447, offset: 0x43A82, size: 0x8, addend: 0x0, symName: __ZNKSt3__121__tree_const_iteratorINS_12__value_typeINS_12basic_stringIcNS_11char_traitsIcEENS_9allocatorIcEEEENS_6vectorI5ErrorNS5_IS9_EEEEEEPNS_11__tree_nodeISC_PvEElEdeB7v160006Ev, symObjAddr: 0xD38C, symBinAddr: 0x1000197B8, symSize: 0x28 }
  - { offsetInCU: 0x1E46C, offset: 0x43AA7, size: 0x8, addend: 0x0, symName: __ZNSt3__112__value_typeINS_12basic_stringIcNS_11char_traitsIcEENS_9allocatorIcEEEENS_6vectorI5ErrorNS4_IS8_EEEEEaSB7v160006ERKSB_, symObjAddr: 0xD3B4, symBinAddr: 0x1000197E0, symSize: 0x60 }
  - { offsetInCU: 0x1E4A0, offset: 0x43ADB, size: 0x8, addend: 0x0, symName: __ZNSt3__16__treeINS_12__value_typeINS_12basic_stringIcNS_11char_traitsIcEENS_9allocatorIcEEEENS_6vectorI5ErrorNS5_IS9_EEEEEENS_19__map_value_compareIS7_SC_NS_4lessIS7_EELb1EEENS5_ISC_EEE19__node_insert_multiEPNS_11__tree_nodeISC_PvEE, symObjAddr: 0xD414, symBinAddr: 0x100019840, symSize: 0x70 }
  - { offsetInCU: 0x1E4F4, offset: 0x43B2F, size: 0x8, addend: 0x0, symName: __ZNSt3__16__treeINS_12__value_typeINS_12basic_stringIcNS_11char_traitsIcEENS_9allocatorIcEEEENS_6vectorI5ErrorNS5_IS9_EEEEEENS_19__map_value_compareIS7_SC_NS_4lessIS7_EELb1EEENS5_ISC_EEE18_DetachedTreeCache9__advanceB7v160006Ev, symObjAddr: 0xD484, symBinAddr: 0x1000198B0, symSize: 0x58 }
  - { offsetInCU: 0x1E519, offset: 0x43B54, size: 0x8, addend: 0x0, symName: __ZNSt3__121__tree_const_iteratorINS_12__value_typeINS_12basic_stringIcNS_11char_traitsIcEENS_9allocatorIcEEEENS_6vectorI5ErrorNS5_IS9_EEEEEEPNS_11__tree_nodeISC_PvEElEppB7v160006Ev, symObjAddr: 0xD4DC, symBinAddr: 0x100019908, symSize: 0x38 }
  - { offsetInCU: 0x1E53E, offset: 0x43B79, size: 0x8, addend: 0x0, symName: __ZNSt3__16__treeINS_12__value_typeINS_12basic_stringIcNS_11char_traitsIcEENS_9allocatorIcEEEENS_6vectorI5ErrorNS5_IS9_EEEEEENS_19__map_value_compareIS7_SC_NS_4lessIS7_EELb1EEENS5_ISC_EEE18_DetachedTreeCacheD1B7v160006Ev, symObjAddr: 0xD514, symBinAddr: 0x100019940, symSize: 0x2C }
  - { offsetInCU: 0x1E566, offset: 0x43BA1, size: 0x8, addend: 0x0, symName: __ZNSt3__16__treeINS_12__value_typeINS_12basic_stringIcNS_11char_traitsIcEENS_9allocatorIcEEEENS_6vectorI5ErrorNS5_IS9_EEEEEENS_19__map_value_compareIS7_SC_NS_4lessIS7_EELb1EEENS5_ISC_EEE14__insert_multiB7v160006IRKNS_4pairIKS7_SB_EEEENS_15__tree_iteratorISC_PNS_11__tree_nodeISC_PvEElEEOT_, symObjAddr: 0xD540, symBinAddr: 0x10001996C, symSize: 0x34 }
  - { offsetInCU: 0x1E5A3, offset: 0x43BDE, size: 0x8, addend: 0x0, symName: __ZNSt3__122__tree_key_value_typesINS_12__value_typeINS_12basic_stringIcNS_11char_traitsIcEENS_9allocatorIcEEEENS_6vectorI5ErrorNS5_IS9_EEEEEEE11__get_valueB7v160006ERKSC_, symObjAddr: 0xD574, symBinAddr: 0x1000199A0, symSize: 0x24 }
  - { offsetInCU: 0x1E5C7, offset: 0x43C02, size: 0x8, addend: 0x0, symName: __ZNSt3__117__compressed_pairImNS_19__map_value_compareINS_12basic_stringIcNS_11char_traitsIcEENS_9allocatorIcEEEENS_12__value_typeIS7_NS_6vectorI5ErrorNS5_ISA_EEEEEENS_4lessIS7_EELb1EEEE5firstB7v160006Ev, symObjAddr: 0xD598, symBinAddr: 0x1000199C4, symSize: 0x24 }
  - { offsetInCU: 0x1E5EC, offset: 0x43C27, size: 0x8, addend: 0x0, symName: __ZNSt3__16__treeINS_12__value_typeINS_12basic_stringIcNS_11char_traitsIcEENS_9allocatorIcEEEENS_6vectorI5ErrorNS5_IS9_EEEEEENS_19__map_value_compareIS7_SC_NS_4lessIS7_EELb1EEENS5_ISC_EEE18_DetachedTreeCacheC2B7v160006EPSI_, symObjAddr: 0xD5BC, symBinAddr: 0x1000199E8, symSize: 0x4C }
  - { offsetInCU: 0x1E623, offset: 0x43C5E, size: 0x8, addend: 0x0, symName: __ZNSt3__16__treeINS_12__value_typeINS_12basic_stringIcNS_11char_traitsIcEENS_9allocatorIcEEEENS_6vectorI5ErrorNS5_IS9_EEEEEENS_19__map_value_compareIS7_SC_NS_4lessIS7_EELb1EEENS5_ISC_EEE18_DetachedTreeCache18__detach_from_treeEPSI_, symObjAddr: 0xD608, symBinAddr: 0x100019A34, symSize: 0xA0 }
  - { offsetInCU: 0x1E658, offset: 0x43C93, size: 0x8, addend: 0x0, symName: __ZNKSt3__121__tree_const_iteratorINS_12__value_typeINS_12basic_stringIcNS_11char_traitsIcEENS_9allocatorIcEEEENS_6vectorI5ErrorNS5_IS9_EEEEEEPNS_11__tree_nodeISC_PvEElE8__get_npB7v160006Ev, symObjAddr: 0xD6D8, symBinAddr: 0x100019B04, symSize: 0x18 }
  - { offsetInCU: 0x1E67D, offset: 0x43CB8, size: 0x8, addend: 0x0, symName: __ZNKSt3__112__value_typeINS_12basic_stringIcNS_11char_traitsIcEENS_9allocatorIcEEEENS_6vectorI5ErrorNS4_IS8_EEEEE11__get_valueB7v160006Ev, symObjAddr: 0xD6F0, symBinAddr: 0x100019B1C, symSize: 0x24 }
  - { offsetInCU: 0x1E6A2, offset: 0x43CDD, size: 0x8, addend: 0x0, symName: __ZNSt3__112__value_typeINS_12basic_stringIcNS_11char_traitsIcEENS_9allocatorIcEEEENS_6vectorI5ErrorNS4_IS8_EEEEE5__refB7v160006Ev, symObjAddr: 0xD714, symBinAddr: 0x100019B40, symSize: 0x44 }
  - { offsetInCU: 0x1E6D6, offset: 0x43D11, size: 0x8, addend: 0x0, symName: __ZNSt3__14pairIRNS_12basic_stringIcNS_11char_traitsIcEENS_9allocatorIcEEEERNS_6vectorI5ErrorNS4_IS9_EEEEEaSB7v160006IRKNS0_IKS6_SB_EELPv0EEERSD_OT_, symObjAddr: 0xD758, symBinAddr: 0x100019B84, symSize: 0x5C }
  - { offsetInCU: 0x1E71A, offset: 0x43D55, size: 0x8, addend: 0x0, symName: __ZNSt3__14pairIRNS_12basic_stringIcNS_11char_traitsIcEENS_9allocatorIcEEEERNS_6vectorI5ErrorNS4_IS9_EEEEEC1B7v160006ILb1ELPv0EEES7_SC_, symObjAddr: 0xD810, symBinAddr: 0x100019C18, symSize: 0x3C }
  - { offsetInCU: 0x1E76F, offset: 0x43DAA, size: 0x8, addend: 0x0, symName: __ZNSt3__14pairIRNS_12basic_stringIcNS_11char_traitsIcEENS_9allocatorIcEEEERNS_6vectorI5ErrorNS4_IS9_EEEEEC2B7v160006ILb1ELPv0EEES7_SC_, symObjAddr: 0xD884, symBinAddr: 0x100019C54, symSize: 0x2C }
  - { offsetInCU: 0x1E7C5, offset: 0x43E00, size: 0x8, addend: 0x0, symName: __ZNSt3__16vectorI5ErrorNS_9allocatorIS1_EEEaSB7v160006ERKS4_, symObjAddr: 0xD8F8, symBinAddr: 0x100019CC8, symSize: 0x68 }
  - { offsetInCU: 0x1E7FB, offset: 0x43E36, size: 0x8, addend: 0x0, symName: __ZNSt3__110__get_pairILm0EE3getB7v160006IKNS_12basic_stringIcNS_11char_traitsIcEENS_9allocatorIcEEEENS_6vectorI5ErrorNS6_ISB_EEEEEERKT_RKNS_4pairISE_T0_EE, symObjAddr: 0xD960, symBinAddr: 0x100019D30, symSize: 0x14 }
  - { offsetInCU: 0x1E831, offset: 0x43E6C, size: 0x8, addend: 0x0, symName: __ZNSt3__110__get_pairILm1EE3getB7v160006IKNS_12basic_stringIcNS_11char_traitsIcEENS_9allocatorIcEEEENS_6vectorI5ErrorNS6_ISB_EEEEEERKT0_RKNS_4pairIT_SE_EE, symObjAddr: 0xD974, symBinAddr: 0x100019D44, symSize: 0x18 }
  - { offsetInCU: 0x1E867, offset: 0x43EA2, size: 0x8, addend: 0x0, symName: __ZNSt3__16vectorI5ErrorNS_9allocatorIS1_EEE19__copy_assign_allocB7v160006ERKS4_, symObjAddr: 0xD98C, symBinAddr: 0x100019D5C, symSize: 0x2C }
  - { offsetInCU: 0x1E89B, offset: 0x43ED6, size: 0x8, addend: 0x0, symName: __ZNSt3__16vectorI5ErrorNS_9allocatorIS1_EEE6assignIPS1_Li0EEEvT_S7_, symObjAddr: 0xD9B8, symBinAddr: 0x100019D88, symSize: 0x17C }
  - { offsetInCU: 0x1E93A, offset: 0x43F75, size: 0x8, addend: 0x0, symName: __ZNSt3__16vectorI5ErrorNS_9allocatorIS1_EEE19__copy_assign_allocB7v160006ERKS4_NS_17integral_constantIbLb0EEE, symObjAddr: 0xDB34, symBinAddr: 0x100019F04, symSize: 0x14 }
  - { offsetInCU: 0x1E977, offset: 0x43FB2, size: 0x8, addend: 0x0, symName: __ZNSt3__16vectorI5ErrorNS_9allocatorIS1_EEE18__construct_at_endIPS1_Li0EEEvT_S7_m, symObjAddr: 0xDC6C, symBinAddr: 0x100019FD4, symSize: 0x8C }
  - { offsetInCU: 0x1E9EA, offset: 0x44025, size: 0x8, addend: 0x0, symName: __ZNSt3__16vectorI5ErrorNS_9allocatorIS1_EEE17__destruct_at_endB7v160006EPS1_, symObjAddr: 0xDCF8, symBinAddr: 0x10001A060, symSize: 0x60 }
  - { offsetInCU: 0x1EA2D, offset: 0x44068, size: 0x8, addend: 0x0, symName: __ZNSt3__16vectorI5ErrorNS_9allocatorIS1_EEE13__vdeallocateEv, symObjAddr: 0xDD58, symBinAddr: 0x10001A0C0, symSize: 0x8C }
  - { offsetInCU: 0x1EA54, offset: 0x4408F, size: 0x8, addend: 0x0, symName: __ZNSt3__16vectorI5ErrorNS_9allocatorIS1_EEE11__vallocateB7v160006Em, symObjAddr: 0xDDE4, symBinAddr: 0x10001A14C, symSize: 0xB4 }
  - { offsetInCU: 0x1EA97, offset: 0x440D2, size: 0x8, addend: 0x0, symName: __ZNKSt3__16vectorI5ErrorNS_9allocatorIS1_EEE11__recommendB7v160006Em, symObjAddr: 0xDE98, symBinAddr: 0x10001A200, symSize: 0xB4 }
  - { offsetInCU: 0x1EB0E, offset: 0x44149, size: 0x8, addend: 0x0, symName: __ZNKSt3__111__copy_loopINS_17_ClassicAlgPolicyEEclB7v160006IP5ErrorS5_S5_EENS_4pairIT_T1_EES7_T0_S8_, symObjAddr: 0xE1C4, symBinAddr: 0x10001A4CC, symSize: 0x88 }
  - { offsetInCU: 0x1EB7D, offset: 0x441B8, size: 0x8, addend: 0x0, symName: __ZN5ErroraSERKS_, symObjAddr: 0xE310, symBinAddr: 0x10001A618, symSize: 0x68 }
  - { offsetInCU: 0x1EBAC, offset: 0x441E7, size: 0x8, addend: 0x0, symName: __ZNSt3__118__unwrap_iter_implIP5ErrorLb1EE8__unwrapB7v160006ES2_, symObjAddr: 0xE378, symBinAddr: 0x10001A680, symSize: 0x24 }
  - { offsetInCU: 0x1EBD4, offset: 0x4420F, size: 0x8, addend: 0x0, symName: __ZNSt3__14pairIP5ErrorS2_EC1B7v160006IS2_S2_LPv0EEEOT_OT0_, symObjAddr: 0xE3B0, symBinAddr: 0x10001A6A4, symSize: 0x3C }
  - { offsetInCU: 0x1EC31, offset: 0x4426C, size: 0x8, addend: 0x0, symName: __ZNSt3__14pairIP5ErrorS2_EC2B7v160006IS2_S2_LPv0EEEOT_OT0_, symObjAddr: 0xE3EC, symBinAddr: 0x10001A6E0, symSize: 0x34 }
  - { offsetInCU: 0x1EC8F, offset: 0x442CA, size: 0x8, addend: 0x0, symName: __ZNSt3__118__unwrap_iter_implIP5ErrorLb1EE8__rewrapB7v160006ES2_S2_, symObjAddr: 0xE420, symBinAddr: 0x10001A714, symSize: 0x58 }
  - { offsetInCU: 0x1ECD9, offset: 0x44314, size: 0x8, addend: 0x0, symName: __ZNSt3__16vectorI5ErrorNS_9allocatorIS1_EEE21_ConstructTransactionC1B7v160006ERS4_m, symObjAddr: 0xE478, symBinAddr: 0x10001A76C, symSize: 0x3C }
  - { offsetInCU: 0x1ED1F, offset: 0x4435A, size: 0x8, addend: 0x0, symName: __ZNSt3__16vectorI5ErrorNS_9allocatorIS1_EEE21_ConstructTransactionD1B7v160006Ev, symObjAddr: 0xE5D0, symBinAddr: 0x10001A89C, symSize: 0x2C }
  - { offsetInCU: 0x1ED47, offset: 0x44382, size: 0x8, addend: 0x0, symName: __ZNSt3__16vectorI5ErrorNS_9allocatorIS1_EEE21_ConstructTransactionC2B7v160006ERS4_m, symObjAddr: 0xE5FC, symBinAddr: 0x10001A8C8, symSize: 0x4C }
  - { offsetInCU: 0x1ED8E, offset: 0x443C9, size: 0x8, addend: 0x0, symName: __ZNSt3__129_AllocatorDestroyRangeReverseINS_9allocatorI5ErrorEEPS2_EC1B7v160006ERS3_RS4_S7_, symObjAddr: 0xE694, symBinAddr: 0x10001A960, symSize: 0x44 }
  - { offsetInCU: 0x1EDE3, offset: 0x4441E, size: 0x8, addend: 0x0, symName: __ZNSt3__116allocator_traitsINS_9allocatorI5ErrorEEE9constructB7v160006IS2_JRS2_EvEEvRS3_PT_DpOT0_, symObjAddr: 0xE6D8, symBinAddr: 0x10001A9A4, symSize: 0x34 }
  - { offsetInCU: 0x1EE3A, offset: 0x44475, size: 0x8, addend: 0x0, symName: __ZNSt3__128__exception_guard_exceptionsINS_29_AllocatorDestroyRangeReverseINS_9allocatorI5ErrorEEPS3_EEE10__completeB7v160006Ev, symObjAddr: 0xE70C, symBinAddr: 0x10001A9D8, symSize: 0x1C }
  - { offsetInCU: 0x1EE5F, offset: 0x4449A, size: 0x8, addend: 0x0, symName: __ZNSt3__128__exception_guard_exceptionsINS_29_AllocatorDestroyRangeReverseINS_9allocatorI5ErrorEEPS3_EEED1B7v160006Ev, symObjAddr: 0xE728, symBinAddr: 0x10001A9F4, symSize: 0x2C }
  - { offsetInCU: 0x1EE87, offset: 0x444C2, size: 0x8, addend: 0x0, symName: __ZNSt3__128__exception_guard_exceptionsINS_29_AllocatorDestroyRangeReverseINS_9allocatorI5ErrorEEPS3_EEEC1B7v160006ES6_, symObjAddr: 0xE754, symBinAddr: 0x10001AA20, symSize: 0x34 }
  - { offsetInCU: 0x1EEBE, offset: 0x444F9, size: 0x8, addend: 0x0, symName: __ZNSt3__128__exception_guard_exceptionsINS_29_AllocatorDestroyRangeReverseINS_9allocatorI5ErrorEEPS3_EEEC2B7v160006ES6_, symObjAddr: 0xE788, symBinAddr: 0x10001AA54, symSize: 0x30 }
  - { offsetInCU: 0x1EEF6, offset: 0x44531, size: 0x8, addend: 0x0, symName: __ZNSt3__129_AllocatorDestroyRangeReverseINS_9allocatorI5ErrorEEPS2_EC2B7v160006ERS3_RS4_S7_, symObjAddr: 0xE7B8, symBinAddr: 0x10001AA84, symSize: 0x38 }
  - { offsetInCU: 0x1EF4C, offset: 0x44587, size: 0x8, addend: 0x0, symName: __ZNSt3__19allocatorI5ErrorE9constructB7v160006IS1_JRS1_EEEvPT_DpOT0_, symObjAddr: 0xE7F0, symBinAddr: 0x10001AABC, symSize: 0x30 }
  - { offsetInCU: 0x1EFA1, offset: 0x445DC, size: 0x8, addend: 0x0, symName: __ZN5ErrorC1ERKS_, symObjAddr: 0xE820, symBinAddr: 0x10001AAEC, symSize: 0x34 }
  - { offsetInCU: 0x1EFD5, offset: 0x44610, size: 0x8, addend: 0x0, symName: __ZN5ErrorC2ERKS_, symObjAddr: 0xE854, symBinAddr: 0x10001AB20, symSize: 0xB4 }
  - { offsetInCU: 0x1F009, offset: 0x44644, size: 0x8, addend: 0x0, symName: __ZNSt3__128__exception_guard_exceptionsINS_29_AllocatorDestroyRangeReverseINS_9allocatorI5ErrorEEPS3_EEED2B7v160006Ev, symObjAddr: 0xE908, symBinAddr: 0x10001ABD4, symSize: 0x50 }
  - { offsetInCU: 0x1F031, offset: 0x4466C, size: 0x8, addend: 0x0, symName: __ZNKSt3__129_AllocatorDestroyRangeReverseINS_9allocatorI5ErrorEEPS2_EclB7v160006Ev, symObjAddr: 0xE958, symBinAddr: 0x10001AC24, symSize: 0x68 }
  - { offsetInCU: 0x1F056, offset: 0x44691, size: 0x8, addend: 0x0, symName: __ZNSt3__116reverse_iteratorIP5ErrorEC1B7v160006ES2_, symObjAddr: 0xEA30, symBinAddr: 0x10001ACFC, symSize: 0x34 }
  - { offsetInCU: 0x1F08C, offset: 0x446C7, size: 0x8, addend: 0x0, symName: __ZNSt3__116reverse_iteratorIP5ErrorEppB7v160006Ev, symObjAddr: 0xEAFC, symBinAddr: 0x10001AD9C, symSize: 0x20 }
  - { offsetInCU: 0x1F0B1, offset: 0x446EC, size: 0x8, addend: 0x0, symName: __ZNKSt3__116reverse_iteratorIP5ErrorE4baseB7v160006Ev, symObjAddr: 0xEB1C, symBinAddr: 0x10001ADBC, symSize: 0x18 }
  - { offsetInCU: 0x1F0DB, offset: 0x44716, size: 0x8, addend: 0x0, symName: __ZNSt3__119__to_address_helperINS_16reverse_iteratorIP5ErrorEEvE6__callB7v160006ERKS4_, symObjAddr: 0xEBCC, symBinAddr: 0x10001ADD4, symSize: 0x38 }
  - { offsetInCU: 0x1F0FE, offset: 0x44739, size: 0x8, addend: 0x0, symName: __ZNKSt3__116reverse_iteratorIP5ErrorEptB7v160006Ev, symObjAddr: 0xEC04, symBinAddr: 0x10001AE0C, symSize: 0x24 }
  - { offsetInCU: 0x1F123, offset: 0x4475E, size: 0x8, addend: 0x0, symName: __ZNKSt3__116reverse_iteratorIP5ErrorEdeB7v160006Ev, symObjAddr: 0xEC28, symBinAddr: 0x10001AE30, symSize: 0x28 }
  - { offsetInCU: 0x1F156, offset: 0x44791, size: 0x8, addend: 0x0, symName: __ZNSt3__116reverse_iteratorIP5ErrorEC2B7v160006ES2_, symObjAddr: 0xEC50, symBinAddr: 0x10001AE58, symSize: 0x28 }
  - { offsetInCU: 0x1F18D, offset: 0x447C8, size: 0x8, addend: 0x0, symName: __ZNSt3__16vectorI5ErrorNS_9allocatorIS1_EEE21_ConstructTransactionD2B7v160006Ev, symObjAddr: 0xECB0, symBinAddr: 0x10001AE80, symSize: 0x20 }
  - { offsetInCU: 0x1F1B6, offset: 0x447F1, size: 0x8, addend: 0x0, symName: __ZNSt3__16vectorI5ErrorNS_9allocatorIS1_EEE27__invalidate_iterators_pastB7v160006EPS1_, symObjAddr: 0xECD0, symBinAddr: 0x10001AEA0, symSize: 0x14 }
  - { offsetInCU: 0x1F1EC, offset: 0x44827, size: 0x8, addend: 0x0, symName: __ZNKSt3__16vectorI5ErrorNS_9allocatorIS1_EEE17__annotate_shrinkB7v160006Em, symObjAddr: 0xED70, symBinAddr: 0x10001AEB4, symSize: 0xD0 }
  - { offsetInCU: 0x1F220, offset: 0x4485B, size: 0x8, addend: 0x0, symName: __ZNSt3__16vectorI5ErrorNS_9allocatorIS1_EEE5clearB7v160006Ev, symObjAddr: 0xEE88, symBinAddr: 0x10001AF84, symSize: 0x54 }
  - { offsetInCU: 0x1F254, offset: 0x4488F, size: 0x8, addend: 0x0, symName: __ZNSt3__16vectorI5ErrorNS_9allocatorIS1_EEE9__end_capB7v160006Ev, symObjAddr: 0xEF10, symBinAddr: 0x10001AFD8, symSize: 0x28 }
  - { offsetInCU: 0x1F279, offset: 0x448B4, size: 0x8, addend: 0x0, symName: __ZNSt3__117__compressed_pairIP5ErrorNS_9allocatorIS1_EEE5firstB7v160006Ev, symObjAddr: 0xEFA4, symBinAddr: 0x10001B000, symSize: 0x24 }
  - { offsetInCU: 0x1F29E, offset: 0x448D9, size: 0x8, addend: 0x0, symName: __ZNSt3__122__compressed_pair_elemIP5ErrorLi0ELb0EE5__getB7v160006Ev, symObjAddr: 0xEFC8, symBinAddr: 0x10001B024, symSize: 0x14 }
  - { offsetInCU: 0x1F2C3, offset: 0x448FE, size: 0x8, addend: 0x0, symName: __ZNKSt3__16vectorI5ErrorNS_9allocatorIS1_EEE8max_sizeEv, symObjAddr: 0xEFDC, symBinAddr: 0x10001B038, symSize: 0x60 }
  - { offsetInCU: 0x1F2EA, offset: 0x44925, size: 0x8, addend: 0x0, symName: __ZNKSt3__16vectorI5ErrorNS_9allocatorIS1_EEE20__throw_length_errorB7v160006Ev, symObjAddr: 0xF03C, symBinAddr: 0x10001B098, symSize: 0x1C }
  - { offsetInCU: 0x1F30F, offset: 0x4494A, size: 0x8, addend: 0x0, symName: __ZNKSt3__16vectorI5ErrorNS_9allocatorIS1_EEE14__annotate_newB7v160006Em, symObjAddr: 0xF098, symBinAddr: 0x10001B0F4, symSize: 0xC8 }
  - { offsetInCU: 0x1F34D, offset: 0x44988, size: 0x8, addend: 0x0, symName: __ZNSt3__116allocator_traitsINS_9allocatorI5ErrorEEE8max_sizeB7v160006IS3_vEEmRKS3_, symObjAddr: 0xF160, symBinAddr: 0x10001B1BC, symSize: 0x24 }
  - { offsetInCU: 0x1F37B, offset: 0x449B6, size: 0x8, addend: 0x0, symName: __ZNKSt3__16vectorI5ErrorNS_9allocatorIS1_EEE7__allocB7v160006Ev, symObjAddr: 0xF184, symBinAddr: 0x10001B1E0, symSize: 0x28 }
  - { offsetInCU: 0x1F3A0, offset: 0x449DB, size: 0x8, addend: 0x0, symName: __ZNKSt3__19allocatorI5ErrorE8max_sizeB7v160006Ev, symObjAddr: 0xF1AC, symBinAddr: 0x10001B208, symSize: 0x18 }
  - { offsetInCU: 0x1F3C5, offset: 0x44A00, size: 0x8, addend: 0x0, symName: __ZNKSt3__117__compressed_pairIP5ErrorNS_9allocatorIS1_EEE6secondB7v160006Ev, symObjAddr: 0xF1C4, symBinAddr: 0x10001B220, symSize: 0x24 }
  - { offsetInCU: 0x1F3EA, offset: 0x44A25, size: 0x8, addend: 0x0, symName: __ZNKSt3__122__compressed_pair_elemINS_9allocatorI5ErrorEELi1ELb1EE5__getB7v160006Ev, symObjAddr: 0xF1E8, symBinAddr: 0x10001B244, symSize: 0x14 }
  - { offsetInCU: 0x1F40F, offset: 0x44A4A, size: 0x8, addend: 0x0, symName: __ZNSt3__19allocatorI5ErrorE8allocateB7v160006Em, symObjAddr: 0xF1FC, symBinAddr: 0x10001B258, symSize: 0x5C }
  - { offsetInCU: 0x1F442, offset: 0x44A7D, size: 0x8, addend: 0x0, symName: __ZNSt3__16__treeINS_12__value_typeINS_12basic_stringIcNS_11char_traitsIcEENS_9allocatorIcEEEENS_6vectorI5ErrorNS5_IS9_EEEEEENS_19__map_value_compareIS7_SC_NS_4lessIS7_EELb1EEENS5_ISC_EEE16__find_leaf_highERPNS_15__tree_end_nodeIPNS_16__tree_node_baseIPvEEEERKS7_, symObjAddr: 0xF258, symBinAddr: 0x10001B2B4, symSize: 0x124 }
  - { offsetInCU: 0x1F496, offset: 0x44AD1, size: 0x8, addend: 0x0, symName: __ZNSt3__122__tree_key_value_typesINS_12__value_typeINS_12basic_stringIcNS_11char_traitsIcEENS_9allocatorIcEEEENS_6vectorI5ErrorNS5_IS9_EEEEEEE9__get_keyB7v160006ERKSC_, symObjAddr: 0xF37C, symBinAddr: 0x10001B3D8, symSize: 0x24 }
  - { offsetInCU: 0x1F4BA, offset: 0x44AF5, size: 0x8, addend: 0x0, symName: __ZNSt3__16__treeINS_12__value_typeINS_12basic_stringIcNS_11char_traitsIcEENS_9allocatorIcEEEENS_6vectorI5ErrorNS5_IS9_EEEEEENS_19__map_value_compareIS7_SC_NS_4lessIS7_EELb1EEENS5_ISC_EEE16__insert_node_atEPNS_15__tree_end_nodeIPNS_16__tree_node_baseIPvEEEERSN_SN_, symObjAddr: 0xF3A0, symBinAddr: 0x10001B3FC, symSize: 0xCC }
  - { offsetInCU: 0x1F50E, offset: 0x44B49, size: 0x8, addend: 0x0, symName: __ZNSt3__115__tree_iteratorINS_12__value_typeINS_12basic_stringIcNS_11char_traitsIcEENS_9allocatorIcEEEENS_6vectorI5ErrorNS5_IS9_EEEEEEPNS_11__tree_nodeISC_PvEElEC1B7v160006ESG_, symObjAddr: 0xF46C, symBinAddr: 0x10001B4C8, symSize: 0x34 }
  - { offsetInCU: 0x1F545, offset: 0x44B80, size: 0x8, addend: 0x0, symName: __ZNKSt3__119__map_value_compareINS_12basic_stringIcNS_11char_traitsIcEENS_9allocatorIcEEEENS_12__value_typeIS6_NS_6vectorI5ErrorNS4_IS9_EEEEEENS_4lessIS6_EELb1EEclB7v160006ERKS6_RKSC_, symObjAddr: 0xF4C8, symBinAddr: 0x10001B4FC, symSize: 0x50 }
  - { offsetInCU: 0x1F588, offset: 0x44BC3, size: 0x8, addend: 0x0, symName: __ZNKSt3__14lessINS_12basic_stringIcNS_11char_traitsIcEENS_9allocatorIcEEEEEclB7v160006ERKS6_S9_, symObjAddr: 0xF57C, symBinAddr: 0x10001B54C, symSize: 0x34 }
  - { offsetInCU: 0x1F5CB, offset: 0x44C06, size: 0x8, addend: 0x0, symName: __ZNKSt3__112basic_stringIcNS_11char_traitsIcEENS_9allocatorIcEEE7compareB7v160006ERKS5_, symObjAddr: 0xF5E8, symBinAddr: 0x10001B5B8, symSize: 0x4C }
  - { offsetInCU: 0x1F601, offset: 0x44C3C, size: 0x8, addend: 0x0, symName: __ZNKSt3__112basic_stringIcNS_11char_traitsIcEENS_9allocatorIcEEE7compareINS_17basic_string_viewIcS2_EEEENS_9enable_ifIXsr33__can_be_converted_to_string_viewIcS2_T_EE5valueEiE4typeERKSA_, symObjAddr: 0xF634, symBinAddr: 0x10001B604, symSize: 0x12C }
  - { offsetInCU: 0x1F67D, offset: 0x44CB8, size: 0x8, addend: 0x0, symName: __ZNKSt3__112basic_stringIcNS_11char_traitsIcEENS_9allocatorIcEEEcvNS_17basic_string_viewIcS2_EEB7v160006Ev, symObjAddr: 0xF760, symBinAddr: 0x10001B730, symSize: 0x50 }
  - { offsetInCU: 0x1F6A2, offset: 0x44CDD, size: 0x8, addend: 0x0, symName: __ZNKSt3__117basic_string_viewIcNS_11char_traitsIcEEE4sizeB7v160006Ev, symObjAddr: 0xF7B0, symBinAddr: 0x10001B780, symSize: 0x18 }
  - { offsetInCU: 0x1F6C7, offset: 0x44D02, size: 0x8, addend: 0x0, symName: __ZNSt3__111char_traitsIcE7compareEPKcS3_m, symObjAddr: 0xF7C8, symBinAddr: 0x10001B798, symSize: 0x6C }
  - { offsetInCU: 0x1F706, offset: 0x44D41, size: 0x8, addend: 0x0, symName: __ZNKSt3__117basic_string_viewIcNS_11char_traitsIcEEE4dataB7v160006Ev, symObjAddr: 0xF85C, symBinAddr: 0x10001B804, symSize: 0x18 }
  - { offsetInCU: 0x1F72B, offset: 0x44D66, size: 0x8, addend: 0x0, symName: __ZNSt3__117basic_string_viewIcNS_11char_traitsIcEEEC1B7v160006EPKcm, symObjAddr: 0xF974, symBinAddr: 0x10001B850, symSize: 0x3C }
  - { offsetInCU: 0x1F771, offset: 0x44DAC, size: 0x8, addend: 0x0, symName: __ZNSt3__117basic_string_viewIcNS_11char_traitsIcEEEC2B7v160006EPKcm, symObjAddr: 0xF9B0, symBinAddr: 0x10001B88C, symSize: 0x50 }
  - { offsetInCU: 0x1F7B8, offset: 0x44DF3, size: 0x8, addend: 0x0, symName: __ZNSt3__116__tree_node_baseIPvE12__set_parentB7v160006EPS2_, symObjAddr: 0xFF14, symBinAddr: 0x10001BDAC, symSize: 0x20 }
  - { offsetInCU: 0x1F7EC, offset: 0x44E27, size: 0x8, addend: 0x0, symName: __ZNSt3__115__tree_iteratorINS_12__value_typeINS_12basic_stringIcNS_11char_traitsIcEENS_9allocatorIcEEEENS_6vectorI5ErrorNS5_IS9_EEEEEEPNS_11__tree_nodeISC_PvEElEC2B7v160006ESG_, symObjAddr: 0xFF34, symBinAddr: 0x10001BDCC, symSize: 0x20 }
  - { offsetInCU: 0x1F824, offset: 0x44E5F, size: 0x8, addend: 0x0, symName: __ZNSt3__16__treeINS_12__value_typeINS_12basic_stringIcNS_11char_traitsIcEENS_9allocatorIcEEEENS_6vectorI5ErrorNS5_IS9_EEEEEENS_19__map_value_compareIS7_SC_NS_4lessIS7_EELb1EEENS5_ISC_EEE18_DetachedTreeCache13__detach_nextEPNS_11__tree_nodeISC_PvEE, symObjAddr: 0xFF54, symBinAddr: 0x10001BDEC, symSize: 0xF0 }
  - { offsetInCU: 0x1F84A, offset: 0x44E85, size: 0x8, addend: 0x0, symName: __ZNSt3__16__treeINS_12__value_typeINS_12basic_stringIcNS_11char_traitsIcEENS_9allocatorIcEEEENS_6vectorI5ErrorNS5_IS9_EEEEEENS_19__map_value_compareIS7_SC_NS_4lessIS7_EELb1EEENS5_ISC_EEE18_DetachedTreeCacheD2B7v160006Ev, symObjAddr: 0x10174, symBinAddr: 0x10001BF4C, symSize: 0x9C }
  - { offsetInCU: 0x1F872, offset: 0x44EAD, size: 0x8, addend: 0x0, symName: __ZNSt3__16__treeINS_12__value_typeINS_12basic_stringIcNS_11char_traitsIcEENS_9allocatorIcEEEENS_6vectorI5ErrorNS5_IS9_EEEEEENS_19__map_value_compareIS7_SC_NS_4lessIS7_EELb1EEENS5_ISC_EEE15__emplace_multiIJRKNS_4pairIKS7_SB_EEEEENS_15__tree_iteratorISC_PNS_11__tree_nodeISC_PvEElEEDpOT_, symObjAddr: 0x10688, symBinAddr: 0x10001BFE8, symSize: 0xD8 }
  - { offsetInCU: 0x1F8E1, offset: 0x44F1C, size: 0x8, addend: 0x0, symName: __ZNSt3__16__treeINS_12__value_typeINS_12basic_stringIcNS_11char_traitsIcEENS_9allocatorIcEEEENS_6vectorI5ErrorNS5_IS9_EEEEEENS_19__map_value_compareIS7_SC_NS_4lessIS7_EELb1EEENS5_ISC_EEE16__construct_nodeIJRKNS_4pairIKS7_SB_EEEEENS_10unique_ptrINS_11__tree_nodeISC_PvEENS_22__tree_node_destructorINS5_ISS_EEEEEEDpOT_, symObjAddr: 0x10760, symBinAddr: 0x10001C0C0, symSize: 0x108 }
  - { offsetInCU: 0x1F941, offset: 0x44F7C, size: 0x8, addend: 0x0, symName: __ZNKSt3__110unique_ptrINS_11__tree_nodeINS_12__value_typeINS_12basic_stringIcNS_11char_traitsIcEENS_9allocatorIcEEEENS_6vectorI5ErrorNS6_ISA_EEEEEEPvEENS_22__tree_node_destructorINS6_ISF_EEEEEptB7v160006Ev, symObjAddr: 0x10868, symBinAddr: 0x10001C1C8, symSize: 0x28 }
  - { offsetInCU: 0x1F966, offset: 0x44FA1, size: 0x8, addend: 0x0, symName: __ZNKSt3__110unique_ptrINS_11__tree_nodeINS_12__value_typeINS_12basic_stringIcNS_11char_traitsIcEENS_9allocatorIcEEEENS_6vectorI5ErrorNS6_ISA_EEEEEEPvEENS_22__tree_node_destructorINS6_ISF_EEEEE3getB7v160006Ev, symObjAddr: 0x10890, symBinAddr: 0x10001C1F0, symSize: 0x28 }
  - { offsetInCU: 0x1F98B, offset: 0x44FC6, size: 0x8, addend: 0x0, symName: __ZNSt3__110unique_ptrINS_11__tree_nodeINS_12__value_typeINS_12basic_stringIcNS_11char_traitsIcEENS_9allocatorIcEEEENS_6vectorI5ErrorNS6_ISA_EEEEEEPvEENS_22__tree_node_destructorINS6_ISF_EEEEE7releaseB7v160006Ev, symObjAddr: 0x108B8, symBinAddr: 0x10001C218, symSize: 0x44 }
  - { offsetInCU: 0x1F9BF, offset: 0x44FFA, size: 0x8, addend: 0x0, symName: __ZNSt3__110unique_ptrINS_11__tree_nodeINS_12__value_typeINS_12basic_stringIcNS_11char_traitsIcEENS_9allocatorIcEEEENS_6vectorI5ErrorNS6_ISA_EEEEEEPvEENS_22__tree_node_destructorINS6_ISF_EEEEED1B7v160006Ev, symObjAddr: 0x108FC, symBinAddr: 0x10001C25C, symSize: 0x2C }
  - { offsetInCU: 0x1F9E7, offset: 0x45022, size: 0x8, addend: 0x0, symName: __ZNSt3__116allocator_traitsINS_9allocatorINS_11__tree_nodeINS_12__value_typeINS_12basic_stringIcNS_11char_traitsIcEENS1_IcEEEENS_6vectorI5ErrorNS1_ISA_EEEEEEPvEEEEE8allocateB7v160006ERSG_m, symObjAddr: 0x10928, symBinAddr: 0x10001C288, symSize: 0x2C }
  - { offsetInCU: 0x1FA1A, offset: 0x45055, size: 0x8, addend: 0x0, symName: __ZNSt3__122__tree_node_destructorINS_9allocatorINS_11__tree_nodeINS_12__value_typeINS_12basic_stringIcNS_11char_traitsIcEENS1_IcEEEENS_6vectorI5ErrorNS1_ISA_EEEEEEPvEEEEEC1B7v160006ERSG_b, symObjAddr: 0x10954, symBinAddr: 0x10001C2B4, symSize: 0x48 }
  - { offsetInCU: 0x1FA65, offset: 0x450A0, size: 0x8, addend: 0x0, symName: __ZNSt3__110unique_ptrINS_11__tree_nodeINS_12__value_typeINS_12basic_stringIcNS_11char_traitsIcEENS_9allocatorIcEEEENS_6vectorI5ErrorNS6_ISA_EEEEEEPvEENS_22__tree_node_destructorINS6_ISF_EEEEEC1B7v160006ILb1EvEEPSF_NS_16__dependent_typeINS_27__unique_ptr_deleter_sfinaeISI_EEXT_EE20__good_rval_ref_typeE, symObjAddr: 0x1099C, symBinAddr: 0x10001C2FC, symSize: 0x3C }
  - { offsetInCU: 0x1FAB4, offset: 0x450EF, size: 0x8, addend: 0x0, symName: __ZNSt3__116allocator_traitsINS_9allocatorINS_11__tree_nodeINS_12__value_typeINS_12basic_stringIcNS_11char_traitsIcEENS1_IcEEEENS_6vectorI5ErrorNS1_ISA_EEEEEEPvEEEEE9constructB7v160006INS_4pairIKS8_SC_EEJRKSL_EvEEvRSG_PT_DpOT0_, symObjAddr: 0x109D8, symBinAddr: 0x10001C338, symSize: 0x34 }
  - { offsetInCU: 0x1FB0B, offset: 0x45146, size: 0x8, addend: 0x0, symName: __ZNSt3__110unique_ptrINS_11__tree_nodeINS_12__value_typeINS_12basic_stringIcNS_11char_traitsIcEENS_9allocatorIcEEEENS_6vectorI5ErrorNS6_ISA_EEEEEEPvEENS_22__tree_node_destructorINS6_ISF_EEEEE11get_deleterB7v160006Ev, symObjAddr: 0x10A0C, symBinAddr: 0x10001C36C, symSize: 0x24 }
  - { offsetInCU: 0x1FB30, offset: 0x4516B, size: 0x8, addend: 0x0, symName: __ZNSt3__19allocatorINS_11__tree_nodeINS_12__value_typeINS_12basic_stringIcNS_11char_traitsIcEENS0_IcEEEENS_6vectorI5ErrorNS0_IS9_EEEEEEPvEEE8allocateB7v160006Em, symObjAddr: 0x10A30, symBinAddr: 0x10001C390, symSize: 0x5C }
  - { offsetInCU: 0x1FB6D, offset: 0x451A8, size: 0x8, addend: 0x0, symName: __ZNSt3__116allocator_traitsINS_9allocatorINS_11__tree_nodeINS_12__value_typeINS_12basic_stringIcNS_11char_traitsIcEENS1_IcEEEENS_6vectorI5ErrorNS1_ISA_EEEEEEPvEEEEE8max_sizeB7v160006ISG_vEEmRKSG_, symObjAddr: 0x10A8C, symBinAddr: 0x10001C3EC, symSize: 0x24 }
  - { offsetInCU: 0x1FB9B, offset: 0x451D6, size: 0x8, addend: 0x0, symName: __ZNKSt3__19allocatorINS_11__tree_nodeINS_12__value_typeINS_12basic_stringIcNS_11char_traitsIcEENS0_IcEEEENS_6vectorI5ErrorNS0_IS9_EEEEEEPvEEE8max_sizeB7v160006Ev, symObjAddr: 0x10AB0, symBinAddr: 0x10001C410, symSize: 0x18 }
  - { offsetInCU: 0x1FBC0, offset: 0x451FB, size: 0x8, addend: 0x0, symName: __ZNSt3__122__tree_node_destructorINS_9allocatorINS_11__tree_nodeINS_12__value_typeINS_12basic_stringIcNS_11char_traitsIcEENS1_IcEEEENS_6vectorI5ErrorNS1_ISA_EEEEEEPvEEEEEC2B7v160006ERSG_b, symObjAddr: 0x10AC8, symBinAddr: 0x10001C428, symSize: 0x38 }
  - { offsetInCU: 0x1FC07, offset: 0x45242, size: 0x8, addend: 0x0, symName: __ZNSt3__110unique_ptrINS_11__tree_nodeINS_12__value_typeINS_12basic_stringIcNS_11char_traitsIcEENS_9allocatorIcEEEENS_6vectorI5ErrorNS6_ISA_EEEEEEPvEENS_22__tree_node_destructorINS6_ISF_EEEEEC2B7v160006ILb1EvEEPSF_NS_16__dependent_typeINS_27__unique_ptr_deleter_sfinaeISI_EEXT_EE20__good_rval_ref_typeE, symObjAddr: 0x10B00, symBinAddr: 0x10001C460, symSize: 0x48 }
  - { offsetInCU: 0x1FC56, offset: 0x45291, size: 0x8, addend: 0x0, symName: __ZNSt3__117__compressed_pairIPNS_11__tree_nodeINS_12__value_typeINS_12basic_stringIcNS_11char_traitsIcEENS_9allocatorIcEEEENS_6vectorI5ErrorNS6_ISA_EEEEEEPvEENS_22__tree_node_destructorINS6_ISF_EEEEEC1B7v160006IRSG_SJ_EEOT_OT0_, symObjAddr: 0x10B48, symBinAddr: 0x10001C4A8, symSize: 0x3C }
  - { offsetInCU: 0x1FCAC, offset: 0x452E7, size: 0x8, addend: 0x0, symName: __ZNSt3__117__compressed_pairIPNS_11__tree_nodeINS_12__value_typeINS_12basic_stringIcNS_11char_traitsIcEENS_9allocatorIcEEEENS_6vectorI5ErrorNS6_ISA_EEEEEEPvEENS_22__tree_node_destructorINS6_ISF_EEEEEC2B7v160006IRSG_SJ_EEOT_OT0_, symObjAddr: 0x10B84, symBinAddr: 0x10001C4E4, symSize: 0x48 }
  - { offsetInCU: 0x1FD02, offset: 0x4533D, size: 0x8, addend: 0x0, symName: __ZNSt3__122__compressed_pair_elemIPNS_11__tree_nodeINS_12__value_typeINS_12basic_stringIcNS_11char_traitsIcEENS_9allocatorIcEEEENS_6vectorI5ErrorNS6_ISA_EEEEEEPvEELi0ELb0EEC2B7v160006IRSG_vEEOT_, symObjAddr: 0x10BCC, symBinAddr: 0x10001C52C, symSize: 0x24 }
  - { offsetInCU: 0x1FD43, offset: 0x4537E, size: 0x8, addend: 0x0, symName: __ZNSt3__122__compressed_pair_elemINS_22__tree_node_destructorINS_9allocatorINS_11__tree_nodeINS_12__value_typeINS_12basic_stringIcNS_11char_traitsIcEENS2_IcEEEENS_6vectorI5ErrorNS2_ISB_EEEEEEPvEEEEEELi1ELb0EEC2B7v160006ISI_vEEOT_, symObjAddr: 0x10BF0, symBinAddr: 0x10001C550, symSize: 0x24 }
  - { offsetInCU: 0x1FD84, offset: 0x453BF, size: 0x8, addend: 0x0, symName: __ZNSt3__19allocatorINS_11__tree_nodeINS_12__value_typeINS_12basic_stringIcNS_11char_traitsIcEENS0_IcEEEENS_6vectorI5ErrorNS0_IS9_EEEEEEPvEEE9constructB7v160006INS_4pairIKS7_SB_EEJRKSJ_EEEvPT_DpOT0_, symObjAddr: 0x10C14, symBinAddr: 0x10001C574, symSize: 0x30 }
  - { offsetInCU: 0x1FDD9, offset: 0x45414, size: 0x8, addend: 0x0, symName: __ZNSt3__14pairIKNS_12basic_stringIcNS_11char_traitsIcEENS_9allocatorIcEEEENS_6vectorI5ErrorNS4_IS9_EEEEEC1ERKSC_, symObjAddr: 0x10C44, symBinAddr: 0x10001C5A4, symSize: 0x34 }
  - { offsetInCU: 0x1FE0C, offset: 0x45447, size: 0x8, addend: 0x0, symName: __ZNSt3__14pairIKNS_12basic_stringIcNS_11char_traitsIcEENS_9allocatorIcEEEENS_6vectorI5ErrorNS4_IS9_EEEEEC2ERKSC_, symObjAddr: 0x10C78, symBinAddr: 0x10001C5D8, symSize: 0x70 }
  - { offsetInCU: 0x1FE3F, offset: 0x4547A, size: 0x8, addend: 0x0, symName: __ZNSt3__16vectorI5ErrorNS_9allocatorIS1_EEEC1ERKS4_, symObjAddr: 0x10CE8, symBinAddr: 0x10001C648, symSize: 0x34 }
  - { offsetInCU: 0x1FE79, offset: 0x454B4, size: 0x8, addend: 0x0, symName: __ZNSt3__16vectorI5ErrorNS_9allocatorIS1_EEEC2ERKS4_, symObjAddr: 0x10D1C, symBinAddr: 0x10001C67C, symSize: 0x110 }
  - { offsetInCU: 0x1FED7, offset: 0x45512, size: 0x8, addend: 0x0, symName: __ZNSt3__116allocator_traitsINS_9allocatorI5ErrorEEE37select_on_container_copy_constructionB7v160006IS3_vvEES3_RKS3_, symObjAddr: 0x10E2C, symBinAddr: 0x10001C78C, symSize: 0x10 }
  - { offsetInCU: 0x1FF0B, offset: 0x45546, size: 0x8, addend: 0x0, symName: __ZNSt3__117__compressed_pairIP5ErrorNS_9allocatorIS1_EEEC1B7v160006IDnS4_EEOT_OT0_, symObjAddr: 0x10E3C, symBinAddr: 0x10001C79C, symSize: 0x3C }
  - { offsetInCU: 0x1FF61, offset: 0x4559C, size: 0x8, addend: 0x0, symName: __ZNSt3__128__exception_guard_exceptionsINS_6vectorI5ErrorNS_9allocatorIS2_EEE16__destroy_vectorEE10__completeB7v160006Ev, symObjAddr: 0x10EB8, symBinAddr: 0x10001C818, symSize: 0x1C }
  - { offsetInCU: 0x1FF86, offset: 0x455C1, size: 0x8, addend: 0x0, symName: __ZNSt3__128__exception_guard_exceptionsINS_6vectorI5ErrorNS_9allocatorIS2_EEE16__destroy_vectorEED1B7v160006Ev, symObjAddr: 0x10ED4, symBinAddr: 0x10001C834, symSize: 0x2C }
  - { offsetInCU: 0x1FFAE, offset: 0x455E9, size: 0x8, addend: 0x0, symName: __ZNSt3__117__compressed_pairIP5ErrorNS_9allocatorIS1_EEEC2B7v160006IDnS4_EEOT_OT0_, symObjAddr: 0x10F00, symBinAddr: 0x10001C860, symSize: 0x44 }
  - { offsetInCU: 0x20004, offset: 0x4563F, size: 0x8, addend: 0x0, symName: __ZNSt3__122__compressed_pair_elemINS_9allocatorI5ErrorEELi1ELb1EEC2B7v160006IS3_vEEOT_, symObjAddr: 0x10F44, symBinAddr: 0x10001C8A4, symSize: 0x18 }
  - { offsetInCU: 0x20045, offset: 0x45680, size: 0x8, addend: 0x0, symName: __ZNSt3__128__exception_guard_exceptionsINS_6vectorI5ErrorNS_9allocatorIS2_EEE16__destroy_vectorEEC1B7v160006ES6_, symObjAddr: 0x10F5C, symBinAddr: 0x10001C8BC, symSize: 0x34 }
  - { offsetInCU: 0x2007B, offset: 0x456B6, size: 0x8, addend: 0x0, symName: __ZNSt3__128__exception_guard_exceptionsINS_6vectorI5ErrorNS_9allocatorIS2_EEE16__destroy_vectorEEC2B7v160006ES6_, symObjAddr: 0x10F90, symBinAddr: 0x10001C8F0, symSize: 0x24 }
  - { offsetInCU: 0x200B2, offset: 0x456ED, size: 0x8, addend: 0x0, symName: __ZNSt3__128__exception_guard_exceptionsINS_6vectorI5ErrorNS_9allocatorIS2_EEE16__destroy_vectorEED2B7v160006Ev, symObjAddr: 0x10FB4, symBinAddr: 0x10001C914, symSize: 0x50 }
  - { offsetInCU: 0x200DA, offset: 0x45715, size: 0x8, addend: 0x0, symName: __ZNSt3__117__compressed_pairIPNS_11__tree_nodeINS_12__value_typeINS_12basic_stringIcNS_11char_traitsIcEENS_9allocatorIcEEEENS_6vectorI5ErrorNS6_ISA_EEEEEEPvEENS_22__tree_node_destructorINS6_ISF_EEEEE6secondB7v160006Ev, symObjAddr: 0x11004, symBinAddr: 0x10001C964, symSize: 0x28 }
  - { offsetInCU: 0x200FF, offset: 0x4573A, size: 0x8, addend: 0x0, symName: __ZNSt3__122__compressed_pair_elemINS_22__tree_node_destructorINS_9allocatorINS_11__tree_nodeINS_12__value_typeINS_12basic_stringIcNS_11char_traitsIcEENS2_IcEEEENS_6vectorI5ErrorNS2_ISB_EEEEEEPvEEEEEELi1ELb0EE5__getB7v160006Ev, symObjAddr: 0x1102C, symBinAddr: 0x10001C98C, symSize: 0x14 }
  - { offsetInCU: 0x20124, offset: 0x4575F, size: 0x8, addend: 0x0, symName: __ZNKSt3__117__compressed_pairIPNS_11__tree_nodeINS_12__value_typeINS_12basic_stringIcNS_11char_traitsIcEENS_9allocatorIcEEEENS_6vectorI5ErrorNS6_ISA_EEEEEEPvEENS_22__tree_node_destructorINS6_ISF_EEEEE5firstB7v160006Ev, symObjAddr: 0x11040, symBinAddr: 0x10001C9A0, symSize: 0x24 }
  - { offsetInCU: 0x20149, offset: 0x45784, size: 0x8, addend: 0x0, symName: __ZNKSt3__122__compressed_pair_elemIPNS_11__tree_nodeINS_12__value_typeINS_12basic_stringIcNS_11char_traitsIcEENS_9allocatorIcEEEENS_6vectorI5ErrorNS6_ISA_EEEEEEPvEELi0ELb0EE5__getB7v160006Ev, symObjAddr: 0x11064, symBinAddr: 0x10001C9C4, symSize: 0x14 }
  - { offsetInCU: 0x2016E, offset: 0x457A9, size: 0x8, addend: 0x0, symName: __ZNSt3__117__compressed_pairIPNS_11__tree_nodeINS_12__value_typeINS_12basic_stringIcNS_11char_traitsIcEENS_9allocatorIcEEEENS_6vectorI5ErrorNS6_ISA_EEEEEEPvEENS_22__tree_node_destructorINS6_ISF_EEEEE5firstB7v160006Ev, symObjAddr: 0x11078, symBinAddr: 0x10001C9D8, symSize: 0x24 }
  - { offsetInCU: 0x20193, offset: 0x457CE, size: 0x8, addend: 0x0, symName: __ZNSt3__122__compressed_pair_elemIPNS_11__tree_nodeINS_12__value_typeINS_12basic_stringIcNS_11char_traitsIcEENS_9allocatorIcEEEENS_6vectorI5ErrorNS6_ISA_EEEEEEPvEELi0ELb0EE5__getB7v160006Ev, symObjAddr: 0x1109C, symBinAddr: 0x10001C9FC, symSize: 0x14 }
  - { offsetInCU: 0x201B8, offset: 0x457F3, size: 0x8, addend: 0x0, symName: __ZNSt3__110unique_ptrINS_11__tree_nodeINS_12__value_typeINS_12basic_stringIcNS_11char_traitsIcEENS_9allocatorIcEEEENS_6vectorI5ErrorNS6_ISA_EEEEEEPvEENS_22__tree_node_destructorINS6_ISF_EEEEED2B7v160006Ev, symObjAddr: 0x110B0, symBinAddr: 0x10001CA10, symSize: 0x30 }
  - { offsetInCU: 0x201E0, offset: 0x4581B, size: 0x8, addend: 0x0, symName: __ZNSt3__110unique_ptrINS_11__tree_nodeINS_12__value_typeINS_12basic_stringIcNS_11char_traitsIcEENS_9allocatorIcEEEENS_6vectorI5ErrorNS6_ISA_EEEEEEPvEENS_22__tree_node_destructorINS6_ISF_EEEEE5resetB7v160006EPSF_, symObjAddr: 0x110E0, symBinAddr: 0x10001CA40, symSize: 0x78 }
  - { offsetInCU: 0x20223, offset: 0x4585E, size: 0x8, addend: 0x0, symName: __ZNSt3__122__tree_node_destructorINS_9allocatorINS_11__tree_nodeINS_12__value_typeINS_12basic_stringIcNS_11char_traitsIcEENS1_IcEEEENS_6vectorI5ErrorNS1_ISA_EEEEEEPvEEEEEclB7v160006EPSF_, symObjAddr: 0x11158, symBinAddr: 0x10001CAB8, symSize: 0x88 }
  - { offsetInCU: 0x20257, offset: 0x45892, size: 0x8, addend: 0x0, symName: __ZNKSt3__16__treeINS_12__value_typeINS_12basic_stringIcNS_11char_traitsIcEENS_9allocatorIcEEEENS_6vectorI5ErrorNS5_IS9_EEEEEENS_19__map_value_compareIS7_SC_NS_4lessIS7_EELb1EEENS5_ISC_EEE12__begin_nodeB7v160006Ev, symObjAddr: 0x111E0, symBinAddr: 0x10001CB40, symSize: 0x14 }
  - { offsetInCU: 0x2027C, offset: 0x458B7, size: 0x8, addend: 0x0, symName: __ZNSt3__121__tree_const_iteratorINS_12__value_typeINS_12basic_stringIcNS_11char_traitsIcEENS_9allocatorIcEEEENS_6vectorI5ErrorNS5_IS9_EEEEEEPNS_11__tree_nodeISC_PvEElEC1B7v160006EPNS_15__tree_end_nodeIPNS_16__tree_node_baseISE_EEEE, symObjAddr: 0x111F4, symBinAddr: 0x10001CB54, symSize: 0x34 }
  - { offsetInCU: 0x202B3, offset: 0x458EE, size: 0x8, addend: 0x0, symName: __ZNSt3__121__tree_const_iteratorINS_12__value_typeINS_12basic_stringIcNS_11char_traitsIcEENS_9allocatorIcEEEENS_6vectorI5ErrorNS5_IS9_EEEEEEPNS_11__tree_nodeISC_PvEElEC2B7v160006EPNS_15__tree_end_nodeIPNS_16__tree_node_baseISE_EEEE, symObjAddr: 0x11228, symBinAddr: 0x10001CB88, symSize: 0x20 }
  - { offsetInCU: 0x7209, offset: 0x4CDFE, size: 0x8, addend: 0x0, symName: __ZNSt3__16chronogtB7v160006IxNS_5ratioILl1ELl1000000EEExS3_EEbRKNS0_8durationIT_T0_EERKNS4_IT1_T2_EE, symObjAddr: 0x135C, symBinAddr: 0x10001DE88, symSize: 0x30 }
  - { offsetInCU: 0x726A, offset: 0x4CE5F, size: 0x8, addend: 0x0, symName: __ZNSt3__16chronoltB7v160006IxNS_5ratioILl1ELl1000000EEEeNS2_ILl1ELl1EEEEEbRKNS0_8durationIT_T0_EERKNS5_IT1_T2_EE, symObjAddr: 0x13C8, symBinAddr: 0x10001DEF4, symSize: 0x34 }
  - { offsetInCU: 0x72CB, offset: 0x4CEC0, size: 0x8, addend: 0x0, symName: __ZNSt3__16chrono13duration_castB7v160006INS0_8durationIxNS_5ratioILl1ELl1000000000EEEEExNS3_ILl1ELl1000000EEEEENS_9enable_ifIXsr13__is_durationIT_EE5valueES8_E4typeERKNS2_IT0_T1_EE, symObjAddr: 0x13FC, symBinAddr: 0x10001DF28, symSize: 0x30 }
  - { offsetInCU: 0x7312, offset: 0x4CF07, size: 0x8, addend: 0x0, symName: __ZNSt3__16chronoltB7v160006IxNS_5ratioILl1ELl1000000000EEExNS2_ILl1ELl1000000EEEEEbRKNS0_8durationIT_T0_EERKNS5_IT1_T2_EE, symObjAddr: 0x142C, symBinAddr: 0x10001DF58, symSize: 0x34 }
  - { offsetInCU: 0x7373, offset: 0x4CF68, size: 0x8, addend: 0x0, symName: __ZNSt3__16chronoltB7v160006IxNS_5ratioILl1ELl1000000EEExS3_EEbRKNS0_8durationIT_T0_EERKNS4_IT1_T2_EE, symObjAddr: 0x14BC, symBinAddr: 0x10001DFE8, symSize: 0x34 }
  - { offsetInCU: 0x7451, offset: 0x4D046, size: 0x8, addend: 0x0, symName: __ZNSt3__16chrono13duration_castB7v160006INS0_8durationIeNS_5ratioILl1ELl1000000EEEEExS4_EENS_9enable_ifIXsr13__is_durationIT_EE5valueES7_E4typeERKNS2_IT0_T1_EE, symObjAddr: 0x1710, symBinAddr: 0x10001E23C, symSize: 0x30 }
  - { offsetInCU: 0x74E3, offset: 0x4D0D8, size: 0x8, addend: 0x0, symName: __ZNSt3__16chrono13duration_castB7v160006INS0_8durationIeNS_5ratioILl1ELl1000000EEEEEeNS3_ILl1ELl1EEEEENS_9enable_ifIXsr13__is_durationIT_EE5valueES8_E4typeERKNS2_IT0_T1_EE, symObjAddr: 0x1830, symBinAddr: 0x10001E35C, symSize: 0x30 }
  - { offsetInCU: 0x92F3, offset: 0x4EEE8, size: 0x8, addend: 0x0, symName: __ZNSt3__111this_thread9sleep_forB7v160006IxNS_5ratioILl1ELl1000000EEEEEvRKNS_6chrono8durationIT_T0_EE, symObjAddr: 0x3D0, symBinAddr: 0x10001CF40, symSize: 0xBC }
  - { offsetInCU: 0x9759, offset: 0x4F34E, size: 0x8, addend: 0x0, symName: __ZNSt3__122__libcpp_thread_createB7v160006EPP17_opaque_pthread_tPFPvS3_ES3_, symObjAddr: 0x774, symBinAddr: 0x10001D2A0, symSize: 0x38 }
  - { offsetInCU: 0x97A5, offset: 0x4F39A, size: 0x8, addend: 0x0, symName: __ZNSt3__114__thread_proxyB7v160006INS_5tupleIJNS_10unique_ptrINS_15__thread_structENS_14default_deleteIS3_EEEEPFvPvEP15JobWorkerThreadEEEEES7_S7_, symObjAddr: 0x7AC, symBinAddr: 0x10001D2D8, symSize: 0x90 }
  - { offsetInCU: 0x990C, offset: 0x4F501, size: 0x8, addend: 0x0, symName: __ZNSt3__13getB7v160006ILm0EJNS_10unique_ptrINS_15__thread_structENS_14default_deleteIS2_EEEEPFvPvEP15JobWorkerThreadEEERNS_13tuple_elementIXT_ENS_5tupleIJDpT0_EEEE4typeERSF_, symObjAddr: 0xEA4, symBinAddr: 0x10001D9D0, symSize: 0x24 }
  - { offsetInCU: 0x9959, offset: 0x4F54E, size: 0x8, addend: 0x0, symName: __ZNSt3__116__thread_executeB7v160006INS_10unique_ptrINS_15__thread_structENS_14default_deleteIS2_EEEEPFvPvEJP15JobWorkerThreadEJLm2EEEEvRNS_5tupleIJT_T0_DpT1_EEENS_15__tuple_indicesIJXspT2_EEEE, symObjAddr: 0xEC8, symBinAddr: 0x10001D9F4, symSize: 0x3C }
  - { offsetInCU: 0x99B9, offset: 0x4F5AE, size: 0x8, addend: 0x0, symName: __ZNSt3__116__libcpp_tls_setB7v160006EmPv, symObjAddr: 0xF04, symBinAddr: 0x10001DA30, symSize: 0x2C }
  - { offsetInCU: 0x99F6, offset: 0x4F5EB, size: 0x8, addend: 0x0, symName: __ZNSt3__18__invokeB7v160006IPFvPvEJP15JobWorkerThreadEEEDTclclsr3stdE7declvalIT_EEspclsr3stdE7declvalIT0_EEEEOS6_DpOS7_, symObjAddr: 0xF44, symBinAddr: 0x10001DA70, symSize: 0x34 }
  - { offsetInCU: 0x9A43, offset: 0x4F638, size: 0x8, addend: 0x0, symName: __ZNSt3__13getB7v160006ILm1EJNS_10unique_ptrINS_15__thread_structENS_14default_deleteIS2_EEEEPFvPvEP15JobWorkerThreadEEERNS_13tuple_elementIXT_ENS_5tupleIJDpT0_EEEE4typeERSF_, symObjAddr: 0xF78, symBinAddr: 0x10001DAA4, symSize: 0x28 }
  - { offsetInCU: 0x9A90, offset: 0x4F685, size: 0x8, addend: 0x0, symName: __ZNSt3__13getB7v160006ILm2EJNS_10unique_ptrINS_15__thread_structENS_14default_deleteIS2_EEEEPFvPvEP15JobWorkerThreadEEERNS_13tuple_elementIXT_ENS_5tupleIJDpT0_EEEE4typeERSF_, symObjAddr: 0xFA0, symBinAddr: 0x10001DACC, symSize: 0x28 }
  - { offsetInCU: 0xA903, offset: 0x504F8, size: 0x8, addend: 0x0, symName: __ZNKSt3__16chrono13__duration_ltINS0_8durationIxNS_5ratioILl1ELl1000000EEEEENS2_IeNS3_ILl1ELl1EEEEEEclB7v160006ERKS5_RKS7_, symObjAddr: 0x15C0, symBinAddr: 0x10001E0EC, symSize: 0x78 }
  - { offsetInCU: 0xA97F, offset: 0x50574, size: 0x8, addend: 0x0, symName: __ZNKSt3__16chrono15__duration_castINS0_8durationIeNS_5ratioILl1ELl1EEEEENS2_IeNS3_ILl1ELl1000000EEEEENS3_ILl1000000ELl1EEELb0ELb1EEclB7v160006ERKS5_, symObjAddr: 0x1860, symBinAddr: 0x10001E38C, symSize: 0x4C }
  - { offsetInCU: 0xA9C7, offset: 0x505BC, size: 0x8, addend: 0x0, symName: __ZNKSt3__16chrono15__duration_castINS0_8durationIxNS_5ratioILl1ELl1000000EEEEENS2_IxNS3_ILl1ELl1000000000EEEEENS3_ILl1000ELl1EEELb0ELb1EEclB7v160006ERKS5_, symObjAddr: 0x18C4, symBinAddr: 0x10001E3F0, symSize: 0x48 }
  - { offsetInCU: 0xAA0F, offset: 0x50604, size: 0x8, addend: 0x0, symName: __ZNKSt3__16chrono13__duration_ltINS0_8durationIxNS_5ratioILl1ELl1000000000EEEEENS2_IxNS3_ILl1ELl1000000EEEEEEclB7v160006ERKS5_RKS7_, symObjAddr: 0x1970, symBinAddr: 0x10001E49C, symSize: 0x6C }
  - { offsetInCU: 0xC7DE, offset: 0x523D3, size: 0x8, addend: 0x0, symName: __ZN15JobWorkerThreadC2EPKcmP9JobSystem, symObjAddr: 0x0, symBinAddr: 0x10001CBA8, symSize: 0x5C }
  - { offsetInCU: 0xC833, offset: 0x52428, size: 0x8, addend: 0x0, symName: __ZN15JobWorkerThreadC1EPKcmP9JobSystem, symObjAddr: 0x88, symBinAddr: 0x10001CC04, symSize: 0x44 }
  - { offsetInCU: 0xC888, offset: 0x5247D, size: 0x8, addend: 0x0, symName: __ZN15JobWorkerThreadD2Ev, symObjAddr: 0xCC, symBinAddr: 0x10001CC48, symSize: 0x8C }
  - { offsetInCU: 0xC8B3, offset: 0x524A8, size: 0x8, addend: 0x0, symName: __ZN15JobWorkerThread8shutDownEv, symObjAddr: 0x158, symBinAddr: 0x10001CCD4, symSize: 0x40 }
  - { offsetInCU: 0xC8D9, offset: 0x524CE, size: 0x8, addend: 0x0, symName: __ZN15JobWorkerThreadD1Ev, symObjAddr: 0x1A4, symBinAddr: 0x10001CD14, symSize: 0x2C }
  - { offsetInCU: 0xC904, offset: 0x524F9, size: 0x8, addend: 0x0, symName: __ZN15JobWorkerThread16workerThreadMainEPv, symObjAddr: 0x1D0, symBinAddr: 0x10001CD40, symSize: 0x2C }
  - { offsetInCU: 0xC937, offset: 0x5252C, size: 0x8, addend: 0x0, symName: __ZN15JobWorkerThread4workEv, symObjAddr: 0x1FC, symBinAddr: 0x10001CD6C, symSize: 0xCC }
  - { offsetInCU: 0xC987, offset: 0x5257C, size: 0x8, addend: 0x0, symName: __ZN15JobWorkerThread7startUpEv, symObjAddr: 0x2C8, symBinAddr: 0x10001CE38, symSize: 0x7C }
  - { offsetInCU: 0xC9B7, offset: 0x525AC, size: 0x8, addend: 0x0, symName: __ZNSt3__16threadC1IRFvPvEJP15JobWorkerThreadEvEEOT_DpOT0_, symObjAddr: 0x344, symBinAddr: 0x10001CEB4, symSize: 0x3C }
  - { offsetInCU: 0xCA12, offset: 0x52607, size: 0x8, addend: 0x0, symName: __ZNK15JobWorkerThread10isStoppingEv, symObjAddr: 0x380, symBinAddr: 0x10001CEF0, symSize: 0x50 }
  - { offsetInCU: 0xCA50, offset: 0x52645, size: 0x8, addend: 0x0, symName: __ZNSt3__16chrono8durationIxNS_5ratioILl1ELl1000000EEEEC1B7v160006IiEERKT_PNS_9enable_ifIXaasr14is_convertibleIS8_xEE5valueooL_ZNS_17integral_constantIbLb0EE5valueEEntsr23treat_as_floating_pointIS6_EE5valueEvE4typeE, symObjAddr: 0x48C, symBinAddr: 0x10001CFFC, symSize: 0x3C }
  - { offsetInCU: 0xCA9B, offset: 0x52690, size: 0x8, addend: 0x0, symName: __ZN15JobWorkerThread20setWorkerJobChannelsEm, symObjAddr: 0x4C8, symBinAddr: 0x10001D038, symSize: 0x44 }
  - { offsetInCU: 0xCACF, offset: 0x526C4, size: 0x8, addend: 0x0, symName: __ZNSt3__16chrono8durationIxNS_5ratioILl1ELl1000000EEEEC2B7v160006IiEERKT_PNS_9enable_ifIXaasr14is_convertibleIS8_xEE5valueooL_ZNS_17integral_constantIbLb0EE5valueEEntsr23treat_as_floating_pointIS6_EE5valueEvE4typeE, symObjAddr: 0x550, symBinAddr: 0x10001D07C, symSize: 0x28 }
  - { offsetInCU: 0xCB1B, offset: 0x52710, size: 0x8, addend: 0x0, symName: __ZNSt3__16threadC2IRFvPvEJP15JobWorkerThreadEvEEOT_DpOT0_, symObjAddr: 0x578, symBinAddr: 0x10001D0A4, symSize: 0x150 }
  - { offsetInCU: 0xCBA9, offset: 0x5279E, size: 0x8, addend: 0x0, symName: __ZNSt3__110unique_ptrINS_15__thread_structENS_14default_deleteIS1_EEEC1B7v160006ILb1EvEEPS1_, symObjAddr: 0x6C8, symBinAddr: 0x10001D1F4, symSize: 0x34 }
  - { offsetInCU: 0xCBEA, offset: 0x527DF, size: 0x8, addend: 0x0, symName: __ZNSt3__15tupleIJNS_10unique_ptrINS_15__thread_structENS_14default_deleteIS2_EEEEPFvPvEP15JobWorkerThreadEEC1B7v160006IJS5_RS7_SA_ELi0EEEDpOT_, symObjAddr: 0x6FC, symBinAddr: 0x10001D228, symSize: 0x44 }
  - { offsetInCU: 0xCCEC, offset: 0x528E1, size: 0x8, addend: 0x0, symName: __ZNSt3__110unique_ptrINS_5tupleIJNS0_INS_15__thread_structENS_14default_deleteIS2_EEEEPFvPvEP15JobWorkerThreadEEENS3_ISB_EEEC1B7v160006ILb1EvEEPSB_, symObjAddr: 0x740, symBinAddr: 0x10001D26C, symSize: 0x34 }
  - { offsetInCU: 0xCD2C, offset: 0x52921, size: 0x8, addend: 0x0, symName: __ZNKSt3__110unique_ptrINS_5tupleIJNS0_INS_15__thread_structENS_14default_deleteIS2_EEEEPFvPvEP15JobWorkerThreadEEENS3_ISB_EEE3getB7v160006Ev, symObjAddr: 0x83C, symBinAddr: 0x10001D368, symSize: 0x28 }
  - { offsetInCU: 0xCD51, offset: 0x52946, size: 0x8, addend: 0x0, symName: __ZNSt3__110unique_ptrINS_5tupleIJNS0_INS_15__thread_structENS_14default_deleteIS2_EEEEPFvPvEP15JobWorkerThreadEEENS3_ISB_EEE7releaseB7v160006Ev, symObjAddr: 0x864, symBinAddr: 0x10001D390, symSize: 0x44 }
  - { offsetInCU: 0xCD86, offset: 0x5297B, size: 0x8, addend: 0x0, symName: __ZNSt3__110unique_ptrINS_5tupleIJNS0_INS_15__thread_structENS_14default_deleteIS2_EEEEPFvPvEP15JobWorkerThreadEEENS3_ISB_EEED1B7v160006Ev, symObjAddr: 0x8A8, symBinAddr: 0x10001D3D4, symSize: 0x2C }
  - { offsetInCU: 0xCDAE, offset: 0x529A3, size: 0x8, addend: 0x0, symName: __ZNSt3__110unique_ptrINS_15__thread_structENS_14default_deleteIS1_EEED1B7v160006Ev, symObjAddr: 0x8D4, symBinAddr: 0x10001D400, symSize: 0x2C }
  - { offsetInCU: 0xCDD6, offset: 0x529CB, size: 0x8, addend: 0x0, symName: __ZNSt3__110unique_ptrINS_15__thread_structENS_14default_deleteIS1_EEEC2B7v160006ILb1EvEEPS1_, symObjAddr: 0x900, symBinAddr: 0x10001D42C, symSize: 0x44 }
  - { offsetInCU: 0xCE1C, offset: 0x52A11, size: 0x8, addend: 0x0, symName: __ZNSt3__117__compressed_pairIPNS_15__thread_structENS_14default_deleteIS1_EEEC1B7v160006IRS2_NS_16__value_init_tagEEEOT_OT0_, symObjAddr: 0x944, symBinAddr: 0x10001D470, symSize: 0x3C }
  - { offsetInCU: 0xCE72, offset: 0x52A67, size: 0x8, addend: 0x0, symName: __ZNSt3__117__compressed_pairIPNS_15__thread_structENS_14default_deleteIS1_EEEC2B7v160006IRS2_NS_16__value_init_tagEEEOT_OT0_, symObjAddr: 0x980, symBinAddr: 0x10001D4AC, symSize: 0x40 }
  - { offsetInCU: 0xCEC8, offset: 0x52ABD, size: 0x8, addend: 0x0, symName: __ZNSt3__122__compressed_pair_elemIPNS_15__thread_structELi0ELb0EEC2B7v160006IRS2_vEEOT_, symObjAddr: 0x9C0, symBinAddr: 0x10001D4EC, symSize: 0x24 }
  - { offsetInCU: 0xCF09, offset: 0x52AFE, size: 0x8, addend: 0x0, symName: __ZNSt3__122__compressed_pair_elemINS_14default_deleteINS_15__thread_structEEELi1ELb1EEC2B7v160006ENS_16__value_init_tagE, symObjAddr: 0x9E4, symBinAddr: 0x10001D510, symSize: 0x14 }
  - { offsetInCU: 0xCF3D, offset: 0x52B32, size: 0x8, addend: 0x0, symName: __ZNSt3__15tupleIJNS_10unique_ptrINS_15__thread_structENS_14default_deleteIS2_EEEEPFvPvEP15JobWorkerThreadEEC2B7v160006IJS5_RS7_SA_ELi0EEEDpOT_, symObjAddr: 0x9F8, symBinAddr: 0x10001D524, symSize: 0x44 }
  - { offsetInCU: 0xCFAE, offset: 0x52BA3, size: 0x8, addend: 0x0, symName: __ZNSt3__112__tuple_implINS_15__tuple_indicesIJLm0ELm1ELm2EEEEJNS_10unique_ptrINS_15__thread_structENS_14default_deleteIS4_EEEEPFvPvEP15JobWorkerThreadEEC1B7v160006IJLm0ELm1ELm2EEJS7_SA_SC_EJEJEJS7_RS9_SC_EEENS1_IJXspT_EEEENS_13__tuple_typesIJDpT0_EEENS1_IJXspT1_EEEENSH_IJDpT2_EEEDpOT3_, symObjAddr: 0xA3C, symBinAddr: 0x10001D568, symSize: 0x44 }
  - { offsetInCU: 0xD082, offset: 0x52C77, size: 0x8, addend: 0x0, symName: __ZNSt3__112__tuple_implINS_15__tuple_indicesIJLm0ELm1ELm2EEEEJNS_10unique_ptrINS_15__thread_structENS_14default_deleteIS4_EEEEPFvPvEP15JobWorkerThreadEEC2B7v160006IJLm0ELm1ELm2EEJS7_SA_SC_EJEJEJS7_RS9_SC_EEENS1_IJXspT_EEEENS_13__tuple_typesIJDpT0_EEENS1_IJXspT1_EEEENSH_IJDpT2_EEEDpOT3_, symObjAddr: 0xA80, symBinAddr: 0x10001D5AC, symSize: 0x5C }
  - { offsetInCU: 0xD156, offset: 0x52D4B, size: 0x8, addend: 0x0, symName: __ZNSt3__112__tuple_leafILm0ENS_10unique_ptrINS_15__thread_structENS_14default_deleteIS2_EEEELb0EEC2B7v160006IS5_vEEOT_, symObjAddr: 0xADC, symBinAddr: 0x10001D608, symSize: 0x34 }
  - { offsetInCU: 0xD197, offset: 0x52D8C, size: 0x8, addend: 0x0, symName: __ZNSt3__112__tuple_leafILm1EPFvPvELb0EEC2B7v160006IRS2_vEEOT_, symObjAddr: 0xB10, symBinAddr: 0x10001D63C, symSize: 0x20 }
  - { offsetInCU: 0xD1D9, offset: 0x52DCE, size: 0x8, addend: 0x0, symName: __ZNSt3__112__tuple_leafILm2EP15JobWorkerThreadLb0EEC2B7v160006IS2_vEEOT_, symObjAddr: 0xB30, symBinAddr: 0x10001D65C, symSize: 0x24 }
  - { offsetInCU: 0xD21B, offset: 0x52E10, size: 0x8, addend: 0x0, symName: __ZNSt3__110unique_ptrINS_15__thread_structENS_14default_deleteIS1_EEEC1B7v160006EOS4_, symObjAddr: 0xB54, symBinAddr: 0x10001D680, symSize: 0x34 }
  - { offsetInCU: 0xD251, offset: 0x52E46, size: 0x8, addend: 0x0, symName: __ZNSt3__110unique_ptrINS_15__thread_structENS_14default_deleteIS1_EEEC2B7v160006EOS4_, symObjAddr: 0xB88, symBinAddr: 0x10001D6B4, symSize: 0x60 }
  - { offsetInCU: 0xD286, offset: 0x52E7B, size: 0x8, addend: 0x0, symName: __ZNSt3__110unique_ptrINS_15__thread_structENS_14default_deleteIS1_EEE7releaseB7v160006Ev, symObjAddr: 0xBE8, symBinAddr: 0x10001D714, symSize: 0x44 }
  - { offsetInCU: 0xD2BA, offset: 0x52EAF, size: 0x8, addend: 0x0, symName: __ZNSt3__110unique_ptrINS_15__thread_structENS_14default_deleteIS1_EEE11get_deleterB7v160006Ev, symObjAddr: 0xC2C, symBinAddr: 0x10001D758, symSize: 0x24 }
  - { offsetInCU: 0xD2EA, offset: 0x52EDF, size: 0x8, addend: 0x0, symName: __ZNSt3__117__compressed_pairIPNS_15__thread_structENS_14default_deleteIS1_EEEC1B7v160006IS2_S4_EEOT_OT0_, symObjAddr: 0xC50, symBinAddr: 0x10001D77C, symSize: 0x3C }
  - { offsetInCU: 0xD33F, offset: 0x52F34, size: 0x8, addend: 0x0, symName: __ZNSt3__117__compressed_pairIPNS_15__thread_structENS_14default_deleteIS1_EEE5firstB7v160006Ev, symObjAddr: 0xC8C, symBinAddr: 0x10001D7B8, symSize: 0x24 }
  - { offsetInCU: 0xD365, offset: 0x52F5A, size: 0x8, addend: 0x0, symName: __ZNSt3__122__compressed_pair_elemIPNS_15__thread_structELi0ELb0EE5__getB7v160006Ev, symObjAddr: 0xCB0, symBinAddr: 0x10001D7DC, symSize: 0x14 }
  - { offsetInCU: 0xD389, offset: 0x52F7E, size: 0x8, addend: 0x0, symName: __ZNSt3__117__compressed_pairIPNS_15__thread_structENS_14default_deleteIS1_EEE6secondB7v160006Ev, symObjAddr: 0xCC4, symBinAddr: 0x10001D7F0, symSize: 0x24 }
  - { offsetInCU: 0xD3AF, offset: 0x52FA4, size: 0x8, addend: 0x0, symName: __ZNSt3__122__compressed_pair_elemINS_14default_deleteINS_15__thread_structEEELi1ELb1EE5__getB7v160006Ev, symObjAddr: 0xCE8, symBinAddr: 0x10001D814, symSize: 0x14 }
  - { offsetInCU: 0xD3D4, offset: 0x52FC9, size: 0x8, addend: 0x0, symName: __ZNSt3__117__compressed_pairIPNS_15__thread_structENS_14default_deleteIS1_EEEC2B7v160006IS2_S4_EEOT_OT0_, symObjAddr: 0xCFC, symBinAddr: 0x10001D828, symSize: 0x44 }
  - { offsetInCU: 0xD42A, offset: 0x5301F, size: 0x8, addend: 0x0, symName: __ZNSt3__122__compressed_pair_elemIPNS_15__thread_structELi0ELb0EEC2B7v160006IS2_vEEOT_, symObjAddr: 0xD40, symBinAddr: 0x10001D86C, symSize: 0x24 }
  - { offsetInCU: 0xD46B, offset: 0x53060, size: 0x8, addend: 0x0, symName: __ZNSt3__122__compressed_pair_elemINS_14default_deleteINS_15__thread_structEEELi1ELb1EEC2B7v160006IS3_vEEOT_, symObjAddr: 0xD64, symBinAddr: 0x10001D890, symSize: 0x18 }
  - { offsetInCU: 0xD4AC, offset: 0x530A1, size: 0x8, addend: 0x0, symName: __ZNSt3__110unique_ptrINS_5tupleIJNS0_INS_15__thread_structENS_14default_deleteIS2_EEEEPFvPvEP15JobWorkerThreadEEENS3_ISB_EEEC2B7v160006ILb1EvEEPSB_, symObjAddr: 0xD7C, symBinAddr: 0x10001D8A8, symSize: 0x44 }
  - { offsetInCU: 0xD4ED, offset: 0x530E2, size: 0x8, addend: 0x0, symName: __ZNSt3__117__compressed_pairIPNS_5tupleIJNS_10unique_ptrINS_15__thread_structENS_14default_deleteIS3_EEEEPFvPvEP15JobWorkerThreadEEENS4_ISC_EEEC1B7v160006IRSD_NS_16__value_init_tagEEEOT_OT0_, symObjAddr: 0xDC0, symBinAddr: 0x10001D8EC, symSize: 0x3C }
  - { offsetInCU: 0xD543, offset: 0x53138, size: 0x8, addend: 0x0, symName: __ZNSt3__117__compressed_pairIPNS_5tupleIJNS_10unique_ptrINS_15__thread_structENS_14default_deleteIS3_EEEEPFvPvEP15JobWorkerThreadEEENS4_ISC_EEEC2B7v160006IRSD_NS_16__value_init_tagEEEOT_OT0_, symObjAddr: 0xDFC, symBinAddr: 0x10001D928, symSize: 0x40 }
  - { offsetInCU: 0xD599, offset: 0x5318E, size: 0x8, addend: 0x0, symName: __ZNSt3__122__compressed_pair_elemIPNS_5tupleIJNS_10unique_ptrINS_15__thread_structENS_14default_deleteIS3_EEEEPFvPvEP15JobWorkerThreadEEELi0ELb0EEC2B7v160006IRSD_vEEOT_, symObjAddr: 0xE3C, symBinAddr: 0x10001D968, symSize: 0x24 }
  - { offsetInCU: 0xD5DA, offset: 0x531CF, size: 0x8, addend: 0x0, symName: __ZNSt3__122__compressed_pair_elemINS_14default_deleteINS_5tupleIJNS_10unique_ptrINS_15__thread_structENS1_IS4_EEEEPFvPvEP15JobWorkerThreadEEEEELi1ELb1EEC2B7v160006ENS_16__value_init_tagE, symObjAddr: 0xE60, symBinAddr: 0x10001D98C, symSize: 0x14 }
  - { offsetInCU: 0xD63D, offset: 0x53232, size: 0x8, addend: 0x0, symName: __ZNSt3__121__thread_specific_ptrINS_15__thread_structEE11set_pointerEPS1_, symObjAddr: 0xE74, symBinAddr: 0x10001D9A0, symSize: 0x30 }
  - { offsetInCU: 0xD671, offset: 0x53266, size: 0x8, addend: 0x0, symName: __ZNSt3__112__tuple_leafILm0ENS_10unique_ptrINS_15__thread_structENS_14default_deleteIS2_EEEELb0EE3getB7v160006Ev, symObjAddr: 0xF30, symBinAddr: 0x10001DA5C, symSize: 0x14 }
  - { offsetInCU: 0xD696, offset: 0x5328B, size: 0x8, addend: 0x0, symName: __ZNSt3__112__tuple_leafILm1EPFvPvELb0EE3getB7v160006Ev, symObjAddr: 0xFC8, symBinAddr: 0x10001DAF4, symSize: 0x14 }
  - { offsetInCU: 0xD6BB, offset: 0x532B0, size: 0x8, addend: 0x0, symName: __ZNSt3__112__tuple_leafILm2EP15JobWorkerThreadLb0EE3getB7v160006Ev, symObjAddr: 0xFDC, symBinAddr: 0x10001DB08, symSize: 0x14 }
  - { offsetInCU: 0xD6DF, offset: 0x532D4, size: 0x8, addend: 0x0, symName: __ZNKSt3__117__compressed_pairIPNS_5tupleIJNS_10unique_ptrINS_15__thread_structENS_14default_deleteIS3_EEEEPFvPvEP15JobWorkerThreadEEENS4_ISC_EEE5firstB7v160006Ev, symObjAddr: 0xFF0, symBinAddr: 0x10001DB1C, symSize: 0x24 }
  - { offsetInCU: 0xD705, offset: 0x532FA, size: 0x8, addend: 0x0, symName: __ZNKSt3__122__compressed_pair_elemIPNS_5tupleIJNS_10unique_ptrINS_15__thread_structENS_14default_deleteIS3_EEEEPFvPvEP15JobWorkerThreadEEELi0ELb0EE5__getB7v160006Ev, symObjAddr: 0x1014, symBinAddr: 0x10001DB40, symSize: 0x14 }
  - { offsetInCU: 0xD729, offset: 0x5331E, size: 0x8, addend: 0x0, symName: __ZNSt3__117__compressed_pairIPNS_5tupleIJNS_10unique_ptrINS_15__thread_structENS_14default_deleteIS3_EEEEPFvPvEP15JobWorkerThreadEEENS4_ISC_EEE5firstB7v160006Ev, symObjAddr: 0x1028, symBinAddr: 0x10001DB54, symSize: 0x24 }
  - { offsetInCU: 0xD74F, offset: 0x53344, size: 0x8, addend: 0x0, symName: __ZNSt3__122__compressed_pair_elemIPNS_5tupleIJNS_10unique_ptrINS_15__thread_structENS_14default_deleteIS3_EEEEPFvPvEP15JobWorkerThreadEEELi0ELb0EE5__getB7v160006Ev, symObjAddr: 0x104C, symBinAddr: 0x10001DB78, symSize: 0x14 }
  - { offsetInCU: 0xD774, offset: 0x53369, size: 0x8, addend: 0x0, symName: __ZNSt3__110unique_ptrINS_5tupleIJNS0_INS_15__thread_structENS_14default_deleteIS2_EEEEPFvPvEP15JobWorkerThreadEEENS3_ISB_EEED2B7v160006Ev, symObjAddr: 0x1060, symBinAddr: 0x10001DB8C, symSize: 0x30 }
  - { offsetInCU: 0xD79B, offset: 0x53390, size: 0x8, addend: 0x0, symName: __ZNSt3__110unique_ptrINS_5tupleIJNS0_INS_15__thread_structENS_14default_deleteIS2_EEEEPFvPvEP15JobWorkerThreadEEENS3_ISB_EEE5resetB7v160006EPSB_, symObjAddr: 0x1090, symBinAddr: 0x10001DBBC, symSize: 0x78 }
  - { offsetInCU: 0xD7DE, offset: 0x533D3, size: 0x8, addend: 0x0, symName: __ZNSt3__117__compressed_pairIPNS_5tupleIJNS_10unique_ptrINS_15__thread_structENS_14default_deleteIS3_EEEEPFvPvEP15JobWorkerThreadEEENS4_ISC_EEE6secondB7v160006Ev, symObjAddr: 0x1108, symBinAddr: 0x10001DC34, symSize: 0x24 }
  - { offsetInCU: 0xD803, offset: 0x533F8, size: 0x8, addend: 0x0, symName: __ZNKSt3__114default_deleteINS_5tupleIJNS_10unique_ptrINS_15__thread_structENS0_IS3_EEEEPFvPvEP15JobWorkerThreadEEEEclB7v160006EPSB_, symObjAddr: 0x112C, symBinAddr: 0x10001DC58, symSize: 0x4C }
  - { offsetInCU: 0xD837, offset: 0x5342C, size: 0x8, addend: 0x0, symName: __ZNSt3__122__compressed_pair_elemINS_14default_deleteINS_5tupleIJNS_10unique_ptrINS_15__thread_structENS1_IS4_EEEEPFvPvEP15JobWorkerThreadEEEEELi1ELb1EE5__getB7v160006Ev, symObjAddr: 0x1178, symBinAddr: 0x10001DCA4, symSize: 0x14 }
  - { offsetInCU: 0xD85C, offset: 0x53451, size: 0x8, addend: 0x0, symName: __ZNSt3__15tupleIJNS_10unique_ptrINS_15__thread_structENS_14default_deleteIS2_EEEEPFvPvEP15JobWorkerThreadEED1Ev, symObjAddr: 0x118C, symBinAddr: 0x10001DCB8, symSize: 0x2C }
  - { offsetInCU: 0xD888, offset: 0x5347D, size: 0x8, addend: 0x0, symName: __ZNSt3__15tupleIJNS_10unique_ptrINS_15__thread_structENS_14default_deleteIS2_EEEEPFvPvEP15JobWorkerThreadEED2Ev, symObjAddr: 0x11B8, symBinAddr: 0x10001DCE4, symSize: 0x2C }
  - { offsetInCU: 0xD8B4, offset: 0x534A9, size: 0x8, addend: 0x0, symName: __ZNSt3__112__tuple_implINS_15__tuple_indicesIJLm0ELm1ELm2EEEEJNS_10unique_ptrINS_15__thread_structENS_14default_deleteIS4_EEEEPFvPvEP15JobWorkerThreadEED1Ev, symObjAddr: 0x11E4, symBinAddr: 0x10001DD10, symSize: 0x2C }
  - { offsetInCU: 0xD8E0, offset: 0x534D5, size: 0x8, addend: 0x0, symName: __ZNSt3__112__tuple_implINS_15__tuple_indicesIJLm0ELm1ELm2EEEEJNS_10unique_ptrINS_15__thread_structENS_14default_deleteIS4_EEEEPFvPvEP15JobWorkerThreadEED2Ev, symObjAddr: 0x1210, symBinAddr: 0x10001DD3C, symSize: 0x2C }
  - { offsetInCU: 0xD90C, offset: 0x53501, size: 0x8, addend: 0x0, symName: __ZNSt3__112__tuple_leafILm0ENS_10unique_ptrINS_15__thread_structENS_14default_deleteIS2_EEEELb0EED2Ev, symObjAddr: 0x123C, symBinAddr: 0x10001DD68, symSize: 0x2C }
  - { offsetInCU: 0xD938, offset: 0x5352D, size: 0x8, addend: 0x0, symName: __ZNSt3__110unique_ptrINS_15__thread_structENS_14default_deleteIS1_EEED2B7v160006Ev, symObjAddr: 0x1268, symBinAddr: 0x10001DD94, symSize: 0x30 }
  - { offsetInCU: 0xD95F, offset: 0x53554, size: 0x8, addend: 0x0, symName: __ZNSt3__110unique_ptrINS_15__thread_structENS_14default_deleteIS1_EEE5resetB7v160006EPS1_, symObjAddr: 0x1298, symBinAddr: 0x10001DDC4, symSize: 0x78 }
  - { offsetInCU: 0xD9A2, offset: 0x53597, size: 0x8, addend: 0x0, symName: __ZNKSt3__114default_deleteINS_15__thread_structEEclB7v160006EPS1_, symObjAddr: 0x1310, symBinAddr: 0x10001DE3C, symSize: 0x4C }
  - { offsetInCU: 0xD9D6, offset: 0x535CB, size: 0x8, addend: 0x0, symName: __ZNSt3__16chrono8durationIxNS_5ratioILl1ELl1000000EEEE4zeroB7v160006Ev, symObjAddr: 0x138C, symBinAddr: 0x10001DEB8, symSize: 0x3C }
  - { offsetInCU: 0xD9EA, offset: 0x535DF, size: 0x8, addend: 0x0, symName: __ZNSt3__16chrono8durationIxNS_5ratioILl1ELl1000000000EEEEppB7v160006Ev, symObjAddr: 0x1460, symBinAddr: 0x10001DF8C, symSize: 0x20 }
  - { offsetInCU: 0xDA0F, offset: 0x53604, size: 0x8, addend: 0x0, symName: __ZNSt3__16chrono8durationIxNS_5ratioILl1ELl1000000000EEEE3maxB7v160006Ev, symObjAddr: 0x1480, symBinAddr: 0x10001DFAC, symSize: 0x3C }
  - { offsetInCU: 0xDA2C, offset: 0x53621, size: 0x8, addend: 0x0, symName: __ZNKSt3__16chrono13__duration_ltINS0_8durationIxNS_5ratioILl1ELl1000000EEEEES5_EclB7v160006ERKS5_S8_, symObjAddr: 0x14F0, symBinAddr: 0x10001E01C, symSize: 0x4C }
  - { offsetInCU: 0xDA70, offset: 0x53665, size: 0x8, addend: 0x0, symName: __ZNKSt3__16chrono8durationIxNS_5ratioILl1ELl1000000EEEE5countB7v160006Ev, symObjAddr: 0x153C, symBinAddr: 0x10001E068, symSize: 0x18 }
  - { offsetInCU: 0xDA95, offset: 0x5368A, size: 0x8, addend: 0x0, symName: __ZNSt3__16chrono15duration_valuesIxE4zeroB7v160006Ev, symObjAddr: 0x1554, symBinAddr: 0x10001E080, symSize: 0x8 }
  - { offsetInCU: 0xDAB3, offset: 0x536A8, size: 0x8, addend: 0x0, symName: __ZNSt3__16chrono8durationIxNS_5ratioILl1ELl1000000EEEEC1B7v160006IxEERKT_PNS_9enable_ifIXaasr14is_convertibleIS8_xEE5valueooL_ZNS_17integral_constantIbLb0EE5valueEEntsr23treat_as_floating_pointIS6_EE5valueEvE4typeE, symObjAddr: 0x155C, symBinAddr: 0x10001E088, symSize: 0x3C }
  - { offsetInCU: 0xDAFE, offset: 0x536F3, size: 0x8, addend: 0x0, symName: __ZNSt3__16chrono8durationIxNS_5ratioILl1ELl1000000EEEEC2B7v160006IxEERKT_PNS_9enable_ifIXaasr14is_convertibleIS8_xEE5valueooL_ZNS_17integral_constantIbLb0EE5valueEEntsr23treat_as_floating_pointIS6_EE5valueEvE4typeE, symObjAddr: 0x1598, symBinAddr: 0x10001E0C4, symSize: 0x28 }
  - { offsetInCU: 0xDB4A, offset: 0x5373F, size: 0x8, addend: 0x0, symName: __ZNSt3__16chrono8durationIeNS_5ratioILl1ELl1000000EEEEC1B7v160006IxS3_EERKNS1_IT_T0_EEPNS_9enable_ifIXaasr13__no_overflowIS7_S3_EE5valueooL_ZNS_17integral_constantIbLb1EE5valueEEaaeqsr13__no_overflowIS7_S3_E4typeE3denLi1Entsr23treat_as_floating_pointIS6_EE5valueEvE4typeE, symObjAddr: 0x1638, symBinAddr: 0x10001E164, symSize: 0x3C }
  - { offsetInCU: 0xDB9F, offset: 0x53794, size: 0x8, addend: 0x0, symName: __ZNKSt3__16chrono8durationIeNS_5ratioILl1ELl1000000EEEE5countB7v160006Ev, symObjAddr: 0x1674, symBinAddr: 0x10001E1A0, symSize: 0x18 }
  - { offsetInCU: 0xDBC4, offset: 0x537B9, size: 0x8, addend: 0x0, symName: __ZNSt3__16chrono8durationIeNS_5ratioILl1ELl1000000EEEEC1B7v160006IeNS2_ILl1ELl1EEEEERKNS1_IT_T0_EEPNS_9enable_ifIXaasr13__no_overflowIS8_S3_EE5valueooL_ZNS_17integral_constantIbLb1EE5valueEEaaeqsr13__no_overflowIS8_S3_E4typeE3denLi1Entsr23treat_as_floating_pointIS7_EE5valueEvE4typeE, symObjAddr: 0x168C, symBinAddr: 0x10001E1B8, symSize: 0x3C }
  - { offsetInCU: 0xDC19, offset: 0x5380E, size: 0x8, addend: 0x0, symName: __ZNSt3__16chrono8durationIeNS_5ratioILl1ELl1000000EEEEC2B7v160006IxS3_EERKNS1_IT_T0_EEPNS_9enable_ifIXaasr13__no_overflowIS7_S3_EE5valueooL_ZNS_17integral_constantIbLb1EE5valueEEaaeqsr13__no_overflowIS7_S3_E4typeE3denLi1Entsr23treat_as_floating_pointIS6_EE5valueEvE4typeE, symObjAddr: 0x16C8, symBinAddr: 0x10001E1F4, symSize: 0x48 }
  - { offsetInCU: 0xDC77, offset: 0x5386C, size: 0x8, addend: 0x0, symName: __ZNKSt3__16chrono15__duration_castINS0_8durationIxNS_5ratioILl1ELl1000000EEEEENS2_IeS4_EENS3_ILl1ELl1EEELb1ELb1EEclB7v160006ERKS5_, symObjAddr: 0x1740, symBinAddr: 0x10001E26C, symSize: 0x44 }
  - { offsetInCU: 0xDCB5, offset: 0x538AA, size: 0x8, addend: 0x0, symName: __ZNSt3__16chrono8durationIeNS_5ratioILl1ELl1000000EEEEC1B7v160006IeEERKT_PNS_9enable_ifIXaasr14is_convertibleIS8_eEE5valueooL_ZNS_17integral_constantIbLb1EE5valueEEntsr23treat_as_floating_pointIS6_EE5valueEvE4typeE, symObjAddr: 0x1784, symBinAddr: 0x10001E2B0, symSize: 0x3C }
  - { offsetInCU: 0xDD00, offset: 0x538F5, size: 0x8, addend: 0x0, symName: __ZNSt3__16chrono8durationIeNS_5ratioILl1ELl1000000EEEEC2B7v160006IeEERKT_PNS_9enable_ifIXaasr14is_convertibleIS8_eEE5valueooL_ZNS_17integral_constantIbLb1EE5valueEEntsr23treat_as_floating_pointIS6_EE5valueEvE4typeE, symObjAddr: 0x17C0, symBinAddr: 0x10001E2EC, symSize: 0x28 }
  - { offsetInCU: 0xDD4C, offset: 0x53941, size: 0x8, addend: 0x0, symName: __ZNSt3__16chrono8durationIeNS_5ratioILl1ELl1000000EEEEC2B7v160006IeNS2_ILl1ELl1EEEEERKNS1_IT_T0_EEPNS_9enable_ifIXaasr13__no_overflowIS8_S3_EE5valueooL_ZNS_17integral_constantIbLb1EE5valueEEaaeqsr13__no_overflowIS8_S3_E4typeE3denLi1Entsr23treat_as_floating_pointIS7_EE5valueEvE4typeE, symObjAddr: 0x17E8, symBinAddr: 0x10001E314, symSize: 0x48 }
  - { offsetInCU: 0xDDA1, offset: 0x53996, size: 0x8, addend: 0x0, symName: __ZNKSt3__16chrono8durationIeNS_5ratioILl1ELl1EEEE5countB7v160006Ev, symObjAddr: 0x18AC, symBinAddr: 0x10001E3D8, symSize: 0x18 }
  - { offsetInCU: 0xDDC6, offset: 0x539BB, size: 0x8, addend: 0x0, symName: __ZNSt3__16chrono8durationIxNS_5ratioILl1ELl1000000000EEEEC1B7v160006IxEERKT_PNS_9enable_ifIXaasr14is_convertibleIS8_xEE5valueooL_ZNS_17integral_constantIbLb0EE5valueEEntsr23treat_as_floating_pointIS6_EE5valueEvE4typeE, symObjAddr: 0x190C, symBinAddr: 0x10001E438, symSize: 0x3C }
  - { offsetInCU: 0xDE11, offset: 0x53A06, size: 0x8, addend: 0x0, symName: __ZNSt3__16chrono8durationIxNS_5ratioILl1ELl1000000000EEEEC2B7v160006IxEERKT_PNS_9enable_ifIXaasr14is_convertibleIS8_xEE5valueooL_ZNS_17integral_constantIbLb0EE5valueEEntsr23treat_as_floating_pointIS6_EE5valueEvE4typeE, symObjAddr: 0x1948, symBinAddr: 0x10001E474, symSize: 0x28 }
  - { offsetInCU: 0xDE5D, offset: 0x53A52, size: 0x8, addend: 0x0, symName: __ZNKSt3__16chrono8durationIxNS_5ratioILl1ELl1000000000EEEE5countB7v160006Ev, symObjAddr: 0x19DC, symBinAddr: 0x10001E508, symSize: 0x18 }
  - { offsetInCU: 0xDE82, offset: 0x53A77, size: 0x8, addend: 0x0, symName: __ZNSt3__16chrono8durationIxNS_5ratioILl1ELl1000000000EEEEC1B7v160006IxNS2_ILl1ELl1000000EEEEERKNS1_IT_T0_EEPNS_9enable_ifIXaasr13__no_overflowIS8_S3_EE5valueooL_ZNS_17integral_constantIbLb0EE5valueEEaaeqsr13__no_overflowIS8_S3_E4typeE3denLi1Entsr23treat_as_floating_pointIS7_EE5valueEvE4typeE, symObjAddr: 0x19F4, symBinAddr: 0x10001E520, symSize: 0x3C }
  - { offsetInCU: 0xDED7, offset: 0x53ACC, size: 0x8, addend: 0x0, symName: __ZNSt3__16chrono8durationIxNS_5ratioILl1ELl1000000000EEEEC2B7v160006IxNS2_ILl1ELl1000000EEEEERKNS1_IT_T0_EEPNS_9enable_ifIXaasr13__no_overflowIS8_S3_EE5valueooL_ZNS_17integral_constantIbLb0EE5valueEEaaeqsr13__no_overflowIS8_S3_E4typeE3denLi1Entsr23treat_as_floating_pointIS7_EE5valueEvE4typeE, symObjAddr: 0x1A30, symBinAddr: 0x10001E55C, symSize: 0x50 }
  - { offsetInCU: 0xDF2C, offset: 0x53B21, size: 0x8, addend: 0x0, symName: __ZNSt3__16chrono15duration_valuesIxE3maxB7v160006Ev, symObjAddr: 0x1A80, symBinAddr: 0x10001E5AC, symSize: 0x14 }
  - { offsetInCU: 0xDF40, offset: 0x53B35, size: 0x8, addend: 0x0, symName: __ZNSt3__114numeric_limitsIxE3maxB7v160006Ev, symObjAddr: 0x1A94, symBinAddr: 0x10001E5C0, symSize: 0x14 }
  - { offsetInCU: 0xDF54, offset: 0x53B49, size: 0x8, addend: 0x0, symName: __ZNSt3__123__libcpp_numeric_limitsIxLb1EE3maxB7v160006Ev, symObjAddr: 0x1AA8, symBinAddr: 0x10001E5D4, symSize: 0x8 }
  - { offsetInCU: 0x18A, offset: 0x53D8E, size: 0x8, addend: 0x0, symName: __ZNSt3__115regex_constants13__get_grammarB7v160006ENS0_18syntax_option_typeE, symObjAddr: 0x4B40, symBinAddr: 0x100020544, symSize: 0x18 }
  - { offsetInCU: 0x1B8, offset: 0x53DBC, size: 0x8, addend: 0x0, symName: __ZNSt3__115regex_constantsoRB7v160006ERNS0_18syntax_option_typeES1_, symObjAddr: 0x4B58, symBinAddr: 0x10002055C, symSize: 0x3C }
  - { offsetInCU: 0x1F5, offset: 0x53DF9, size: 0x8, addend: 0x0, symName: __ZNSt3__115regex_constantsorB7v160006ENS0_18syntax_option_typeES1_, symObjAddr: 0x4E10, symBinAddr: 0x100020814, symSize: 0x20 }
  - { offsetInCU: 0x232, offset: 0x53E36, size: 0x8, addend: 0x0, symName: __ZNSt3__115regex_constantsanB7v160006ENS0_18syntax_option_typeES1_, symObjAddr: 0x8068, symBinAddr: 0x100023A6C, symSize: 0x20 }
  - { offsetInCU: 0x26F, offset: 0x53E73, size: 0x8, addend: 0x0, symName: __ZNSt3__115regex_constantsanB7v160006ENS0_15match_flag_typeES1_, symObjAddr: 0x8288, symBinAddr: 0x100023C8C, symSize: 0x20 }
  - { offsetInCU: 0x2AC, offset: 0x53EB0, size: 0x8, addend: 0x0, symName: __ZNSt3__115regex_constantsorB7v160006ENS0_15match_flag_typeES1_, symObjAddr: 0x98A4, symBinAddr: 0x100025294, symSize: 0x20 }
  - { offsetInCU: 0x2E9, offset: 0x53EED, size: 0x8, addend: 0x0, symName: __ZNSt3__115regex_constantscoB7v160006ENS0_15match_flag_typeE, symObjAddr: 0x98C4, symBinAddr: 0x1000252B4, symSize: 0x1C }
  - { offsetInCU: 0x317, offset: 0x53F1B, size: 0x8, addend: 0x0, symName: __ZNSt3__115regex_constantsaNB7v160006ERNS0_15match_flag_typeES1_, symObjAddr: 0x24530, symBinAddr: 0x10003F964, symSize: 0x3C }
  - { offsetInCU: 0x354, offset: 0x53F58, size: 0x8, addend: 0x0, symName: __ZNSt3__115regex_constantsoRB7v160006ERNS0_15match_flag_typeES1_, symObjAddr: 0x246E4, symBinAddr: 0x10003FB18, symSize: 0x3C }
  - { offsetInCU: 0xB89A, offset: 0x5F49E, size: 0x8, addend: 0x0, symName: __ZNSt3__17advanceB7v160006IPKcllvEEvRT_T0_, symObjAddr: 0x8340, symBinAddr: 0x100023D44, symSize: 0x50 }
  - { offsetInCU: 0x15F66, offset: 0x69B6A, size: 0x8, addend: 0x0, symName: __ZNSt3__17advanceB7v160006IPNS_9sub_matchIPKcEEmmvEEvRT_T0_, symObjAddr: 0x296C0, symBinAddr: 0x100044ABC, symSize: 0x50 }
  - { offsetInCU: 0x15FD2, offset: 0x69BD6, size: 0x8, addend: 0x0, symName: __ZNSt3__17advanceB7v160006IPNS_4pairImPKcEEmmvEEvRT_T0_, symObjAddr: 0x29D64, symBinAddr: 0x100045160, symSize: 0x50 }
  - { offsetInCU: 0x16574, offset: 0x6A178, size: 0x8, addend: 0x0, symName: __ZNSt3__17advanceB7v160006INS_11__wrap_iterIPKcEEllvEEvRT_T0_, symObjAddr: 0x2BBE0, symBinAddr: 0x100046FDC, symSize: 0x50 }
  - { offsetInCU: 0x1C8A9, offset: 0x704AD, size: 0x8, addend: 0x0, symName: __ZNSt3__17getlineB7v160006IcNS_11char_traitsIcEENS_9allocatorIcEEEERNS_13basic_istreamIT_T0_EES9_RNS_12basic_stringIS6_S7_T1_EE, symObjAddr: 0x7CC, symBinAddr: 0x10001EC64, symSize: 0x5C }
  - { offsetInCU: 0x1CC16, offset: 0x7081A, size: 0x8, addend: 0x0, symName: __ZNSt3__111regex_matchB7v160006INS_11char_traitsIcEENS_9allocatorIcEENS3_INS_9sub_matchINS_11__wrap_iterIPKcEEEEEEcNS_12regex_traitsIcEEEEbRKNS_12basic_stringIT2_T_T0_EERNS_13match_resultsINSI_14const_iteratorET1_EERKNS_11basic_regexISF_T3_EENS_15regex_constants15match_flag_typeE, symObjAddr: 0x894, symBinAddr: 0x10001ED2C, symSize: 0x5C }
  - { offsetInCU: 0x1CC9E, offset: 0x708A2, size: 0x8, addend: 0x0, symName: __ZNSt3__1eqB7v160006ERKNS_14__map_iteratorINS_15__tree_iteratorINS_12__value_typeINS_12basic_stringIcNS_11char_traitsIcEENS_9allocatorIcEEEENS_6vectorI5ErrorNS6_ISA_EEEEEEPNS_11__tree_nodeISD_PvEElEEEESL_, symObjAddr: 0xA44, symBinAddr: 0x10001EE90, symSize: 0x30 }
  - { offsetInCU: 0x1CCF2, offset: 0x708F6, size: 0x8, addend: 0x0, symName: __ZNSt3__1neB7v160006ERKNS_19__hash_map_iteratorINS_15__hash_iteratorIPNS_11__hash_nodeINS_17__hash_value_typeINS_12basic_stringIcNS_11char_traitsIcEENS_9allocatorIcEEEENS_6vectorI5ErrorNS7_ISB_EEEEEEPvEEEEEESL_, symObjAddr: 0xED8, symBinAddr: 0x10001F224, symSize: 0x30 }
  - { offsetInCU: 0x1CD2F, offset: 0x70933, size: 0x8, addend: 0x0, symName: __ZNSt3__118__debug_db_erase_cB7v160006INS_6vectorINS_9sub_matchINS_11__wrap_iterIPKcEEEENS_9allocatorIS7_EEEEEEvPT_, symObjAddr: 0x2AC4, symBinAddr: 0x10001F654, symSize: 0x10 }
  - { offsetInCU: 0x1CD60, offset: 0x70964, size: 0x8, addend: 0x0, symName: __ZNSt3__112__to_addressB7v160006INS_9sub_matchINS_11__wrap_iterIPKcEEEEEEPT_S8_, symObjAddr: 0x2C08, symBinAddr: 0x10001F798, symSize: 0x14 }
  - { offsetInCU: 0x1CD95, offset: 0x70999, size: 0x8, addend: 0x0, symName: __ZNSt3__134__libcpp_atomic_refcount_decrementB7v160006IlEET_RS1_, symObjAddr: 0x3060, symBinAddr: 0x10001FBF0, symSize: 0x30 }
  - { offsetInCU: 0x1CDCA, offset: 0x709CE, size: 0x8, addend: 0x0, symName: __ZNSt3__118__debug_db_erase_cB7v160006INS_12__hash_tableINS_17__hash_value_typeINS_12basic_stringIcNS_11char_traitsIcEENS_9allocatorIcEEEENS_6vectorI5ErrorNS6_ISA_EEEEEENS_22__unordered_map_hasherIS8_SD_NS_4hashIS8_EENS_8equal_toIS8_EELb1EEENS_21__unordered_map_equalIS8_SD_SI_SG_Lb1EEENS6_ISD_EEEEEEvPT_, symObjAddr: 0x3310, symBinAddr: 0x10001FE48, symSize: 0x10 }
  - { offsetInCU: 0x1CEBB, offset: 0x70ABF, size: 0x8, addend: 0x0, symName: __ZNSt3__19use_facetB7v160006INS_7collateIcEEEERKT_RKNS_6localeE, symObjAddr: 0x4AF8, symBinAddr: 0x1000204FC, symSize: 0x2C }
  - { offsetInCU: 0x1CEF3, offset: 0x70AF7, size: 0x8, addend: 0x0, symName: __ZNSt3__119__throw_regex_errorB7v160006ILNS_15regex_constants10error_typeE17EEEvv, symObjAddr: 0x4DB0, symBinAddr: 0x1000207B4, symSize: 0x60 }
  - { offsetInCU: 0x1D386, offset: 0x70F8A, size: 0x8, addend: 0x0, symName: __ZNSt3__119__throw_regex_errorB7v160006ILNS_15regex_constants10error_typeE14EEEvv, symObjAddr: 0x562C, symBinAddr: 0x100021030, symSize: 0x60 }
  - { offsetInCU: 0x1DF53, offset: 0x71B57, size: 0x8, addend: 0x0, symName: __ZNSt3__14swapB7v160006IPNS_13__empty_stateIcEEEENS_9enable_ifIXaasr21is_move_constructibleIT_EE5valuesr18is_move_assignableIS5_EE5valueEvE4typeERS5_S8_, symObjAddr: 0x6580, symBinAddr: 0x100021F84, symSize: 0x3C }
  - { offsetInCU: 0x1DFA4, offset: 0x71BA8, size: 0x8, addend: 0x0, symName: __ZNSt3__14swapB7v160006IPNS_19__shared_weak_countEEENS_9enable_ifIXaasr21is_move_constructibleIT_EE5valuesr18is_move_assignableIS4_EE5valueEvE4typeERS4_S7_, symObjAddr: 0x65BC, symBinAddr: 0x100021FC0, symSize: 0x3C }
  - { offsetInCU: 0x1DFF5, offset: 0x71BF9, size: 0x8, addend: 0x0, symName: __ZNSt3__14nextB7v160006IPKcEENS_9enable_ifIXsr25__is_cpp17_input_iteratorIT_EE5valueES4_E4typeES4_NS_15iterator_traitsIS4_E15difference_typeE, symObjAddr: 0x7D4C, symBinAddr: 0x100023750, symSize: 0x48 }
  - { offsetInCU: 0x1E039, offset: 0x71C3D, size: 0x8, addend: 0x0, symName: __ZNSt3__119__throw_regex_errorB7v160006ILNS_15regex_constants10error_typeE6EEEvv, symObjAddr: 0x7F54, symBinAddr: 0x100023958, symSize: 0x60 }
  - { offsetInCU: 0x1E0E5, offset: 0x71CE9, size: 0x8, addend: 0x0, symName: __ZNSt3__18__is_eolB7v160006IcEEbT_, symObjAddr: 0x82A8, symBinAddr: 0x100023CAC, symSize: 0x48 }
  - { offsetInCU: 0x1E11C, offset: 0x71D20, size: 0x8, addend: 0x0, symName: __ZNSt3__14prevB7v160006IPKcEENS_9enable_ifIXsr25__is_cpp17_input_iteratorIT_EE5valueES4_E4typeES4_NS_15iterator_traitsIS4_E15difference_typeE, symObjAddr: 0x82F0, symBinAddr: 0x100023CF4, symSize: 0x50 }
  - { offsetInCU: 0x1E15F, offset: 0x71D63, size: 0x8, addend: 0x0, symName: __ZNSt3__19__advanceB7v160006IPKcEEvRT_NS_15iterator_traitsIS3_E15difference_typeENS_26random_access_iterator_tagE, symObjAddr: 0x83A4, symBinAddr: 0x100023D94, symSize: 0x28 }
  - { offsetInCU: 0x1E3B4, offset: 0x71FB8, size: 0x8, addend: 0x0, symName: __ZNSt3__134__libcpp_atomic_refcount_incrementB7v160006IlEET_RS1_, symObjAddr: 0x916C, symBinAddr: 0x100024B5C, symSize: 0x30 }
  - { offsetInCU: 0x1E6D1, offset: 0x722D5, size: 0x8, addend: 0x0, symName: __ZNSt3__119__debug_db_insert_cB7v160006INS_6vectorINS_9sub_matchIPKcEENS_9allocatorIS5_EEEEEEvPT_, symObjAddr: 0x9BF4, symBinAddr: 0x1000255E4, symSize: 0x10 }
  - { offsetInCU: 0x1E702, offset: 0x72306, size: 0x8, addend: 0x0, symName: __ZNSt3__118__debug_db_erase_cB7v160006INS_6vectorINS_9sub_matchIPKcEENS_9allocatorIS5_EEEEEEvPT_, symObjAddr: 0x9ED0, symBinAddr: 0x1000258C0, symSize: 0x10 }
  - { offsetInCU: 0x1E733, offset: 0x72337, size: 0x8, addend: 0x0, symName: __ZNSt3__112__to_addressB7v160006INS_9sub_matchIPKcEEEEPT_S6_, symObjAddr: 0xA014, symBinAddr: 0x100025A04, symSize: 0x14 }
  - { offsetInCU: 0x1E768, offset: 0x7236C, size: 0x8, addend: 0x0, symName: __ZNSt3__16fill_nB7v160006IPNS_9sub_matchIPKcEEmS4_EET_S6_T0_RKT1_, symObjAddr: 0xA2E8, symBinAddr: 0x100025CD8, symSize: 0x44 }
  - { offsetInCU: 0x1E7CB, offset: 0x723CF, size: 0x8, addend: 0x0, symName: __ZNSt3__125__debug_db_invalidate_allB7v160006INS_6vectorINS_9sub_matchIPKcEENS_9allocatorIS5_EEEEEEvPT_, symObjAddr: 0xA650, symBinAddr: 0x100026040, symSize: 0x10 }
  - { offsetInCU: 0x1E7FC, offset: 0x72400, size: 0x8, addend: 0x0, symName: __ZNSt3__18__fill_nB7v160006IPNS_9sub_matchIPKcEEmS4_EET_S6_T0_RKT1_, symObjAddr: 0xA660, symBinAddr: 0x100026050, symSize: 0x6C }
  - { offsetInCU: 0x1E85F, offset: 0x72463, size: 0x8, addend: 0x0, symName: __ZNSt3__119__allocate_at_leastB7v160006INS_9allocatorINS_9sub_matchIPKcEEEEEENS_19__allocation_resultINS_16allocator_traitsIT_E7pointerEEERS9_m, symObjAddr: 0xAA2C, symBinAddr: 0x100026408, symSize: 0x40 }
  - { offsetInCU: 0x1E8A3, offset: 0x724A7, size: 0x8, addend: 0x0, symName: __ZNSt3__119__throw_regex_errorB7v160006ILNS_15regex_constants10error_typeE12EEEvv, symObjAddr: 0xAF08, symBinAddr: 0x100026864, symSize: 0x60 }
  - { offsetInCU: 0x1E8C9, offset: 0x724CD, size: 0x8, addend: 0x0, symName: __ZNSt3__119__throw_regex_errorB7v160006ILNS_15regex_constants10error_typeE16EEEvv, symObjAddr: 0xAFC8, symBinAddr: 0x100026924, symSize: 0x60 }
  - { offsetInCU: 0x1E8EE, offset: 0x724F2, size: 0x8, addend: 0x0, symName: __ZNSt3__119__debug_db_insert_cB7v160006INS_6vectorINS_7__stateIcEENS_9allocatorIS3_EEEEEEvPT_, symObjAddr: 0xB110, symBinAddr: 0x100026A6C, symSize: 0x10 }
  - { offsetInCU: 0x1E91F, offset: 0x72523, size: 0x8, addend: 0x0, symName: __ZNSt3__112__to_addressB7v160006INS_7__stateIcEEEEPT_S4_, symObjAddr: 0xB448, symBinAddr: 0x100026DA4, symSize: 0x14 }
  - { offsetInCU: 0x1E954, offset: 0x72558, size: 0x8, addend: 0x0, symName: __ZNSt3__115__debug_db_swapB7v160006INS_6vectorINS_9sub_matchIPKcEENS_9allocatorIS5_EEEEEEvPT_SA_, symObjAddr: 0xB730, symBinAddr: 0x10002708C, symSize: 0x14 }
  - { offsetInCU: 0x1E993, offset: 0x72597, size: 0x8, addend: 0x0, symName: __ZNSt3__119__debug_db_insert_cB7v160006INS_6vectorINS_4pairImPKcEENS_9allocatorIS5_EEEEEEvPT_, symObjAddr: 0xB8E4, symBinAddr: 0x100027240, symSize: 0x10 }
  - { offsetInCU: 0x1E9C4, offset: 0x725C8, size: 0x8, addend: 0x0, symName: __ZNSt3__115__debug_db_swapB7v160006INS_6vectorINS_4pairImPKcEENS_9allocatorIS5_EEEEEEvPT_SA_, symObjAddr: 0xB8F4, symBinAddr: 0x100027250, symSize: 0x14 }
  - { offsetInCU: 0x1EA03, offset: 0x72607, size: 0x8, addend: 0x0, symName: __ZNSt3__119__allocate_at_leastB7v160006INS_9allocatorINS_7__stateIcEEEEEENS_19__allocation_resultINS_16allocator_traitsIT_E7pointerEEERS7_m, symObjAddr: 0xBFA8, symBinAddr: 0x100027904, symSize: 0x40 }
  - { offsetInCU: 0x1EA46, offset: 0x7264A, size: 0x8, addend: 0x0, symName: __ZNSt3__142__uninitialized_allocator_move_if_noexceptB7v160006INS_9allocatorINS_7__stateIcEEEENS_16reverse_iteratorIPS3_EES7_S7_EET2_RT_T0_T1_S8_, symObjAddr: 0xC234, symBinAddr: 0x100027B90, symSize: 0x12C }
  - { offsetInCU: 0x1EAE6, offset: 0x726EA, size: 0x8, addend: 0x0, symName: __ZNSt3__14swapB7v160006IPNS_7__stateIcEEEENS_9enable_ifIXaasr21is_move_constructibleIT_EE5valuesr18is_move_assignableIS5_EE5valueEvE4typeERS5_S8_, symObjAddr: 0xC3AC, symBinAddr: 0x100027D08, symSize: 0x3C }
  - { offsetInCU: 0x1EB37, offset: 0x7273B, size: 0x8, addend: 0x0, symName: __ZNSt3__125__debug_db_invalidate_allB7v160006INS_6vectorINS_7__stateIcEENS_9allocatorIS3_EEEEEEvPT_, symObjAddr: 0xC4B0, symBinAddr: 0x100027E0C, symSize: 0x10 }
  - { offsetInCU: 0x1EB68, offset: 0x7276C, size: 0x8, addend: 0x0, symName: __ZNSt3__122__make_exception_guardB7v160006INS_29_AllocatorDestroyRangeReverseINS_9allocatorINS_7__stateIcEEEENS_16reverse_iteratorIPS4_EEEEEENS_28__exception_guard_exceptionsIT_EESB_, symObjAddr: 0xC508, symBinAddr: 0x100027E64, symSize: 0x4C }
  - { offsetInCU: 0x1EB9E, offset: 0x727A2, size: 0x8, addend: 0x0, symName: __ZNSt3__1neB7v160006IPNS_7__stateIcEES3_EEbRKNS_16reverse_iteratorIT_EERKNS4_IT0_EE, symObjAddr: 0xC598, symBinAddr: 0x100027EF4, symSize: 0x48 }
  - { offsetInCU: 0x1EBEA, offset: 0x727EE, size: 0x8, addend: 0x0, symName: __ZNSt3__112__to_addressB7v160006INS_16reverse_iteratorIPNS_7__stateIcEEEEvEENS_5decayIDTclsr19__to_address_helperIT_EE6__callclsr3stdE7declvalIRKS7_EEEEE4typeES9_, symObjAddr: 0xC5E0, symBinAddr: 0x100027F3C, symSize: 0x24 }
  - { offsetInCU: 0x1EC4A, offset: 0x7284E, size: 0x8, addend: 0x0, symName: __ZNSt3__119__allocator_destroyB7v160006INS_9allocatorINS_7__stateIcEEEENS_16reverse_iteratorINS5_IPS3_EEEES8_EEvRT_T0_T1_, symObjAddr: 0xC890, symBinAddr: 0x1000281EC, symSize: 0x70 }
  - { offsetInCU: 0x1ECAF, offset: 0x728B3, size: 0x8, addend: 0x0, symName: __ZNSt3__1neB7v160006INS_16reverse_iteratorIPNS_7__stateIcEEEES5_EEbRKNS1_IT_EERKNS1_IT0_EE, symObjAddr: 0xC93C, symBinAddr: 0x100028298, symSize: 0x60 }
  - { offsetInCU: 0x1ECFB, offset: 0x728FF, size: 0x8, addend: 0x0, symName: __ZNSt3__112__to_addressB7v160006INS_16reverse_iteratorINS1_IPNS_7__stateIcEEEEEEvEENS_5decayIDTclsr19__to_address_helperIT_EE6__callclsr3stdE7declvalIRKS8_EEEEE4typeESA_, symObjAddr: 0xC9C8, symBinAddr: 0x100028324, symSize: 0x24 }
  - { offsetInCU: 0x1ED5B, offset: 0x7295F, size: 0x8, addend: 0x0, symName: __ZNSt3__118__debug_db_erase_cB7v160006INS_6vectorINS_4pairImPKcEENS_9allocatorIS5_EEEEEEvPT_, symObjAddr: 0xD308, symBinAddr: 0x100028C64, symSize: 0x10 }
  - { offsetInCU: 0x1ED8C, offset: 0x72990, size: 0x8, addend: 0x0, symName: __ZNSt3__112__to_addressB7v160006INS_4pairImPKcEEEEPT_S6_, symObjAddr: 0xD424, symBinAddr: 0x100028D80, symSize: 0x14 }
  - { offsetInCU: 0x1EDC1, offset: 0x729C5, size: 0x8, addend: 0x0, symName: __ZNSt3__142__uninitialized_allocator_move_if_noexceptB7v160006INS_9allocatorINS_9sub_matchIPKcEEEENS_16reverse_iteratorIPS5_EES9_S9_EET2_RT_T0_T1_SA_, symObjAddr: 0xDC08, symBinAddr: 0x100029564, symSize: 0x12C }
  - { offsetInCU: 0x1EE61, offset: 0x72A65, size: 0x8, addend: 0x0, symName: __ZNSt3__14swapB7v160006IPNS_9sub_matchIPKcEEEENS_9enable_ifIXaasr21is_move_constructibleIT_EE5valuesr18is_move_assignableIS7_EE5valueEvE4typeERS7_SA_, symObjAddr: 0xDD80, symBinAddr: 0x1000296DC, symSize: 0x3C }
  - { offsetInCU: 0x1EEB2, offset: 0x72AB6, size: 0x8, addend: 0x0, symName: __ZNSt3__122__make_exception_guardB7v160006INS_29_AllocatorDestroyRangeReverseINS_9allocatorINS_9sub_matchIPKcEEEENS_16reverse_iteratorIPS6_EEEEEENS_28__exception_guard_exceptionsIT_EESD_, symObjAddr: 0xDDBC, symBinAddr: 0x100029718, symSize: 0x4C }
  - { offsetInCU: 0x1EEE8, offset: 0x72AEC, size: 0x8, addend: 0x0, symName: __ZNSt3__1neB7v160006IPNS_9sub_matchIPKcEES5_EEbRKNS_16reverse_iteratorIT_EERKNS6_IT0_EE, symObjAddr: 0xDE4C, symBinAddr: 0x1000297A8, symSize: 0x48 }
  - { offsetInCU: 0x1EF34, offset: 0x72B38, size: 0x8, addend: 0x0, symName: __ZNSt3__112__to_addressB7v160006INS_16reverse_iteratorIPNS_9sub_matchIPKcEEEEvEENS_5decayIDTclsr19__to_address_helperIT_EE6__callclsr3stdE7declvalIRKS9_EEEEE4typeESB_, symObjAddr: 0xDEC8, symBinAddr: 0x100029824, symSize: 0x24 }
  - { offsetInCU: 0x1EF94, offset: 0x72B98, size: 0x8, addend: 0x0, symName: __ZNSt3__119__allocator_destroyB7v160006INS_9allocatorINS_9sub_matchIPKcEEEENS_16reverse_iteratorINS7_IPS5_EEEESA_EEvRT_T0_T1_, symObjAddr: 0xE1A8, symBinAddr: 0x100029B04, symSize: 0x70 }
  - { offsetInCU: 0x1EFF9, offset: 0x72BFD, size: 0x8, addend: 0x0, symName: __ZNSt3__1neB7v160006INS_16reverse_iteratorIPNS_9sub_matchIPKcEEEES7_EEbRKNS1_IT_EERKNS1_IT0_EE, symObjAddr: 0xE254, symBinAddr: 0x100029BB0, symSize: 0x60 }
  - { offsetInCU: 0x1F045, offset: 0x72C49, size: 0x8, addend: 0x0, symName: __ZNSt3__112__to_addressB7v160006INS_16reverse_iteratorINS1_IPNS_9sub_matchIPKcEEEEEEvEENS_5decayIDTclsr19__to_address_helperIT_EE6__callclsr3stdE7declvalIRKSA_EEEEE4typeESC_, symObjAddr: 0xE2B4, symBinAddr: 0x100029C10, symSize: 0x24 }
  - { offsetInCU: 0x1F0A5, offset: 0x72CA9, size: 0x8, addend: 0x0, symName: __ZNSt3__119__allocate_at_leastB7v160006INS_9allocatorINS_4pairImPKcEEEEEENS_19__allocation_resultINS_16allocator_traitsIT_E7pointerEEERS9_m, symObjAddr: 0xEEC8, symBinAddr: 0x10002A824, symSize: 0x40 }
  - { offsetInCU: 0x1F0E8, offset: 0x72CEC, size: 0x8, addend: 0x0, symName: __ZNSt3__142__uninitialized_allocator_move_if_noexceptB7v160006INS_9allocatorINS_4pairImPKcEEEENS_16reverse_iteratorIPS5_EES9_S9_EET2_RT_T0_T1_SA_, symObjAddr: 0xF148, symBinAddr: 0x10002AAA4, symSize: 0x12C }
  - { offsetInCU: 0x1F188, offset: 0x72D8C, size: 0x8, addend: 0x0, symName: __ZNSt3__14swapB7v160006IPNS_4pairImPKcEEEENS_9enable_ifIXaasr21is_move_constructibleIT_EE5valuesr18is_move_assignableIS7_EE5valueEvE4typeERS7_SA_, symObjAddr: 0xF2C0, symBinAddr: 0x10002AC1C, symSize: 0x3C }
  - { offsetInCU: 0x1F1D9, offset: 0x72DDD, size: 0x8, addend: 0x0, symName: __ZNSt3__125__debug_db_invalidate_allB7v160006INS_6vectorINS_4pairImPKcEENS_9allocatorIS5_EEEEEEvPT_, symObjAddr: 0xF3A8, symBinAddr: 0x10002AD04, symSize: 0x10 }
  - { offsetInCU: 0x1F20A, offset: 0x72E0E, size: 0x8, addend: 0x0, symName: __ZNSt3__122__make_exception_guardB7v160006INS_29_AllocatorDestroyRangeReverseINS_9allocatorINS_4pairImPKcEEEENS_16reverse_iteratorIPS6_EEEEEENS_28__exception_guard_exceptionsIT_EESD_, symObjAddr: 0xF3B8, symBinAddr: 0x10002AD14, symSize: 0x4C }
  - { offsetInCU: 0x1F240, offset: 0x72E44, size: 0x8, addend: 0x0, symName: __ZNSt3__1neB7v160006IPNS_4pairImPKcEES5_EEbRKNS_16reverse_iteratorIT_EERKNS6_IT0_EE, symObjAddr: 0xF448, symBinAddr: 0x10002ADA4, symSize: 0x48 }
  - { offsetInCU: 0x1F28C, offset: 0x72E90, size: 0x8, addend: 0x0, symName: __ZNSt3__112__to_addressB7v160006INS_16reverse_iteratorIPNS_4pairImPKcEEEEvEENS_5decayIDTclsr19__to_address_helperIT_EE6__callclsr3stdE7declvalIRKS9_EEEEE4typeESB_, symObjAddr: 0xF4C4, symBinAddr: 0x10002AE20, symSize: 0x24 }
  - { offsetInCU: 0x1F2EC, offset: 0x72EF0, size: 0x8, addend: 0x0, symName: __ZNSt3__119__allocator_destroyB7v160006INS_9allocatorINS_4pairImPKcEEEENS_16reverse_iteratorINS7_IPS5_EEEESA_EEvRT_T0_T1_, symObjAddr: 0xF79C, symBinAddr: 0x10002B0F8, symSize: 0x70 }
  - { offsetInCU: 0x1F351, offset: 0x72F55, size: 0x8, addend: 0x0, symName: __ZNSt3__1neB7v160006INS_16reverse_iteratorIPNS_4pairImPKcEEEES7_EEbRKNS1_IT_EERKNS1_IT0_EE, symObjAddr: 0xF848, symBinAddr: 0x10002B1A4, symSize: 0x60 }
  - { offsetInCU: 0x1F39D, offset: 0x72FA1, size: 0x8, addend: 0x0, symName: __ZNSt3__112__to_addressB7v160006INS_16reverse_iteratorINS1_IPNS_4pairImPKcEEEEEEvEENS_5decayIDTclsr19__to_address_helperIT_EE6__callclsr3stdE7declvalIRKSA_EEEEE4typeESC_, symObjAddr: 0xF8A8, symBinAddr: 0x10002B204, symSize: 0x24 }
  - { offsetInCU: 0x1F3FD, offset: 0x73001, size: 0x8, addend: 0x0, symName: __ZNSt3__122__make_exception_guardB7v160006INS_6vectorINS_9sub_matchIPKcEENS_9allocatorIS5_EEE16__destroy_vectorEEENS_28__exception_guard_exceptionsIT_EESB_, symObjAddr: 0x100D4, symBinAddr: 0x10002BA30, symSize: 0x40 }
  - { offsetInCU: 0x1F432, offset: 0x73036, size: 0x8, addend: 0x0, symName: __ZNSt3__130__uninitialized_allocator_copyB7v160006INS_9allocatorINS_9sub_matchIPKcEEEEPS5_S7_S7_EET2_RT_T0_T1_S8_, symObjAddr: 0x10240, symBinAddr: 0x10002BB9C, symSize: 0xF4 }
  - { offsetInCU: 0x1F4D0, offset: 0x730D4, size: 0x8, addend: 0x0, symName: __ZNSt3__122__make_exception_guardB7v160006INS_29_AllocatorDestroyRangeReverseINS_9allocatorINS_9sub_matchIPKcEEEEPS6_EEEENS_28__exception_guard_exceptionsIT_EESB_, symObjAddr: 0x10334, symBinAddr: 0x10002BC90, symSize: 0x4C }
  - { offsetInCU: 0x1F506, offset: 0x7310A, size: 0x8, addend: 0x0, symName: __ZNSt3__119__allocator_destroyB7v160006INS_9allocatorINS_9sub_matchIPKcEEEENS_16reverse_iteratorIPS5_EES9_EEvRT_T0_T1_, symObjAddr: 0x105C4, symBinAddr: 0x10002BF20, symSize: 0x70 }
  - { offsetInCU: 0x1F569, offset: 0x7316D, size: 0x8, addend: 0x0, symName: __ZNSt3__122__make_exception_guardB7v160006INS_6vectorINS_4pairImPKcEENS_9allocatorIS5_EEE16__destroy_vectorEEENS_28__exception_guard_exceptionsIT_EESB_, symObjAddr: 0x107A4, symBinAddr: 0x10002C100, symSize: 0x40 }
  - { offsetInCU: 0x1F59E, offset: 0x731A2, size: 0x8, addend: 0x0, symName: __ZNSt3__130__uninitialized_allocator_copyB7v160006INS_9allocatorINS_4pairImPKcEEEEPS5_S7_S7_EET2_RT_T0_T1_S8_, symObjAddr: 0x109BC, symBinAddr: 0x10002C318, symSize: 0xF4 }
  - { offsetInCU: 0x1F63C, offset: 0x73240, size: 0x8, addend: 0x0, symName: __ZNSt3__122__make_exception_guardB7v160006INS_29_AllocatorDestroyRangeReverseINS_9allocatorINS_4pairImPKcEEEEPS6_EEEENS_28__exception_guard_exceptionsIT_EESB_, symObjAddr: 0x10AB0, symBinAddr: 0x10002C40C, symSize: 0x4C }
  - { offsetInCU: 0x1F672, offset: 0x73276, size: 0x8, addend: 0x0, symName: __ZNSt3__119__allocator_destroyB7v160006INS_9allocatorINS_4pairImPKcEEEENS_16reverse_iteratorIPS5_EES9_EEvRT_T0_T1_, symObjAddr: 0x10D38, symBinAddr: 0x10002C694, symSize: 0x70 }
  - { offsetInCU: 0x1F6D5, offset: 0x732D9, size: 0x8, addend: 0x0, symName: __ZNSt3__118__debug_db_erase_cB7v160006INS_6vectorINS_7__stateIcEENS_9allocatorIS3_EEEEEEvPT_, symObjAddr: 0x10F2C, symBinAddr: 0x10002C888, symSize: 0x10 }
  - { offsetInCU: 0x1F707, offset: 0x7330B, size: 0x8, addend: 0x0, symName: __ZNSt3__119__throw_regex_errorB7v160006ILNS_15regex_constants10error_typeE11EEEvv, symObjAddr: 0x11530, symBinAddr: 0x10002CE8C, symSize: 0x60 }
  - { offsetInCU: 0x1F7A2, offset: 0x733A6, size: 0x8, addend: 0x0, symName: __ZNSt3__119__throw_regex_errorB7v160006ILNS_15regex_constants10error_typeE3EEEvv, symObjAddr: 0x118A8, symBinAddr: 0x10002D204, symSize: 0x60 }
  - { offsetInCU: 0x1F9B4, offset: 0x735B8, size: 0x8, addend: 0x0, symName: __ZNSt3__119__throw_regex_errorB7v160006ILNS_15regex_constants10error_typeE4EEEvv, symObjAddr: 0x12660, symBinAddr: 0x10002DFBC, symSize: 0x60 }
  - { offsetInCU: 0x1FDF9, offset: 0x739FD, size: 0x8, addend: 0x0, symName: __ZNSt3__15equalB7v160006IPKcS2_EEbT_S3_T0_, symObjAddr: 0x137E4, symBinAddr: 0x10002F140, symSize: 0x38 }
  - { offsetInCU: 0x1FE53, offset: 0x73A57, size: 0x8, addend: 0x0, symName: __ZNSt3__15equalB7v160006IPKcS2_NS_10__equal_toEEEbT_S4_T0_T1_, symObjAddr: 0x1381C, symBinAddr: 0x10002F178, symSize: 0xA8 }
  - { offsetInCU: 0x1FEFF, offset: 0x73B03, size: 0x8, addend: 0x0, symName: __ZNSt3__119__debug_db_insert_cB7v160006INS_6vectorIcNS_9allocatorIcEEEEEEvPT_, symObjAddr: 0x148BC, symBinAddr: 0x1000301E4, symSize: 0x10 }
  - { offsetInCU: 0x1FF30, offset: 0x73B34, size: 0x8, addend: 0x0, symName: __ZNSt3__119__debug_db_insert_cB7v160006INS_6vectorINS_4pairINS_12basic_stringIcNS_11char_traitsIcEENS_9allocatorIcEEEES8_EENS6_IS9_EEEEEEvPT_, symObjAddr: 0x149BC, symBinAddr: 0x1000302E4, symSize: 0x10 }
  - { offsetInCU: 0x1FF61, offset: 0x73B65, size: 0x8, addend: 0x0, symName: __ZNSt3__119__debug_db_insert_cB7v160006INS_6vectorINS_4pairIccEENS_9allocatorIS3_EEEEEEvPT_, symObjAddr: 0x14B28, symBinAddr: 0x100030450, symSize: 0x10 }
  - { offsetInCU: 0x1FF92, offset: 0x73B96, size: 0x8, addend: 0x0, symName: __ZNSt3__119__debug_db_insert_cB7v160006INS_6vectorINS_12basic_stringIcNS_11char_traitsIcEENS_9allocatorIcEEEENS5_IS7_EEEEEEvPT_, symObjAddr: 0x14C94, symBinAddr: 0x1000305BC, symSize: 0x10 }
  - { offsetInCU: 0x1FFC3, offset: 0x73BC7, size: 0x8, addend: 0x0, symName: __ZNSt3__118__debug_db_erase_cB7v160006INS_6vectorINS_12basic_stringIcNS_11char_traitsIcEENS_9allocatorIcEEEENS5_IS7_EEEEEEvPT_, symObjAddr: 0x15020, symBinAddr: 0x10003089C, symSize: 0x10 }
  - { offsetInCU: 0x1FFF4, offset: 0x73BF8, size: 0x8, addend: 0x0, symName: __ZNSt3__112__to_addressB7v160006INS_12basic_stringIcNS_11char_traitsIcEENS_9allocatorIcEEEEEEPT_S8_, symObjAddr: 0x15164, symBinAddr: 0x1000309E0, symSize: 0x14 }
  - { offsetInCU: 0x20029, offset: 0x73C2D, size: 0x8, addend: 0x0, symName: __ZNSt3__118__debug_db_erase_cB7v160006INS_6vectorINS_4pairIccEENS_9allocatorIS3_EEEEEEvPT_, symObjAddr: 0x15520, symBinAddr: 0x100030D9C, symSize: 0x10 }
  - { offsetInCU: 0x2005A, offset: 0x73C5E, size: 0x8, addend: 0x0, symName: __ZNSt3__112__to_addressB7v160006INS_4pairIccEEEEPT_S4_, symObjAddr: 0x15664, symBinAddr: 0x100030EE0, symSize: 0x14 }
  - { offsetInCU: 0x2008F, offset: 0x73C93, size: 0x8, addend: 0x0, symName: __ZNSt3__118__debug_db_erase_cB7v160006INS_6vectorINS_4pairINS_12basic_stringIcNS_11char_traitsIcEENS_9allocatorIcEEEES8_EENS6_IS9_EEEEEEvPT_, symObjAddr: 0x15A24, symBinAddr: 0x1000312A0, symSize: 0x10 }
  - { offsetInCU: 0x200C0, offset: 0x73CC4, size: 0x8, addend: 0x0, symName: __ZNSt3__112__to_addressB7v160006INS_4pairINS_12basic_stringIcNS_11char_traitsIcEENS_9allocatorIcEEEES7_EEEEPT_SA_, symObjAddr: 0x15B68, symBinAddr: 0x1000313E4, symSize: 0x14 }
  - { offsetInCU: 0x200F5, offset: 0x73CF9, size: 0x8, addend: 0x0, symName: __ZNSt3__118__debug_db_erase_cB7v160006INS_6vectorIcNS_9allocatorIcEEEEEEvPT_, symObjAddr: 0x15F88, symBinAddr: 0x100031804, symSize: 0x10 }
  - { offsetInCU: 0x20126, offset: 0x73D2A, size: 0x8, addend: 0x0, symName: __ZNSt3__1eqB7v160006IccEEbRKNS_4pairIT_T0_EES6_, symObjAddr: 0x16390, symBinAddr: 0x100031C0C, symSize: 0x64 }
  - { offsetInCU: 0x20175, offset: 0x73D79, size: 0x8, addend: 0x0, symName: __ZNSt3__1leB7v160006IcNS_11char_traitsIcEENS_9allocatorIcEEEEbRKNS_12basic_stringIT_T0_T1_EESB_, symObjAddr: 0x16530, symBinAddr: 0x100031DAC, symSize: 0x34 }
  - { offsetInCU: 0x201CD, offset: 0x73DD1, size: 0x8, addend: 0x0, symName: __ZNSt3__1eqB7v160006INS_9allocatorIcEEEEbRKNS_12basic_stringIcNS_11char_traitsIcEET_EES9_, symObjAddr: 0x165F8, symBinAddr: 0x100031E74, symSize: 0x148 }
  - { offsetInCU: 0x20240, offset: 0x73E44, size: 0x8, addend: 0x0, symName: __ZNSt3__1neB7v160006IPKcEEbRKNS_11__wrap_iterIT_EES7_, symObjAddr: 0x167B8, symBinAddr: 0x100032034, symSize: 0x34 }
  - { offsetInCU: 0x20283, offset: 0x73E87, size: 0x8, addend: 0x0, symName: __ZNSt3__14findB7v160006INS_11__wrap_iterIPKcEEcEET_S5_S5_RKT0_, symObjAddr: 0x167EC, symBinAddr: 0x100032068, symSize: 0x80 }
  - { offsetInCU: 0x202DD, offset: 0x73EE1, size: 0x8, addend: 0x0, symName: __ZNSt3__18distanceB7v160006IPcEENS_15iterator_traitsIT_E15difference_typeES3_S3_, symObjAddr: 0x16DE8, symBinAddr: 0x100032640, symSize: 0x2C }
  - { offsetInCU: 0x20320, offset: 0x73F24, size: 0x8, addend: 0x0, symName: __ZNSt3__119__allocate_at_leastB7v160006INS_9allocatorIcEEEENS_19__allocation_resultINS_16allocator_traitsIT_E7pointerEEERS5_m, symObjAddr: 0x16F74, symBinAddr: 0x1000327CC, symSize: 0x40 }
  - { offsetInCU: 0x20363, offset: 0x73F67, size: 0x8, addend: 0x0, symName: __ZNSt3__110__distanceB7v160006IPcEENS_15iterator_traitsIT_E15difference_typeES3_S3_NS_26random_access_iterator_tagE, symObjAddr: 0x17174, symBinAddr: 0x1000329CC, symSize: 0x20 }
  - { offsetInCU: 0x203B1, offset: 0x73FB5, size: 0x8, addend: 0x0, symName: __ZNSt3__125__debug_db_invalidate_allB7v160006INS_12basic_stringIcNS_11char_traitsIcEENS_9allocatorIcEEEEEEvPT_, symObjAddr: 0x17438, symBinAddr: 0x100032C74, symSize: 0x10 }
  - { offsetInCU: 0x203E2, offset: 0x73FE6, size: 0x8, addend: 0x0, symName: __ZNSt3__1eqB7v160006IPKcEEbRKNS_11__wrap_iterIT_EES7_, symObjAddr: 0x17970, symBinAddr: 0x100032E50, symSize: 0x48 }
  - { offsetInCU: 0x20425, offset: 0x74029, size: 0x8, addend: 0x0, symName: __ZNSt3__142__uninitialized_allocator_move_if_noexceptB7v160006INS_9allocatorIcEENS_16reverse_iteratorIPcEES5_cvEET1_RT_T0_S9_S6_, symObjAddr: 0x18394, symBinAddr: 0x100033874, symSize: 0x78 }
  - { offsetInCU: 0x204A3, offset: 0x740A7, size: 0x8, addend: 0x0, symName: __ZNSt3__14swapB7v160006IPcEENS_9enable_ifIXaasr21is_move_constructibleIT_EE5valuesr18is_move_assignableIS3_EE5valueEvE4typeERS3_S6_, symObjAddr: 0x18458, symBinAddr: 0x100033938, symSize: 0x3C }
  - { offsetInCU: 0x204F4, offset: 0x740F8, size: 0x8, addend: 0x0, symName: __ZNSt3__125__debug_db_invalidate_allB7v160006INS_6vectorIcNS_9allocatorIcEEEEEEvPT_, symObjAddr: 0x18540, symBinAddr: 0x100033A20, symSize: 0x10 }
  - { offsetInCU: 0x20525, offset: 0x74129, size: 0x8, addend: 0x0, symName: __ZNSt3__14moveB7v160006INS_16reverse_iteratorIPcEES3_EET0_T_S5_S4_, symObjAddr: 0x18550, symBinAddr: 0x100033A30, symSize: 0x78 }
  - { offsetInCU: 0x2057F, offset: 0x74183, size: 0x8, addend: 0x0, symName: __ZNSt3__16__moveB7v160006INS_17_ClassicAlgPolicyENS_16reverse_iteratorIPcEES4_S4_EENS_4pairIT0_T2_EES6_T1_S7_, symObjAddr: 0x185C8, symBinAddr: 0x100033AA8, symSize: 0x64 }
  - { offsetInCU: 0x205EB, offset: 0x741EF, size: 0x8, addend: 0x0, symName: __ZNSt3__123__dispatch_copy_or_moveB7v160006INS_17_ClassicAlgPolicyENS_11__move_loopIS1_EENS_14__move_trivialENS_16reverse_iteratorIPcEES7_S7_EENS_4pairIT2_T4_EES9_T3_SA_, symObjAddr: 0x1862C, symBinAddr: 0x100033B0C, symSize: 0x64 }
  - { offsetInCU: 0x20669, offset: 0x7426D, size: 0x8, addend: 0x0, symName: __ZNSt3__121__unwrap_and_dispatchB7v160006INS_10__overloadINS_11__move_loopINS_17_ClassicAlgPolicyEEENS_14__move_trivialEEENS_16reverse_iteratorIPcEES9_S9_Li0EEENS_4pairIT0_T2_EESB_T1_SC_, symObjAddr: 0x18690, symBinAddr: 0x100033B70, symSize: 0x12C }
  - { offsetInCU: 0x206FA, offset: 0x742FE, size: 0x8, addend: 0x0, symName: __ZNSt3__114__unwrap_rangeB7v160006INS_16reverse_iteratorIPcEES3_EENS_4pairIT0_S5_EET_S7_, symObjAddr: 0x187BC, symBinAddr: 0x100033C9C, symSize: 0x84 }
  - { offsetInCU: 0x2086D, offset: 0x74471, size: 0x8, addend: 0x0, symName: __ZNSt3__113__unwrap_iterB7v160006INS_16reverse_iteratorIPcEENS_18__unwrap_iter_implIS3_Lb0EEELi0EEEDTclsrT0_8__unwrapclsr3stdE7declvalIT_EEEES7_, symObjAddr: 0x188E0, symBinAddr: 0x100033DC0, symSize: 0x44 }
  - { offsetInCU: 0x208B2, offset: 0x744B6, size: 0x8, addend: 0x0, symName: __ZNSt3__19make_pairB7v160006INS_16reverse_iteratorIPcEES3_EENS_4pairINS_18__unwrap_ref_decayIT_E4typeENS5_IT0_E4typeEEEOS6_OS9_, symObjAddr: 0x18924, symBinAddr: 0x100033E04, symSize: 0x38 }
  - { offsetInCU: 0x20901, offset: 0x74505, size: 0x8, addend: 0x0, symName: __ZNSt3__114__rewrap_rangeB7v160006INS_16reverse_iteratorIPcEES3_EET_S4_T0_, symObjAddr: 0x1895C, symBinAddr: 0x100033E3C, symSize: 0x5C }
  - { offsetInCU: 0x2094D, offset: 0x74551, size: 0x8, addend: 0x0, symName: __ZNSt3__113__rewrap_iterB7v160006INS_16reverse_iteratorIPcEES3_NS_18__unwrap_iter_implIS3_Lb0EEEEET_S6_T0_, symObjAddr: 0x189B8, symBinAddr: 0x100033E98, symSize: 0x74 }
  - { offsetInCU: 0x209A2, offset: 0x745A6, size: 0x8, addend: 0x0, symName: __ZNSt3__1neB7v160006IPcS1_EEbRKNS_16reverse_iteratorIT_EERKNS2_IT0_EE, symObjAddr: 0x18A2C, symBinAddr: 0x100033F0C, symSize: 0x48 }
  - { offsetInCU: 0x20AC0, offset: 0x746C4, size: 0x8, addend: 0x0, symName: __ZNSt3__17__is_07B7v160006Eh, symObjAddr: 0x190C4, symBinAddr: 0x1000345A4, symSize: 0x24 }
  - { offsetInCU: 0x20AEE, offset: 0x746F2, size: 0x8, addend: 0x0, symName: __ZNSt3__17__is_89B7v160006Eh, symObjAddr: 0x190E8, symBinAddr: 0x1000345C8, symSize: 0x24 }
  - { offsetInCU: 0x20B1C, offset: 0x74720, size: 0x8, addend: 0x0, symName: __ZNSt3__110__to_lowerB7v160006Eh, symObjAddr: 0x1910C, symBinAddr: 0x1000345EC, symSize: 0x1C }
  - { offsetInCU: 0x20B4B, offset: 0x7474F, size: 0x8, addend: 0x0, symName: __ZNSt3__119__throw_regex_errorB7v160006ILNS_15regex_constants10error_typeE5EEEvv, symObjAddr: 0x19128, symBinAddr: 0x100034608, symSize: 0x60 }
  - { offsetInCU: 0x20B70, offset: 0x74774, size: 0x8, addend: 0x0, symName: __ZNSt3__16searchB7v160006IPKcPcEET_S4_S4_T0_S5_, symObjAddr: 0x1ABB8, symBinAddr: 0x100036098, symSize: 0x3C }
  - { offsetInCU: 0x20BD9, offset: 0x747DD, size: 0x8, addend: 0x0, symName: __ZNSt3__119__throw_regex_errorB7v160006ILNS_15regex_constants10error_typeE1EEEvv, symObjAddr: 0x1AC34, symBinAddr: 0x100036114, symSize: 0x60 }
  - { offsetInCU: 0x20BFE, offset: 0x74802, size: 0x8, addend: 0x0, symName: __ZNSt3__16searchB7v160006IPKcPcNS_10__equal_toEEET_S5_S5_T0_S6_T1_, symObjAddr: 0x1ADB4, symBinAddr: 0x100036294, symSize: 0x64 }
  - { offsetInCU: 0x20C8B, offset: 0x7488F, size: 0x8, addend: 0x0, symName: __ZNSt3__113__search_implB7v160006IPKcS2_PcS3_NS_10__equal_toENS_10__identityES5_EENS_4pairIT_S7_EES7_T0_T1_T2_RT3_RT4_RT5_PNS_9enable_ifIXaasr33__is_cpp17_random_access_iteratorIS7_EE5valuesr33__is_cpp17_random_access_iteratorISA_EE5valueEvE4typeE, symObjAddr: 0x1AE18, symBinAddr: 0x1000362F8, symSize: 0xF8 }
  - { offsetInCU: 0x20D71, offset: 0x74975, size: 0x8, addend: 0x0, symName: __ZNSt3__19make_pairB7v160006IRPKcS3_EENS_4pairINS_18__unwrap_ref_decayIT_E4typeENS5_IT0_E4typeEEEOS6_OS9_, symObjAddr: 0x1AF10, symBinAddr: 0x1000363F0, symSize: 0x38 }
  - { offsetInCU: 0x20DC0, offset: 0x749C4, size: 0x8, addend: 0x0, symName: __ZNSt3__127__search_random_access_implB7v160006INS_17_ClassicAlgPolicyEPKcS3_PcS4_NS_10__equal_toENS_10__identityES6_llEENS_4pairIT0_S8_EES8_T1_T2_T3_RT4_RT5_RT6_T7_T8_, symObjAddr: 0x1AF48, symBinAddr: 0x100036428, symSize: 0x1BC }
  - { offsetInCU: 0x20EF2, offset: 0x74AF6, size: 0x8, addend: 0x0, symName: __ZNSt3__18__invokeB7v160006IRNS_10__equal_toEJRKcRcEEEDTclclsr3stdE7declvalIT_EEspclsr3stdE7declvalIT0_EEEEOS6_DpOS7_, symObjAddr: 0x1B194, symBinAddr: 0x100036674, symSize: 0x38 }
  - { offsetInCU: 0x20F57, offset: 0x74B5B, size: 0x8, addend: 0x0, symName: __ZNSt3__18__invokeB7v160006IRNS_10__identityEJRKcEEEDTclclsr3stdE7declvalIT_EEspclsr3stdE7declvalIT0_EEEEOS5_DpOS6_, symObjAddr: 0x1B1CC, symBinAddr: 0x1000366AC, symSize: 0x2C }
  - { offsetInCU: 0x20FA8, offset: 0x74BAC, size: 0x8, addend: 0x0, symName: __ZNSt3__18__invokeB7v160006IRNS_10__identityEJRcEEEDTclclsr3stdE7declvalIT_EEspclsr3stdE7declvalIT0_EEEEOS4_DpOS5_, symObjAddr: 0x1B1F8, symBinAddr: 0x1000366D8, symSize: 0x2C }
  - { offsetInCU: 0x20FF9, offset: 0x74BFD, size: 0x8, addend: 0x0, symName: __ZNSt3__19make_pairB7v160006IRPKcS2_EENS_4pairINS_18__unwrap_ref_decayIT_E4typeENS5_IT0_E4typeEEEOS6_OS9_, symObjAddr: 0x1B224, symBinAddr: 0x100036704, symSize: 0x38 }
  - { offsetInCU: 0x21098, offset: 0x74C9C, size: 0x8, addend: 0x0, symName: __ZNSt3__18distanceB7v160006IPKcEENS_15iterator_traitsIT_E15difference_typeES4_S4_, symObjAddr: 0x1B704, symBinAddr: 0x100036BE4, symSize: 0x2C }
  - { offsetInCU: 0x210DB, offset: 0x74CDF, size: 0x8, addend: 0x0, symName: __ZNSt3__110__distanceB7v160006IPKcEENS_15iterator_traitsIT_E15difference_typeES4_S4_NS_26random_access_iterator_tagE, symObjAddr: 0x1B730, symBinAddr: 0x100036C10, symSize: 0x20 }
  - { offsetInCU: 0x21129, offset: 0x74D2D, size: 0x8, addend: 0x0, symName: __ZNSt3__18distanceB7v160006INS_11__wrap_iterIPcEEEENS_15iterator_traitsIT_E15difference_typeES5_S5_, symObjAddr: 0x1BB0C, symBinAddr: 0x100036FEC, symSize: 0x3C }
  - { offsetInCU: 0x2116C, offset: 0x74D70, size: 0x8, addend: 0x0, symName: __ZNSt3__1neB7v160006IPcEEbRKNS_11__wrap_iterIT_EES6_, symObjAddr: 0x1BB48, symBinAddr: 0x100037028, symSize: 0x34 }
  - { offsetInCU: 0x211AF, offset: 0x74DB3, size: 0x8, addend: 0x0, symName: __ZNSt3__110__distanceB7v160006INS_11__wrap_iterIPcEEEENS_15iterator_traitsIT_E15difference_typeES5_S5_NS_26random_access_iterator_tagE, symObjAddr: 0x1BBB4, symBinAddr: 0x100037094, symSize: 0x30 }
  - { offsetInCU: 0x211FD, offset: 0x74E01, size: 0x8, addend: 0x0, symName: __ZNSt3__1miB7v160006IPcS1_EEDTmicldtfp_4baseEcldtfp0_4baseEERKNS_11__wrap_iterIT_EERKNS3_IT0_EE, symObjAddr: 0x1BBE4, symBinAddr: 0x1000370C4, symSize: 0x40 }
  - { offsetInCU: 0x21249, offset: 0x74E4D, size: 0x8, addend: 0x0, symName: __ZNSt3__1eqB7v160006IPcEEbRKNS_11__wrap_iterIT_EES6_, symObjAddr: 0x1BC3C, symBinAddr: 0x10003711C, symSize: 0x48 }
  - { offsetInCU: 0x2128C, offset: 0x74E90, size: 0x8, addend: 0x0, symName: __ZNSt3__119__allocate_at_leastB7v160006INS_9allocatorINS_12basic_stringIcNS_11char_traitsIcEENS1_IcEEEEEEEENS_19__allocation_resultINS_16allocator_traitsIT_E7pointerEEERSA_m, symObjAddr: 0x1C4F4, symBinAddr: 0x1000379D4, symSize: 0x40 }
  - { offsetInCU: 0x212CF, offset: 0x74ED3, size: 0x8, addend: 0x0, symName: __ZNSt3__142__uninitialized_allocator_move_if_noexceptB7v160006INS_9allocatorINS_12basic_stringIcNS_11char_traitsIcEENS1_IcEEEEEENS_16reverse_iteratorIPS6_EESA_SA_EET2_RT_T0_T1_SB_, symObjAddr: 0x1C6AC, symBinAddr: 0x100037B8C, symSize: 0x12C }
  - { offsetInCU: 0x2136F, offset: 0x74F73, size: 0x8, addend: 0x0, symName: __ZNSt3__14swapB7v160006IPNS_12basic_stringIcNS_11char_traitsIcEENS_9allocatorIcEEEEEENS_9enable_ifIXaasr21is_move_constructibleIT_EE5valuesr18is_move_assignableIS9_EE5valueEvE4typeERS9_SC_, symObjAddr: 0x1C824, symBinAddr: 0x100037D04, symSize: 0x3C }
  - { offsetInCU: 0x213C0, offset: 0x74FC4, size: 0x8, addend: 0x0, symName: __ZNSt3__125__debug_db_invalidate_allB7v160006INS_6vectorINS_12basic_stringIcNS_11char_traitsIcEENS_9allocatorIcEEEENS5_IS7_EEEEEEvPT_, symObjAddr: 0x1C928, symBinAddr: 0x100037E08, symSize: 0x10 }
  - { offsetInCU: 0x213F1, offset: 0x74FF5, size: 0x8, addend: 0x0, symName: __ZNSt3__122__make_exception_guardB7v160006INS_29_AllocatorDestroyRangeReverseINS_9allocatorINS_12basic_stringIcNS_11char_traitsIcEENS2_IcEEEEEENS_16reverse_iteratorIPS7_EEEEEENS_28__exception_guard_exceptionsIT_EESE_, symObjAddr: 0x1C938, symBinAddr: 0x100037E18, symSize: 0x4C }
  - { offsetInCU: 0x21427, offset: 0x7502B, size: 0x8, addend: 0x0, symName: __ZNSt3__1neB7v160006IPNS_12basic_stringIcNS_11char_traitsIcEENS_9allocatorIcEEEES7_EEbRKNS_16reverse_iteratorIT_EERKNS8_IT0_EE, symObjAddr: 0x1C9C8, symBinAddr: 0x100037EA8, symSize: 0x48 }
  - { offsetInCU: 0x21473, offset: 0x75077, size: 0x8, addend: 0x0, symName: __ZNSt3__112__to_addressB7v160006INS_16reverse_iteratorIPNS_12basic_stringIcNS_11char_traitsIcEENS_9allocatorIcEEEEEEvEENS_5decayIDTclsr19__to_address_helperIT_EE6__callclsr3stdE7declvalIRKSB_EEEEE4typeESD_, symObjAddr: 0x1CA44, symBinAddr: 0x100037F24, symSize: 0x24 }
  - { offsetInCU: 0x214D3, offset: 0x750D7, size: 0x8, addend: 0x0, symName: __ZNSt3__119__allocator_destroyB7v160006INS_9allocatorINS_12basic_stringIcNS_11char_traitsIcEENS1_IcEEEEEENS_16reverse_iteratorINS8_IPS6_EEEESB_EEvRT_T0_T1_, symObjAddr: 0x1CD24, symBinAddr: 0x100038204, symSize: 0x70 }
  - { offsetInCU: 0x21538, offset: 0x7513C, size: 0x8, addend: 0x0, symName: __ZNSt3__1neB7v160006INS_16reverse_iteratorIPNS_12basic_stringIcNS_11char_traitsIcEENS_9allocatorIcEEEEEES9_EEbRKNS1_IT_EERKNS1_IT0_EE, symObjAddr: 0x1CDD0, symBinAddr: 0x1000382B0, symSize: 0x60 }
  - { offsetInCU: 0x21584, offset: 0x75188, size: 0x8, addend: 0x0, symName: __ZNSt3__112__to_addressB7v160006INS_16reverse_iteratorINS1_IPNS_12basic_stringIcNS_11char_traitsIcEENS_9allocatorIcEEEEEEEEvEENS_5decayIDTclsr19__to_address_helperIT_EE6__callclsr3stdE7declvalIRKSC_EEEEE4typeESE_, symObjAddr: 0x1CE30, symBinAddr: 0x100038310, symSize: 0x24 }
  - { offsetInCU: 0x215E5, offset: 0x751E9, size: 0x8, addend: 0x0, symName: __ZNSt3__119__throw_regex_errorB7v160006ILNS_15regex_constants10error_typeE2EEEvv, symObjAddr: 0x1D1E4, symBinAddr: 0x1000386C4, symSize: 0x60 }
  - { offsetInCU: 0x2160A, offset: 0x7520E, size: 0x8, addend: 0x0, symName: __ZNSt3__19make_pairB7v160006INS_12basic_stringIcNS_11char_traitsIcEENS_9allocatorIcEEEES6_EENS_4pairINS_18__unwrap_ref_decayIT_E4typeENS8_IT0_E4typeEEEOS9_OSC_, symObjAddr: 0x1D4C0, symBinAddr: 0x1000389A0, symSize: 0x40 }
  - { offsetInCU: 0x2165A, offset: 0x7525E, size: 0x8, addend: 0x0, symName: __ZNSt3__119__throw_regex_errorB7v160006ILNS_15regex_constants10error_typeE9EEEvv, symObjAddr: 0x1D600, symBinAddr: 0x100038AE0, symSize: 0x60 }
  - { offsetInCU: 0x2167F, offset: 0x75283, size: 0x8, addend: 0x0, symName: __ZNSt3__119__allocate_at_leastB7v160006INS_9allocatorINS_4pairINS_12basic_stringIcNS_11char_traitsIcEENS1_IcEEEES7_EEEEEENS_19__allocation_resultINS_16allocator_traitsIT_E7pointerEEERSC_m, symObjAddr: 0x1DE4C, symBinAddr: 0x10003932C, symSize: 0x40 }
  - { offsetInCU: 0x216C2, offset: 0x752C6, size: 0x8, addend: 0x0, symName: __ZNSt3__142__uninitialized_allocator_move_if_noexceptB7v160006INS_9allocatorINS_4pairINS_12basic_stringIcNS_11char_traitsIcEENS1_IcEEEES7_EEEENS_16reverse_iteratorIPS8_EESC_SC_EET2_RT_T0_T1_SD_, symObjAddr: 0x1E004, symBinAddr: 0x1000394E4, symSize: 0x12C }
  - { offsetInCU: 0x21762, offset: 0x75366, size: 0x8, addend: 0x0, symName: __ZNSt3__14swapB7v160006IPNS_4pairINS_12basic_stringIcNS_11char_traitsIcEENS_9allocatorIcEEEES7_EEEENS_9enable_ifIXaasr21is_move_constructibleIT_EE5valuesr18is_move_assignableISB_EE5valueEvE4typeERSB_SE_, symObjAddr: 0x1E17C, symBinAddr: 0x10003965C, symSize: 0x3C }
  - { offsetInCU: 0x217B3, offset: 0x753B7, size: 0x8, addend: 0x0, symName: __ZNSt3__125__debug_db_invalidate_allB7v160006INS_6vectorINS_4pairINS_12basic_stringIcNS_11char_traitsIcEENS_9allocatorIcEEEES8_EENS6_IS9_EEEEEEvPT_, symObjAddr: 0x1E280, symBinAddr: 0x100039760, symSize: 0x10 }
  - { offsetInCU: 0x217E4, offset: 0x753E8, size: 0x8, addend: 0x0, symName: __ZNSt3__122__make_exception_guardB7v160006INS_29_AllocatorDestroyRangeReverseINS_9allocatorINS_4pairINS_12basic_stringIcNS_11char_traitsIcEENS2_IcEEEES8_EEEENS_16reverse_iteratorIPS9_EEEEEENS_28__exception_guard_exceptionsIT_EESG_, symObjAddr: 0x1E290, symBinAddr: 0x100039770, symSize: 0x4C }
  - { offsetInCU: 0x2181A, offset: 0x7541E, size: 0x8, addend: 0x0, symName: __ZNSt3__1neB7v160006IPNS_4pairINS_12basic_stringIcNS_11char_traitsIcEENS_9allocatorIcEEEES7_EES9_EEbRKNS_16reverse_iteratorIT_EERKNSA_IT0_EE, symObjAddr: 0x1E320, symBinAddr: 0x100039800, symSize: 0x48 }
  - { offsetInCU: 0x21866, offset: 0x7546A, size: 0x8, addend: 0x0, symName: __ZNSt3__112__to_addressB7v160006INS_16reverse_iteratorIPNS_4pairINS_12basic_stringIcNS_11char_traitsIcEENS_9allocatorIcEEEES8_EEEEvEENS_5decayIDTclsr19__to_address_helperIT_EE6__callclsr3stdE7declvalIRKSD_EEEEE4typeESF_, symObjAddr: 0x1E368, symBinAddr: 0x100039848, symSize: 0x24 }
  - { offsetInCU: 0x218C6, offset: 0x754CA, size: 0x8, addend: 0x0, symName: __ZNSt3__119__allocator_destroyB7v160006INS_9allocatorINS_4pairINS_12basic_stringIcNS_11char_traitsIcEENS1_IcEEEES7_EEEENS_16reverse_iteratorINSA_IPS8_EEEESD_EEvRT_T0_T1_, symObjAddr: 0x1E618, symBinAddr: 0x100039AF8, symSize: 0x70 }
  - { offsetInCU: 0x2192B, offset: 0x7552F, size: 0x8, addend: 0x0, symName: __ZNSt3__1neB7v160006INS_16reverse_iteratorIPNS_4pairINS_12basic_stringIcNS_11char_traitsIcEENS_9allocatorIcEEEES8_EEEESB_EEbRKNS1_IT_EERKNS1_IT0_EE, symObjAddr: 0x1E6C4, symBinAddr: 0x100039BA4, symSize: 0x60 }
  - { offsetInCU: 0x21977, offset: 0x7557B, size: 0x8, addend: 0x0, symName: __ZNSt3__112__to_addressB7v160006INS_16reverse_iteratorINS1_IPNS_4pairINS_12basic_stringIcNS_11char_traitsIcEENS_9allocatorIcEEEES8_EEEEEEvEENS_5decayIDTclsr19__to_address_helperIT_EE6__callclsr3stdE7declvalIRKSE_EEEEE4typeESG_, symObjAddr: 0x1E724, symBinAddr: 0x100039C04, symSize: 0x24 }
  - { offsetInCU: 0x219D7, offset: 0x755DB, size: 0x8, addend: 0x0, symName: __ZNSt3__115__debug_db_swapB7v160006INS_12basic_stringIcNS_11char_traitsIcEENS_9allocatorIcEEEEEEvPT_S8_, symObjAddr: 0x1EB90, symBinAddr: 0x10003A070, symSize: 0x14 }
  - { offsetInCU: 0x21A16, offset: 0x7561A, size: 0x8, addend: 0x0, symName: __ZNSt3__19make_pairB7v160006IccEENS_4pairINS_18__unwrap_ref_decayIT_E4typeENS2_IT0_E4typeEEEOS3_OS6_, symObjAddr: 0x1EC10, symBinAddr: 0x10003A0F0, symSize: 0x34 }
  - { offsetInCU: 0x21A65, offset: 0x75669, size: 0x8, addend: 0x0, symName: __ZNSt3__19make_pairB7v160006IRcS1_EENS_4pairINS_18__unwrap_ref_decayIT_E4typeENS3_IT0_E4typeEEEOS4_OS7_, symObjAddr: 0x1EC44, symBinAddr: 0x10003A124, symSize: 0x34 }
  - { offsetInCU: 0x21AB4, offset: 0x756B8, size: 0x8, addend: 0x0, symName: __ZNSt3__119__allocate_at_leastB7v160006INS_9allocatorINS_4pairIccEEEEEENS_19__allocation_resultINS_16allocator_traitsIT_E7pointerEEERS7_m, symObjAddr: 0x1F3C8, symBinAddr: 0x10003A8A8, symSize: 0x40 }
  - { offsetInCU: 0x21AF7, offset: 0x756FB, size: 0x8, addend: 0x0, symName: __ZNSt3__142__uninitialized_allocator_move_if_noexceptB7v160006INS_9allocatorINS_4pairIccEEEENS_16reverse_iteratorIPS3_EES7_S7_EET2_RT_T0_T1_S8_, symObjAddr: 0x1F57C, symBinAddr: 0x10003AA5C, symSize: 0x12C }
  - { offsetInCU: 0x21B97, offset: 0x7579B, size: 0x8, addend: 0x0, symName: __ZNSt3__14swapB7v160006IPNS_4pairIccEEEENS_9enable_ifIXaasr21is_move_constructibleIT_EE5valuesr18is_move_assignableIS5_EE5valueEvE4typeERS5_S8_, symObjAddr: 0x1F6F4, symBinAddr: 0x10003ABD4, symSize: 0x3C }
  - { offsetInCU: 0x21BE8, offset: 0x757EC, size: 0x8, addend: 0x0, symName: __ZNSt3__125__debug_db_invalidate_allB7v160006INS_6vectorINS_4pairIccEENS_9allocatorIS3_EEEEEEvPT_, symObjAddr: 0x1F7DC, symBinAddr: 0x10003ACBC, symSize: 0x10 }
  - { offsetInCU: 0x21C19, offset: 0x7581D, size: 0x8, addend: 0x0, symName: __ZNSt3__122__make_exception_guardB7v160006INS_29_AllocatorDestroyRangeReverseINS_9allocatorINS_4pairIccEEEENS_16reverse_iteratorIPS4_EEEEEENS_28__exception_guard_exceptionsIT_EESB_, symObjAddr: 0x1F7EC, symBinAddr: 0x10003ACCC, symSize: 0x4C }
  - { offsetInCU: 0x21C4F, offset: 0x75853, size: 0x8, addend: 0x0, symName: __ZNSt3__1neB7v160006IPNS_4pairIccEES3_EEbRKNS_16reverse_iteratorIT_EERKNS4_IT0_EE, symObjAddr: 0x1F87C, symBinAddr: 0x10003AD5C, symSize: 0x48 }
  - { offsetInCU: 0x21C9B, offset: 0x7589F, size: 0x8, addend: 0x0, symName: __ZNSt3__112__to_addressB7v160006INS_16reverse_iteratorIPNS_4pairIccEEEEvEENS_5decayIDTclsr19__to_address_helperIT_EE6__callclsr3stdE7declvalIRKS7_EEEEE4typeES9_, symObjAddr: 0x1F8C4, symBinAddr: 0x10003ADA4, symSize: 0x24 }
  - { offsetInCU: 0x21CFB, offset: 0x758FF, size: 0x8, addend: 0x0, symName: __ZNSt3__119__allocator_destroyB7v160006INS_9allocatorINS_4pairIccEEEENS_16reverse_iteratorINS5_IPS3_EEEES8_EEvRT_T0_T1_, symObjAddr: 0x1FB74, symBinAddr: 0x10003B054, symSize: 0x70 }
  - { offsetInCU: 0x21D60, offset: 0x75964, size: 0x8, addend: 0x0, symName: __ZNSt3__1neB7v160006INS_16reverse_iteratorIPNS_4pairIccEEEES5_EEbRKNS1_IT_EERKNS1_IT0_EE, symObjAddr: 0x1FC20, symBinAddr: 0x10003B100, symSize: 0x60 }
  - { offsetInCU: 0x21DAC, offset: 0x759B0, size: 0x8, addend: 0x0, symName: __ZNSt3__112__to_addressB7v160006INS_16reverse_iteratorINS1_IPNS_4pairIccEEEEEEvEENS_5decayIDTclsr19__to_address_helperIT_EE6__callclsr3stdE7declvalIRKS8_EEEEE4typeESA_, symObjAddr: 0x1FC80, symBinAddr: 0x10003B160, symSize: 0x24 }
  - { offsetInCU: 0x21F1B, offset: 0x75B1F, size: 0x8, addend: 0x0, symName: __ZNSt3__119__throw_regex_errorB7v160006ILNS_15regex_constants10error_typeE8EEEvv, symObjAddr: 0x20898, symBinAddr: 0x10003BD78, symSize: 0x60 }
  - { offsetInCU: 0x21F41, offset: 0x75B45, size: 0x8, addend: 0x0, symName: __ZNSt3__119__throw_regex_errorB7v160006ILNS_15regex_constants10error_typeE7EEEvv, symObjAddr: 0x208F8, symBinAddr: 0x10003BDD8, symSize: 0x60 }
  - { offsetInCU: 0x2288F, offset: 0x76493, size: 0x8, addend: 0x0, symName: __ZNSt3__119__throw_regex_errorB7v160006ILNS_15regex_constants10error_typeE15EEEvv, symObjAddr: 0x21934, symBinAddr: 0x10003CE14, symSize: 0x60 }
  - { offsetInCU: 0x22929, offset: 0x7652D, size: 0x8, addend: 0x0, symName: __ZNSt3__14findB7v160006IPKccEET_S3_S3_RKT0_, symObjAddr: 0x2306C, symBinAddr: 0x10003E54C, symSize: 0x70 }
  - { offsetInCU: 0x22983, offset: 0x76587, size: 0x8, addend: 0x0, symName: __ZNSt3__17getlineB7v160006IcNS_11char_traitsIcEENS_9allocatorIcEEEERNS_13basic_istreamIT_T0_EES9_RNS_12basic_stringIS6_S7_T1_EES6_, symObjAddr: 0x23418, symBinAddr: 0x10003E84C, symSize: 0x238 }
  - { offsetInCU: 0x22A41, offset: 0x76645, size: 0x8, addend: 0x0, symName: __ZNSt3__119__debug_db_insert_cB7v160006INS_6vectorINS_9sub_matchINS_11__wrap_iterIPKcEEEENS_9allocatorIS7_EEEEEEvPT_, symObjAddr: 0x23A84, symBinAddr: 0x10003EEB8, symSize: 0x10 }
  - { offsetInCU: 0x22A72, offset: 0x76676, size: 0x8, addend: 0x0, symName: __ZNSt3__119__debug_db_insert_iB7v160006INS_11__wrap_iterIPKcEEEEvPT_, symObjAddr: 0x23BAC, symBinAddr: 0x10003EFE0, symSize: 0x10 }
  - { offsetInCU: 0x22AA3, offset: 0x766A7, size: 0x8, addend: 0x0, symName: __ZNSt3__111regex_matchB7v160006INS_11__wrap_iterIPKcEENS_9allocatorINS_9sub_matchIS4_EEEEcNS_12regex_traitsIcEEEEbT_SB_RNS_13match_resultsISB_T0_EERKNS_11basic_regexIT1_T2_EENS_15regex_constants15match_flag_typeE, symObjAddr: 0x23BBC, symBinAddr: 0x10003EFF0, symSize: 0xD0 }
  - { offsetInCU: 0x22B40, offset: 0x76744, size: 0x8, addend: 0x0, symName: __ZNSt3__112regex_searchB7v160006IPKcNS_9allocatorINS_9sub_matchINS_11__wrap_iterIS2_EEEEEEcNS_12regex_traitsIcEEEEbNS5_IT_EESC_RNS_13match_resultsISC_T0_EERKNS_11basic_regexIT1_T2_EENS_15regex_constants15match_flag_typeE, symObjAddr: 0x23D2C, symBinAddr: 0x10003F160, symSize: 0x124 }
  - { offsetInCU: 0x22F93, offset: 0x76B97, size: 0x8, addend: 0x0, symName: __ZNSt3__14swapB7v160006IPPNS_7__stateIcEEEENS_9enable_ifIXaasr21is_move_constructibleIT_EE5valuesr18is_move_assignableIS6_EE5valueEvE4typeERS6_S9_, symObjAddr: 0x26ED8, symBinAddr: 0x1000422D4, symSize: 0x3C }
  - { offsetInCU: 0x22FE4, offset: 0x76BE8, size: 0x8, addend: 0x0, symName: __ZNSt3__14moveB7v160006IPPNS_7__stateIcEES4_EET0_T_S6_S5_, symObjAddr: 0x27008, symBinAddr: 0x100042404, symSize: 0x40 }
  - { offsetInCU: 0x2303E, offset: 0x76C42, size: 0x8, addend: 0x0, symName: __ZNSt3__112__to_addressB7v160006IPNS_7__stateIcEEEEPT_S5_, symObjAddr: 0x271AC, symBinAddr: 0x1000425A8, symSize: 0x14 }
  - { offsetInCU: 0x23073, offset: 0x76C77, size: 0x8, addend: 0x0, symName: __ZNSt3__16__moveB7v160006INS_17_ClassicAlgPolicyEPPNS_7__stateIcEES5_S5_EENS_4pairIT0_T2_EES7_T1_S8_, symObjAddr: 0x271C0, symBinAddr: 0x1000425BC, symSize: 0x44 }
  - { offsetInCU: 0x230DF, offset: 0x76CE3, size: 0x8, addend: 0x0, symName: __ZNSt3__123__dispatch_copy_or_moveB7v160006INS_17_ClassicAlgPolicyENS_11__move_loopIS1_EENS_14__move_trivialEPPNS_7__stateIcEES8_S8_EENS_4pairIT2_T4_EESA_T3_SB_, symObjAddr: 0x27204, symBinAddr: 0x100042600, symSize: 0x44 }
  - { offsetInCU: 0x2315D, offset: 0x76D61, size: 0x8, addend: 0x0, symName: __ZNSt3__121__unwrap_and_dispatchB7v160006INS_10__overloadINS_11__move_loopINS_17_ClassicAlgPolicyEEENS_14__move_trivialEEEPPNS_7__stateIcEESA_SA_Li0EEENS_4pairIT0_T2_EESC_T1_SD_, symObjAddr: 0x27248, symBinAddr: 0x100042644, symSize: 0xB4 }
  - { offsetInCU: 0x231EC, offset: 0x76DF0, size: 0x8, addend: 0x0, symName: __ZNSt3__114__unwrap_rangeB7v160006IPPNS_7__stateIcEES4_EENS_4pairIT0_S6_EET_S8_, symObjAddr: 0x272FC, symBinAddr: 0x1000426F8, symSize: 0x60 }
  - { offsetInCU: 0x233B4, offset: 0x76FB8, size: 0x8, addend: 0x0, symName: __ZNSt3__113__unwrap_iterB7v160006IPPNS_7__stateIcEENS_18__unwrap_iter_implIS4_Lb1EEELi0EEEDTclsrT0_8__unwrapclsr3stdE7declvalIT_EEEES8_, symObjAddr: 0x273A4, symBinAddr: 0x1000427A0, symSize: 0x24 }
  - { offsetInCU: 0x233F9, offset: 0x76FFD, size: 0x8, addend: 0x0, symName: __ZNSt3__19make_pairB7v160006IPPNS_7__stateIcEES4_EENS_4pairINS_18__unwrap_ref_decayIT_E4typeENS6_IT0_E4typeEEEOS7_OSA_, symObjAddr: 0x273C8, symBinAddr: 0x1000427C4, symSize: 0x38 }
  - { offsetInCU: 0x23448, offset: 0x7704C, size: 0x8, addend: 0x0, symName: __ZNSt3__114__rewrap_rangeB7v160006IPPNS_7__stateIcEES4_EET_S5_T0_, symObjAddr: 0x27400, symBinAddr: 0x1000427FC, symSize: 0x2C }
  - { offsetInCU: 0x23494, offset: 0x77098, size: 0x8, addend: 0x0, symName: __ZNSt3__113__rewrap_iterB7v160006IPPNS_7__stateIcEES4_NS_18__unwrap_iter_implIS4_Lb1EEEEET_S7_T0_, symObjAddr: 0x2742C, symBinAddr: 0x100042828, symSize: 0x3C }
  - { offsetInCU: 0x234E9, offset: 0x770ED, size: 0x8, addend: 0x0, symName: __ZNSt3__119__copy_trivial_implB7v160006IPNS_7__stateIcEES3_EENS_4pairIPT_PT0_EES6_S6_S8_, symObjAddr: 0x27468, symBinAddr: 0x100042864, symSize: 0x84 }
  - { offsetInCU: 0x23551, offset: 0x77155, size: 0x8, addend: 0x0, symName: __ZNSt3__19make_pairB7v160006IRPPNS_7__stateIcEES4_EENS_4pairINS_18__unwrap_ref_decayIT_E4typeENS7_IT0_E4typeEEEOS8_OSB_, symObjAddr: 0x274EC, symBinAddr: 0x1000428E8, symSize: 0x38 }
  - { offsetInCU: 0x235F3, offset: 0x771F7, size: 0x8, addend: 0x0, symName: __ZNSt3__18distanceB7v160006INS_13move_iteratorIPPNS_7__stateIcEEEEEENS_15iterator_traitsIT_E15difference_typeES8_S8_, symObjAddr: 0x27678, symBinAddr: 0x100042A74, symSize: 0x3C }
  - { offsetInCU: 0x23636, offset: 0x7723A, size: 0x8, addend: 0x0, symName: __ZNSt3__110__distanceB7v160006INS_13move_iteratorIPPNS_7__stateIcEEEEEENS_15iterator_traitsIT_E15difference_typeES8_S8_NS_26random_access_iterator_tagE, symObjAddr: 0x277B0, symBinAddr: 0x100042BAC, symSize: 0x30 }
  - { offsetInCU: 0x23684, offset: 0x77288, size: 0x8, addend: 0x0, symName: __ZNSt3__1miB7v160006IPPNS_7__stateIcEES4_EEDTmicldtfp_4baseEcldtfp0_4baseEERKNS_13move_iteratorIT_EERKNS6_IT0_EE, symObjAddr: 0x277E0, symBinAddr: 0x100042BDC, symSize: 0x48 }
  - { offsetInCU: 0x236D3, offset: 0x772D7, size: 0x8, addend: 0x0, symName: __ZNSt3__113move_backwardB7v160006IPPNS_7__stateIcEES4_EET0_T_S6_S5_, symObjAddr: 0x279B4, symBinAddr: 0x100042DB0, symSize: 0x40 }
  - { offsetInCU: 0x2372D, offset: 0x77331, size: 0x8, addend: 0x0, symName: __ZNSt3__115__move_backwardB7v160006INS_17_ClassicAlgPolicyEPPNS_7__stateIcEES5_S5_EENS_4pairIT0_T2_EES7_T1_S8_, symObjAddr: 0x279F4, symBinAddr: 0x100042DF0, symSize: 0x44 }
  - { offsetInCU: 0x23799, offset: 0x7739D, size: 0x8, addend: 0x0, symName: __ZNSt3__123__dispatch_copy_or_moveB7v160006INS_17_ClassicAlgPolicyENS_20__move_backward_loopIS1_EENS_23__move_backward_trivialEPPNS_7__stateIcEES8_S8_EENS_4pairIT2_T4_EESA_T3_SB_, symObjAddr: 0x27A38, symBinAddr: 0x100042E34, symSize: 0x44 }
  - { offsetInCU: 0x23817, offset: 0x7741B, size: 0x8, addend: 0x0, symName: __ZNSt3__121__unwrap_and_dispatchB7v160006INS_10__overloadINS_20__move_backward_loopINS_17_ClassicAlgPolicyEEENS_23__move_backward_trivialEEEPPNS_7__stateIcEESA_SA_Li0EEENS_4pairIT0_T2_EESC_T1_SD_, symObjAddr: 0x27A7C, symBinAddr: 0x100042E78, symSize: 0xB4 }
  - { offsetInCU: 0x238ED, offset: 0x774F1, size: 0x8, addend: 0x0, symName: __ZNSt3__128__copy_backward_trivial_implB7v160006IPNS_7__stateIcEES3_EENS_4pairIPT_PT0_EES6_S6_S8_, symObjAddr: 0x27B78, symBinAddr: 0x100042F74, symSize: 0x94 }
  - { offsetInCU: 0x23955, offset: 0x77559, size: 0x8, addend: 0x0, symName: __ZNSt3__19make_pairB7v160006IRPPNS_7__stateIcEES5_EENS_4pairINS_18__unwrap_ref_decayIT_E4typeENS7_IT0_E4typeEEEOS8_OSB_, symObjAddr: 0x27C0C, symBinAddr: 0x100043008, symSize: 0x38 }
  - { offsetInCU: 0x239A4, offset: 0x775A8, size: 0x8, addend: 0x0, symName: __ZNSt3__119__allocate_at_leastB7v160006INS_9allocatorIPNS_7__stateIcEEEEEENS_19__allocation_resultINS_16allocator_traitsIT_E7pointerEEERS8_m, symObjAddr: 0x27DFC, symBinAddr: 0x1000431F8, symSize: 0x40 }
  - { offsetInCU: 0x239E7, offset: 0x775EB, size: 0x8, addend: 0x0, symName: __ZNSt3__1neB7v160006ERKNS_16__deque_iteratorINS_7__stateIcEEPS2_RS2_PS3_lLl42EEES8_, symObjAddr: 0x28820, symBinAddr: 0x100043C1C, symSize: 0x34 }
  - { offsetInCU: 0x23A24, offset: 0x77628, size: 0x8, addend: 0x0, symName: __ZNSt3__1eqB7v160006ERKNS_16__deque_iteratorINS_7__stateIcEEPS2_RS2_PS3_lLl42EEES8_, symObjAddr: 0x288C4, symBinAddr: 0x100043CC0, symSize: 0x30 }
  - { offsetInCU: 0x23A61, offset: 0x77665, size: 0x8, addend: 0x0, symName: __ZNSt3__18distanceB7v160006IPNS_9sub_matchIPKcEEEENS_15iterator_traitsIT_E15difference_typeES7_S7_, symObjAddr: 0x29694, symBinAddr: 0x100044A90, symSize: 0x2C }
  - { offsetInCU: 0x23AA4, offset: 0x776A8, size: 0x8, addend: 0x0, symName: __ZNSt3__14copyB7v160006IPNS_9sub_matchIPKcEES5_EET0_T_S7_S6_, symObjAddr: 0x29710, symBinAddr: 0x100044B0C, symSize: 0x40 }
  - { offsetInCU: 0x23AFE, offset: 0x77702, size: 0x8, addend: 0x0, symName: __ZNSt3__110__distanceB7v160006IPNS_9sub_matchIPKcEEEENS_15iterator_traitsIT_E15difference_typeES7_S7_NS_26random_access_iterator_tagE, symObjAddr: 0x29750, symBinAddr: 0x100044B4C, symSize: 0x28 }
  - { offsetInCU: 0x23B4C, offset: 0x77750, size: 0x8, addend: 0x0, symName: __ZNSt3__19__advanceB7v160006IPNS_9sub_matchIPKcEEEEvRT_NS_15iterator_traitsIS6_E15difference_typeENS_26random_access_iterator_tagE, symObjAddr: 0x29778, symBinAddr: 0x100044B74, symSize: 0x30 }
  - { offsetInCU: 0x23B96, offset: 0x7779A, size: 0x8, addend: 0x0, symName: __ZNSt3__16__copyB7v160006INS_17_ClassicAlgPolicyEPNS_9sub_matchIPKcEES6_S6_EENS_4pairIT0_T2_EES8_T1_S9_, symObjAddr: 0x297A8, symBinAddr: 0x100044BA4, symSize: 0x44 }
  - { offsetInCU: 0x23C02, offset: 0x77806, size: 0x8, addend: 0x0, symName: __ZNSt3__123__dispatch_copy_or_moveB7v160006INS_17_ClassicAlgPolicyENS_11__copy_loopIS1_EENS_14__copy_trivialEPNS_9sub_matchIPKcEES9_S9_EENS_4pairIT2_T4_EESB_T3_SC_, symObjAddr: 0x297EC, symBinAddr: 0x100044BE8, symSize: 0x44 }
  - { offsetInCU: 0x23C80, offset: 0x77884, size: 0x8, addend: 0x0, symName: __ZNSt3__121__unwrap_and_dispatchB7v160006INS_10__overloadINS_11__copy_loopINS_17_ClassicAlgPolicyEEENS_14__copy_trivialEEEPNS_9sub_matchIPKcEESB_SB_Li0EEENS_4pairIT0_T2_EESD_T1_SE_, symObjAddr: 0x29830, symBinAddr: 0x100044C2C, symSize: 0xB4 }
  - { offsetInCU: 0x23D0F, offset: 0x77913, size: 0x8, addend: 0x0, symName: __ZNSt3__114__unwrap_rangeB7v160006IPNS_9sub_matchIPKcEES5_EENS_4pairIT0_S7_EET_S9_, symObjAddr: 0x298E4, symBinAddr: 0x100044CE0, symSize: 0x60 }
  - { offsetInCU: 0x23EC1, offset: 0x77AC5, size: 0x8, addend: 0x0, symName: __ZNSt3__113__unwrap_iterB7v160006IPNS_9sub_matchIPKcEENS_18__unwrap_iter_implIS5_Lb1EEELi0EEEDTclsrT0_8__unwrapclsr3stdE7declvalIT_EEEES9_, symObjAddr: 0x299CC, symBinAddr: 0x100044DC8, symSize: 0x24 }
  - { offsetInCU: 0x23F06, offset: 0x77B0A, size: 0x8, addend: 0x0, symName: __ZNSt3__19make_pairB7v160006IPNS_9sub_matchIPKcEES5_EENS_4pairINS_18__unwrap_ref_decayIT_E4typeENS7_IT0_E4typeEEEOS8_OSB_, symObjAddr: 0x299F0, symBinAddr: 0x100044DEC, symSize: 0x38 }
  - { offsetInCU: 0x23F55, offset: 0x77B59, size: 0x8, addend: 0x0, symName: __ZNSt3__114__rewrap_rangeB7v160006IPNS_9sub_matchIPKcEES5_EET_S6_T0_, symObjAddr: 0x29A28, symBinAddr: 0x100044E24, symSize: 0x2C }
  - { offsetInCU: 0x23FA1, offset: 0x77BA5, size: 0x8, addend: 0x0, symName: __ZNSt3__113__rewrap_iterB7v160006IPNS_9sub_matchIPKcEES5_NS_18__unwrap_iter_implIS5_Lb1EEEEET_S8_T0_, symObjAddr: 0x29A54, symBinAddr: 0x100044E50, symSize: 0x3C }
  - { offsetInCU: 0x24049, offset: 0x77C4D, size: 0x8, addend: 0x0, symName: __ZNSt3__18distanceB7v160006IPNS_4pairImPKcEEEENS_15iterator_traitsIT_E15difference_typeES7_S7_, symObjAddr: 0x29D38, symBinAddr: 0x100045134, symSize: 0x2C }
  - { offsetInCU: 0x2408C, offset: 0x77C90, size: 0x8, addend: 0x0, symName: __ZNSt3__14copyB7v160006IPNS_4pairImPKcEES5_EET0_T_S7_S6_, symObjAddr: 0x29DB4, symBinAddr: 0x1000451B0, symSize: 0x40 }
  - { offsetInCU: 0x240E6, offset: 0x77CEA, size: 0x8, addend: 0x0, symName: __ZNSt3__110__distanceB7v160006IPNS_4pairImPKcEEEENS_15iterator_traitsIT_E15difference_typeES7_S7_NS_26random_access_iterator_tagE, symObjAddr: 0x29E80, symBinAddr: 0x10004527C, symSize: 0x28 }
  - { offsetInCU: 0x24134, offset: 0x77D38, size: 0x8, addend: 0x0, symName: __ZNSt3__19__advanceB7v160006IPNS_4pairImPKcEEEEvRT_NS_15iterator_traitsIS6_E15difference_typeENS_26random_access_iterator_tagE, symObjAddr: 0x29EA8, symBinAddr: 0x1000452A4, symSize: 0x28 }
  - { offsetInCU: 0x2417E, offset: 0x77D82, size: 0x8, addend: 0x0, symName: __ZNSt3__16__copyB7v160006INS_17_ClassicAlgPolicyEPNS_4pairImPKcEES6_S6_EENS2_IT0_T2_EES7_T1_S8_, symObjAddr: 0x29ED0, symBinAddr: 0x1000452CC, symSize: 0x44 }
  - { offsetInCU: 0x241EA, offset: 0x77DEE, size: 0x8, addend: 0x0, symName: __ZNSt3__123__dispatch_copy_or_moveB7v160006INS_17_ClassicAlgPolicyENS_11__copy_loopIS1_EENS_14__copy_trivialEPNS_4pairImPKcEES9_S9_EENS5_IT2_T4_EESA_T3_SB_, symObjAddr: 0x29F14, symBinAddr: 0x100045310, symSize: 0x44 }
  - { offsetInCU: 0x24268, offset: 0x77E6C, size: 0x8, addend: 0x0, symName: __ZNSt3__121__unwrap_and_dispatchB7v160006INS_10__overloadINS_11__copy_loopINS_17_ClassicAlgPolicyEEENS_14__copy_trivialEEEPNS_4pairImPKcEESB_SB_Li0EEENS7_IT0_T2_EESC_T1_SD_, symObjAddr: 0x29F58, symBinAddr: 0x100045354, symSize: 0xB4 }
  - { offsetInCU: 0x242F7, offset: 0x77EFB, size: 0x8, addend: 0x0, symName: __ZNSt3__114__unwrap_rangeB7v160006IPNS_4pairImPKcEES5_EENS1_IT0_S6_EET_S8_, symObjAddr: 0x2A00C, symBinAddr: 0x100045408, symSize: 0x60 }
  - { offsetInCU: 0x24418, offset: 0x7801C, size: 0x8, addend: 0x0, symName: __ZNSt3__113__unwrap_iterB7v160006IPNS_4pairImPKcEENS_18__unwrap_iter_implIS5_Lb1EEELi0EEEDTclsrT0_8__unwrapclsr3stdE7declvalIT_EEEES9_, symObjAddr: 0x2A0F4, symBinAddr: 0x1000454F0, symSize: 0x24 }
  - { offsetInCU: 0x2445D, offset: 0x78061, size: 0x8, addend: 0x0, symName: __ZNSt3__19make_pairB7v160006IPNS_4pairImPKcEES5_EENS1_INS_18__unwrap_ref_decayIT_E4typeENS6_IT0_E4typeEEEOS7_OSA_, symObjAddr: 0x2A118, symBinAddr: 0x100045514, symSize: 0x38 }
  - { offsetInCU: 0x244AC, offset: 0x780B0, size: 0x8, addend: 0x0, symName: __ZNSt3__114__rewrap_rangeB7v160006IPNS_4pairImPKcEES5_EET_S6_T0_, symObjAddr: 0x2A150, symBinAddr: 0x10004554C, symSize: 0x2C }
  - { offsetInCU: 0x244F8, offset: 0x780FC, size: 0x8, addend: 0x0, symName: __ZNSt3__113__rewrap_iterB7v160006IPNS_4pairImPKcEES5_NS_18__unwrap_iter_implIS5_Lb1EEEEET_S8_T0_, symObjAddr: 0x2A17C, symBinAddr: 0x100045578, symSize: 0x3C }
  - { offsetInCU: 0x245A0, offset: 0x781A4, size: 0x8, addend: 0x0, symName: __ZNSt3__14nextB7v160006INS_11__wrap_iterIPKcEEEENS_9enable_ifIXsr25__is_cpp17_input_iteratorIT_EE5valueES6_E4typeES6_NS_15iterator_traitsIS6_E15difference_typeE, symObjAddr: 0x2A3F8, symBinAddr: 0x1000457F4, symSize: 0x50 }
  - { offsetInCU: 0x245E3, offset: 0x781E7, size: 0x8, addend: 0x0, symName: __ZNSt3__119__allocate_at_leastB7v160006INS_9allocatorINS_9sub_matchINS_11__wrap_iterIPKcEEEEEEEENS_19__allocation_resultINS_16allocator_traitsIT_E7pointerEEERSB_m, symObjAddr: 0x2AD84, symBinAddr: 0x100046180, symSize: 0x40 }
  - { offsetInCU: 0x24626, offset: 0x7822A, size: 0x8, addend: 0x0, symName: __ZNSt3__142__uninitialized_allocator_move_if_noexceptB7v160006INS_9allocatorINS_9sub_matchINS_11__wrap_iterIPKcEEEEEENS_16reverse_iteratorIPS7_EESB_SB_EET2_RT_T0_T1_SC_, symObjAddr: 0x2B010, symBinAddr: 0x10004640C, symSize: 0x12C }
  - { offsetInCU: 0x246C6, offset: 0x782CA, size: 0x8, addend: 0x0, symName: __ZNSt3__14swapB7v160006IPNS_9sub_matchINS_11__wrap_iterIPKcEEEEEENS_9enable_ifIXaasr21is_move_constructibleIT_EE5valuesr18is_move_assignableIS9_EE5valueEvE4typeERS9_SC_, symObjAddr: 0x2B188, symBinAddr: 0x100046584, symSize: 0x3C }
  - { offsetInCU: 0x24717, offset: 0x7831B, size: 0x8, addend: 0x0, symName: __ZNSt3__125__debug_db_invalidate_allB7v160006INS_6vectorINS_9sub_matchINS_11__wrap_iterIPKcEEEENS_9allocatorIS7_EEEEEEvPT_, symObjAddr: 0x2B28C, symBinAddr: 0x100046688, symSize: 0x10 }
  - { offsetInCU: 0x24748, offset: 0x7834C, size: 0x8, addend: 0x0, symName: __ZNSt3__122__make_exception_guardB7v160006INS_29_AllocatorDestroyRangeReverseINS_9allocatorINS_9sub_matchINS_11__wrap_iterIPKcEEEEEENS_16reverse_iteratorIPS8_EEEEEENS_28__exception_guard_exceptionsIT_EESF_, symObjAddr: 0x2B29C, symBinAddr: 0x100046698, symSize: 0x4C }
  - { offsetInCU: 0x2477E, offset: 0x78382, size: 0x8, addend: 0x0, symName: __ZNSt3__1neB7v160006IPNS_9sub_matchINS_11__wrap_iterIPKcEEEES7_EEbRKNS_16reverse_iteratorIT_EERKNS8_IT0_EE, symObjAddr: 0x2B32C, symBinAddr: 0x100046728, symSize: 0x48 }
  - { offsetInCU: 0x247CA, offset: 0x783CE, size: 0x8, addend: 0x0, symName: __ZNSt3__112__to_addressB7v160006INS_16reverse_iteratorIPNS_9sub_matchINS_11__wrap_iterIPKcEEEEEEvEENS_5decayIDTclsr19__to_address_helperIT_EE6__callclsr3stdE7declvalIRKSB_EEEEE4typeESD_, symObjAddr: 0x2B3A8, symBinAddr: 0x1000467A4, symSize: 0x24 }
  - { offsetInCU: 0x2482A, offset: 0x7842E, size: 0x8, addend: 0x0, symName: __ZNSt3__119__allocator_destroyB7v160006INS_9allocatorINS_9sub_matchINS_11__wrap_iterIPKcEEEEEENS_16reverse_iteratorINS9_IPS7_EEEESC_EEvRT_T0_T1_, symObjAddr: 0x2B688, symBinAddr: 0x100046A84, symSize: 0x70 }
  - { offsetInCU: 0x2488F, offset: 0x78493, size: 0x8, addend: 0x0, symName: __ZNSt3__1neB7v160006INS_16reverse_iteratorIPNS_9sub_matchINS_11__wrap_iterIPKcEEEEEES9_EEbRKNS1_IT_EERKNS1_IT0_EE, symObjAddr: 0x2B734, symBinAddr: 0x100046B30, symSize: 0x60 }
  - { offsetInCU: 0x248DB, offset: 0x784DF, size: 0x8, addend: 0x0, symName: __ZNSt3__112__to_addressB7v160006INS_16reverse_iteratorINS1_IPNS_9sub_matchINS_11__wrap_iterIPKcEEEEEEEEvEENS_5decayIDTclsr19__to_address_helperIT_EE6__callclsr3stdE7declvalIRKSC_EEEEE4typeESE_, symObjAddr: 0x2B794, symBinAddr: 0x100046B90, symSize: 0x24 }
  - { offsetInCU: 0x2493B, offset: 0x7853F, size: 0x8, addend: 0x0, symName: __ZNSt3__19__advanceB7v160006INS_11__wrap_iterIPKcEEEEvRT_NS_15iterator_traitsIS5_E15difference_typeENS_26random_access_iterator_tagE, symObjAddr: 0x2BC30, symBinAddr: 0x10004702C, symSize: 0x2C }
  - { offsetInCU: 0x24986, offset: 0x7858A, size: 0x8, addend: 0x0, symName: __ZNSt3__18distanceB7v160006INS_11__wrap_iterIPKcEEEENS_15iterator_traitsIT_E15difference_typeES6_S6_, symObjAddr: 0x2BF60, symBinAddr: 0x10004735C, symSize: 0x3C }
  - { offsetInCU: 0x249C9, offset: 0x785CD, size: 0x8, addend: 0x0, symName: __ZNSt3__110__distanceB7v160006INS_11__wrap_iterIPKcEEEENS_15iterator_traitsIT_E15difference_typeES6_S6_NS_26random_access_iterator_tagE, symObjAddr: 0x2BF9C, symBinAddr: 0x100047398, symSize: 0x30 }
  - { offsetInCU: 0x24A17, offset: 0x7861B, size: 0x8, addend: 0x0, symName: __ZNSt3__1miB7v160006IPKcS2_EEDTmicldtfp_4baseEcldtfp0_4baseEERKNS_11__wrap_iterIT_EERKNS4_IT0_EE, symObjAddr: 0x2BFCC, symBinAddr: 0x1000473C8, symSize: 0x40 }
  - { offsetInCU: 0x24A88, offset: 0x7868C, size: 0x8, addend: 0x0, symName: __ZNSt3__115__debug_db_swapB7v160006INS_6vectorI5ErrorNS_9allocatorIS2_EEEEEEvPT_S7_, symObjAddr: 0x2D178, symBinAddr: 0x100047C80, symSize: 0x14 }
  - { offsetInCU: 0x24AFA, offset: 0x786FE, size: 0x8, addend: 0x0, symName: __ZNSt3__142__uninitialized_allocator_move_if_noexceptB7v160006INS_9allocatorI5ErrorEENS_16reverse_iteratorIPS2_EES6_S6_EET2_RT_T0_T1_S7_, symObjAddr: 0x2E044, symBinAddr: 0x1000482BC, symSize: 0x11C }
  - { offsetInCU: 0x24B9A, offset: 0x7879E, size: 0x8, addend: 0x0, symName: __ZNSt3__14swapB7v160006IP5ErrorEENS_9enable_ifIXaasr21is_move_constructibleIT_EE5valuesr18is_move_assignableIS4_EE5valueEvE4typeERS4_S7_, symObjAddr: 0x2E160, symBinAddr: 0x1000483D8, symSize: 0x3C }
  - { offsetInCU: 0x24BEB, offset: 0x787EF, size: 0x8, addend: 0x0, symName: __ZNSt3__122__make_exception_guardB7v160006INS_29_AllocatorDestroyRangeReverseINS_9allocatorI5ErrorEENS_16reverse_iteratorIPS3_EEEEEENS_28__exception_guard_exceptionsIT_EESA_, symObjAddr: 0x2E1AC, symBinAddr: 0x100048414, symSize: 0x4C }
  - { offsetInCU: 0x24C21, offset: 0x78825, size: 0x8, addend: 0x0, symName: __ZNSt3__119__allocator_destroyB7v160006INS_9allocatorI5ErrorEENS_16reverse_iteratorINS4_IPS2_EEEES7_EEvRT_T0_T1_, symObjAddr: 0x2E524, symBinAddr: 0x10004878C, symSize: 0x70 }
  - { offsetInCU: 0x24C86, offset: 0x7888A, size: 0x8, addend: 0x0, symName: __ZNSt3__1neB7v160006INS_16reverse_iteratorIP5ErrorEES4_EEbRKNS1_IT_EERKNS1_IT0_EE, symObjAddr: 0x2E5D0, symBinAddr: 0x100048838, symSize: 0x60 }
  - { offsetInCU: 0x24CD2, offset: 0x788D6, size: 0x8, addend: 0x0, symName: __ZNSt3__112__to_addressB7v160006INS_16reverse_iteratorINS1_IP5ErrorEEEEvEENS_5decayIDTclsr19__to_address_helperIT_EE6__callclsr3stdE7declvalIRKS7_EEEEE4typeES9_, symObjAddr: 0x2E630, symBinAddr: 0x100048898, symSize: 0x24 }
  - { offsetInCU: 0x24D32, offset: 0x78936, size: 0x8, addend: 0x0, symName: __ZNSt3__1neB7v160006ERKNS_15__hash_iteratorIPNS_11__hash_nodeINS_17__hash_value_typeINS_12basic_stringIcNS_11char_traitsIcEENS_9allocatorIcEEEENS_6vectorI5ErrorNS6_ISA_EEEEEEPvEEEESJ_, symObjAddr: 0x2EAE4, symBinAddr: 0x100048D4C, symSize: 0x34 }
  - { offsetInCU: 0x24D6F, offset: 0x78973, size: 0x8, addend: 0x0, symName: __ZNSt3__1eqB7v160006ERKNS_15__hash_iteratorIPNS_11__hash_nodeINS_17__hash_value_typeINS_12basic_stringIcNS_11char_traitsIcEENS_9allocatorIcEEEENS_6vectorI5ErrorNS6_ISA_EEEEEEPvEEEESJ_, symObjAddr: 0x2EB18, symBinAddr: 0x100048D80, symSize: 0x30 }
  - { offsetInCU: 0x261F2, offset: 0x79DF6, size: 0x8, addend: 0x0, symName: __ZNSt3__16vectorINS_7__stateIcEENS_9allocatorIS2_EEE26__swap_out_circular_bufferERNS_14__split_bufferIS2_RS4_EE, symObjAddr: 0xBB90, symBinAddr: 0x1000274EC, symSize: 0x118 }
  - { offsetInCU: 0x26289, offset: 0x79E8D, size: 0x8, addend: 0x0, symName: __ZNSt3__16vectorINS_9sub_matchIPKcEENS_9allocatorIS4_EEE26__swap_out_circular_bufferERNS_14__split_bufferIS4_RS6_EE, symObjAddr: 0xD7B8, symBinAddr: 0x100029114, symSize: 0x118 }
  - { offsetInCU: 0x2631B, offset: 0x79F1F, size: 0x8, addend: 0x0, symName: __ZNSt3__16vectorINS_4pairImPKcEENS_9allocatorIS4_EEE26__swap_out_circular_bufferERNS_14__split_bufferIS4_RS6_EE, symObjAddr: 0xE9F8, symBinAddr: 0x10002A354, symSize: 0x118 }
  - { offsetInCU: 0x269BB, offset: 0x7A5BF, size: 0x8, addend: 0x0, symName: __ZNSt3__16vectorIcNS_9allocatorIcEEE26__swap_out_circular_bufferERNS_14__split_bufferIcRS2_EE, symObjAddr: 0x17F5C, symBinAddr: 0x10003343C, symSize: 0x118 }
  - { offsetInCU: 0x26A11, offset: 0x7A615, size: 0x8, addend: 0x0, symName: __ZNSt3__16vectorINS_12basic_stringIcNS_11char_traitsIcEENS_9allocatorIcEEEENS4_IS6_EEE26__swap_out_circular_bufferERNS_14__split_bufferIS6_RS7_EE, symObjAddr: 0x1C17C, symBinAddr: 0x10003765C, symSize: 0x118 }
  - { offsetInCU: 0x26AA3, offset: 0x7A6A7, size: 0x8, addend: 0x0, symName: __ZNSt3__16vectorINS_4pairINS_12basic_stringIcNS_11char_traitsIcEENS_9allocatorIcEEEES7_EENS5_IS8_EEE26__swap_out_circular_bufferERNS_14__split_bufferIS8_RS9_EE, symObjAddr: 0x1DAD4, symBinAddr: 0x100038FB4, symSize: 0x118 }
  - { offsetInCU: 0x26B35, offset: 0x7A739, size: 0x8, addend: 0x0, symName: __ZNSt3__16vectorINS_4pairIccEENS_9allocatorIS2_EEE26__swap_out_circular_bufferERNS_14__split_bufferIS2_RS4_EE, symObjAddr: 0x1F060, symBinAddr: 0x10003A540, symSize: 0x118 }
  - { offsetInCU: 0x26D2A, offset: 0x7A92E, size: 0x8, addend: 0x0, symName: __ZNSt3__16vectorINS_9sub_matchINS_11__wrap_iterIPKcEEEENS_9allocatorIS6_EEE26__swap_out_circular_bufferERNS_14__split_bufferIS6_RS8_EE, symObjAddr: 0x2A8AC, symBinAddr: 0x100045CA8, symSize: 0x118 }
  - { offsetInCU: 0x26DBC, offset: 0x7A9C0, size: 0x8, addend: 0x0, symName: __ZNSt3__16vectorI5ErrorNS_9allocatorIS1_EEE26__swap_out_circular_bufferERNS_14__split_bufferIS1_RS3_EE, symObjAddr: 0x2DCC8, symBinAddr: 0x100047F40, symSize: 0x118 }
  - { offsetInCU: 0x291D9, offset: 0x7CDDD, size: 0x8, addend: 0x0, symName: __ZN8ParseJob12showUnparsedEv, symObjAddr: 0x0, symBinAddr: 0x10001E5DC, symSize: 0x68 }
  - { offsetInCU: 0x291FF, offset: 0x7CE03, size: 0x8, addend: 0x0, symName: __ZN8ParseJob7executeEv, symObjAddr: 0x180, symBinAddr: 0x10001E644, symSize: 0x4E8 }
  - { offsetInCU: 0x29309, offset: 0x7CF0D, size: 0x8, addend: 0x0, symName: __ZNSt3__111basic_regexIcNS_12regex_traitsIcEEEC1B7v160006EPKcNS_15regex_constants18syntax_option_typeE, symObjAddr: 0x668, symBinAddr: 0x10001EB2C, symSize: 0x3C }
  - { offsetInCU: 0x2941E, offset: 0x7D022, size: 0x8, addend: 0x0, symName: __ZNSt3__119basic_istringstreamIcNS_11char_traitsIcEENS_9allocatorIcEEEC1B7v160006ERKNS_12basic_stringIcS2_S4_EEj, symObjAddr: 0x6A4, symBinAddr: 0x10001EB68, symSize: 0xFC }
  - { offsetInCU: 0x29464, offset: 0x7D068, size: 0x8, addend: 0x0, symName: __ZNKSt3__19basic_iosIcNS_11char_traitsIcEEEcvbB7v160006Ev, symObjAddr: 0x828, symBinAddr: 0x10001ECC0, symSize: 0x2C }
  - { offsetInCU: 0x294BB, offset: 0x7D0BF, size: 0x8, addend: 0x0, symName: __ZNSt3__113match_resultsINS_11__wrap_iterIPKcEENS_9allocatorINS_9sub_matchIS4_EEEEEC1Ev, symObjAddr: 0x854, symBinAddr: 0x10001ECEC, symSize: 0x40 }
  - { offsetInCU: 0x294E3, offset: 0x7D0E7, size: 0x8, addend: 0x0, symName: __ZNKSt3__113match_resultsINS_11__wrap_iterIPKcEENS_9allocatorINS_9sub_matchIS4_EEEEEixB7v160006Em, symObjAddr: 0x8F0, symBinAddr: 0x10001ED88, symSize: 0x70 }
  - { offsetInCU: 0x29517, offset: 0x7D11B, size: 0x8, addend: 0x0, symName: __ZNKSt3__19sub_matchINS_11__wrap_iterIPKcEEEcvNS_12basic_stringIcNS_11char_traitsIcEENS_9allocatorIcEEEEB7v160006Ev, symObjAddr: 0x960, symBinAddr: 0x10001EDF8, symSize: 0x2C }
  - { offsetInCU: 0x29541, offset: 0x7D145, size: 0x8, addend: 0x0, symName: __ZN5ErrorC1Ev, symObjAddr: 0x9D8, symBinAddr: 0x10001EE24, symSize: 0x2C }
  - { offsetInCU: 0x2956C, offset: 0x7D170, size: 0x8, addend: 0x0, symName: __ZNSt3__13mapINS_12basic_stringIcNS_11char_traitsIcEENS_9allocatorIcEEEENS_6vectorI5ErrorNS4_IS8_EEEENS_4lessIS6_EENS4_INS_4pairIKS6_SA_EEEEE4findB7v160006ERSE_, symObjAddr: 0xA04, symBinAddr: 0x10001EE50, symSize: 0x40 }
  - { offsetInCU: 0x295A0, offset: 0x7D1A4, size: 0x8, addend: 0x0, symName: __ZNSt3__13mapINS_12basic_stringIcNS_11char_traitsIcEENS_9allocatorIcEEEENS_6vectorI5ErrorNS4_IS8_EEEENS_4lessIS6_EENS4_INS_4pairIKS6_SA_EEEEE6insertB7v160006EOSF_, symObjAddr: 0xAD8, symBinAddr: 0x10001EEC0, symSize: 0x4C }
  - { offsetInCU: 0x295D4, offset: 0x7D1D8, size: 0x8, addend: 0x0, symName: __ZNSt3__14pairIKNS_12basic_stringIcNS_11char_traitsIcEENS_9allocatorIcEEEENS_6vectorI5ErrorNS4_IS9_EEEEEC1B7v160006IRS6_RSB_LPv0EEEOT_OT0_, symObjAddr: 0xB24, symBinAddr: 0x10001EF0C, symSize: 0x3C }
  - { offsetInCU: 0x29631, offset: 0x7D235, size: 0x8, addend: 0x0, symName: __ZNKSt3__114__map_iteratorINS_15__tree_iteratorINS_12__value_typeINS_12basic_stringIcNS_11char_traitsIcEENS_9allocatorIcEEEENS_6vectorI5ErrorNS6_ISA_EEEEEEPNS_11__tree_nodeISD_PvEElEEEptB7v160006Ev, symObjAddr: 0xBB8, symBinAddr: 0x10001EF48, symSize: 0x2C }
  - { offsetInCU: 0x29656, offset: 0x7D25A, size: 0x8, addend: 0x0, symName: __ZNSt3__16vectorI5ErrorNS_9allocatorIS1_EEE9push_backB7v160006ERKS1_, symObjAddr: 0xBE4, symBinAddr: 0x10001EF74, symSize: 0x6C }
  - { offsetInCU: 0x29691, offset: 0x7D295, size: 0x8, addend: 0x0, symName: __ZNSt3__113match_resultsINS_11__wrap_iterIPKcEENS_9allocatorINS_9sub_matchIS4_EEEEED1Ev, symObjAddr: 0xC7C, symBinAddr: 0x10001EFE0, symSize: 0x2C }
  - { offsetInCU: 0x296C2, offset: 0x7D2C6, size: 0x8, addend: 0x0, symName: __ZNSt3__119basic_istringstreamIcNS_11char_traitsIcEENS_9allocatorIcEEED1Ev, symObjAddr: 0xCA8, symBinAddr: 0x10001F00C, symSize: 0x40 }
  - { offsetInCU: 0x296F3, offset: 0x7D2F7, size: 0x8, addend: 0x0, symName: __ZNSt3__111basic_regexIcNS_12regex_traitsIcEEED1Ev, symObjAddr: 0xCE8, symBinAddr: 0x10001F04C, symSize: 0x2C }
  - { offsetInCU: 0x2971F, offset: 0x7D323, size: 0x8, addend: 0x0, symName: __ZN8ParseJob19jobCompleteCallbackEv, symObjAddr: 0xD14, symBinAddr: 0x10001F078, symSize: 0x150 }
  - { offsetInCU: 0x2976F, offset: 0x7D373, size: 0x8, addend: 0x0, symName: __ZNKSt3__113unordered_mapINS_12basic_stringIcNS_11char_traitsIcEENS_9allocatorIcEEEENS_6vectorI5ErrorNS4_IS8_EEEENS_4hashIS6_EENS_8equal_toIS6_EENS4_INS_4pairIKS6_SA_EEEEE4sizeB7v160006Ev, symObjAddr: 0xE7C, symBinAddr: 0x10001F1C8, symSize: 0x24 }
  - { offsetInCU: 0x29794, offset: 0x7D398, size: 0x8, addend: 0x0, symName: __ZNSt3__113unordered_mapINS_12basic_stringIcNS_11char_traitsIcEENS_9allocatorIcEEEENS_6vectorI5ErrorNS4_IS8_EEEENS_4hashIS6_EENS_8equal_toIS6_EENS4_INS_4pairIKS6_SA_EEEEE5beginB7v160006Ev, symObjAddr: 0xEA0, symBinAddr: 0x10001F1EC, symSize: 0x38 }
  - { offsetInCU: 0x297B9, offset: 0x7D3BD, size: 0x8, addend: 0x0, symName: __ZNSt3__113unordered_mapINS_12basic_stringIcNS_11char_traitsIcEENS_9allocatorIcEEEENS_6vectorI5ErrorNS4_IS8_EEEENS_4hashIS6_EENS_8equal_toIS6_EENS4_INS_4pairIKS6_SA_EEEEE3endB7v160006Ev, symObjAddr: 0xF08, symBinAddr: 0x10001F254, symSize: 0x38 }
  - { offsetInCU: 0x297DE, offset: 0x7D3E2, size: 0x8, addend: 0x0, symName: __ZNKSt3__119__hash_map_iteratorINS_15__hash_iteratorIPNS_11__hash_nodeINS_17__hash_value_typeINS_12basic_stringIcNS_11char_traitsIcEENS_9allocatorIcEEEENS_6vectorI5ErrorNS7_ISB_EEEEEEPvEEEEEptB7v160006Ev, symObjAddr: 0xF40, symBinAddr: 0x10001F28C, symSize: 0x2C }
  - { offsetInCU: 0x29803, offset: 0x7D407, size: 0x8, addend: 0x0, symName: __ZNSt3__119__hash_map_iteratorINS_15__hash_iteratorIPNS_11__hash_nodeINS_17__hash_value_typeINS_12basic_stringIcNS_11char_traitsIcEENS_9allocatorIcEEEENS_6vectorI5ErrorNS7_ISB_EEEEEEPvEEEEEppB7v160006Ev, symObjAddr: 0xF94, symBinAddr: 0x10001F2B8, symSize: 0x2C }
  - { offsetInCU: 0x29828, offset: 0x7D42C, size: 0x8, addend: 0x0, symName: __ZN8ParseJobD1Ev, symObjAddr: 0xFC0, symBinAddr: 0x10001F2E4, symSize: 0x2C }
  - { offsetInCU: 0x29850, offset: 0x7D454, size: 0x8, addend: 0x0, symName: __ZN8ParseJobD0Ev, symObjAddr: 0xFEC, symBinAddr: 0x10001F310, symSize: 0x30 }
  - { offsetInCU: 0x29878, offset: 0x7D47C, size: 0x8, addend: 0x0, symName: __ZN5ErrorC2Ev, symObjAddr: 0x101C, symBinAddr: 0x10001F340, symSize: 0x44 }
  - { offsetInCU: 0x298A3, offset: 0x7D4A7, size: 0x8, addend: 0x0, symName: __ZNSt3__14pairIKNS_12basic_stringIcNS_11char_traitsIcEENS_9allocatorIcEEEENS_6vectorI5ErrorNS4_IS9_EEEEEC2B7v160006IRS6_RSB_LPv0EEEOT_OT0_, symObjAddr: 0x1060, symBinAddr: 0x10001F384, symSize: 0x70 }
  - { offsetInCU: 0x29928, offset: 0x7D52C, size: 0x8, addend: 0x0, symName: __ZNSt3__113match_resultsINS_11__wrap_iterIPKcEENS_9allocatorINS_9sub_matchIS4_EEEEED2Ev, symObjAddr: 0x2864, symBinAddr: 0x10001F3F4, symSize: 0x2C }
  - { offsetInCU: 0x29954, offset: 0x7D558, size: 0x8, addend: 0x0, symName: __ZNSt3__16vectorINS_9sub_matchINS_11__wrap_iterIPKcEEEENS_9allocatorIS6_EEED1B7v160006Ev, symObjAddr: 0x2890, symBinAddr: 0x10001F420, symSize: 0x2C }
  - { offsetInCU: 0x2997C, offset: 0x7D580, size: 0x8, addend: 0x0, symName: __ZNSt3__16vectorINS_9sub_matchINS_11__wrap_iterIPKcEEEENS_9allocatorIS6_EEED2B7v160006Ev, symObjAddr: 0x28BC, symBinAddr: 0x10001F44C, symSize: 0x44 }
  - { offsetInCU: 0x299A4, offset: 0x7D5A8, size: 0x8, addend: 0x0, symName: __ZNSt3__16vectorINS_9sub_matchINS_11__wrap_iterIPKcEEEENS_9allocatorIS6_EEE16__destroy_vectorC1ERS9_, symObjAddr: 0x2900, symBinAddr: 0x10001F490, symSize: 0x34 }
  - { offsetInCU: 0x299DB, offset: 0x7D5DF, size: 0x8, addend: 0x0, symName: __ZNSt3__16vectorINS_9sub_matchINS_11__wrap_iterIPKcEEEENS_9allocatorIS6_EEE16__destroy_vectorclB7v160006Ev, symObjAddr: 0x2934, symBinAddr: 0x10001F4C4, symSize: 0x9C }
  - { offsetInCU: 0x29A00, offset: 0x7D604, size: 0x8, addend: 0x0, symName: __ZNSt3__16vectorINS_9sub_matchINS_11__wrap_iterIPKcEEEENS_9allocatorIS6_EEE16__destroy_vectorC2ERS9_, symObjAddr: 0x29D0, symBinAddr: 0x10001F560, symSize: 0x20 }
  - { offsetInCU: 0x29A38, offset: 0x7D63C, size: 0x8, addend: 0x0, symName: __ZNKSt3__16vectorINS_9sub_matchINS_11__wrap_iterIPKcEEEENS_9allocatorIS6_EEE17__annotate_deleteB7v160006Ev, symObjAddr: 0x29F0, symBinAddr: 0x10001F580, symSize: 0xD4 }
  - { offsetInCU: 0x29A5D, offset: 0x7D661, size: 0x8, addend: 0x0, symName: __ZNSt3__16vectorINS_9sub_matchINS_11__wrap_iterIPKcEEEENS_9allocatorIS6_EEE7__clearB7v160006Ev, symObjAddr: 0x2AD4, symBinAddr: 0x10001F664, symSize: 0x28 }
  - { offsetInCU: 0x29A82, offset: 0x7D686, size: 0x8, addend: 0x0, symName: __ZNSt3__116allocator_traitsINS_9allocatorINS_9sub_matchINS_11__wrap_iterIPKcEEEEEEE10deallocateB7v160006ERS8_PS7_m, symObjAddr: 0x2AFC, symBinAddr: 0x10001F68C, symSize: 0x34 }
  - { offsetInCU: 0x29AC4, offset: 0x7D6C8, size: 0x8, addend: 0x0, symName: __ZNSt3__16vectorINS_9sub_matchINS_11__wrap_iterIPKcEEEENS_9allocatorIS6_EEE7__allocB7v160006Ev, symObjAddr: 0x2B30, symBinAddr: 0x10001F6C0, symSize: 0x28 }
  - { offsetInCU: 0x29AE9, offset: 0x7D6ED, size: 0x8, addend: 0x0, symName: __ZNKSt3__16vectorINS_9sub_matchINS_11__wrap_iterIPKcEEEENS_9allocatorIS6_EEE8capacityB7v160006Ev, symObjAddr: 0x2B58, symBinAddr: 0x10001F6E8, symSize: 0x40 }
  - { offsetInCU: 0x29B0E, offset: 0x7D712, size: 0x8, addend: 0x0, symName: __ZNKSt3__16vectorINS_9sub_matchINS_11__wrap_iterIPKcEEEENS_9allocatorIS6_EEE31__annotate_contiguous_containerB7v160006EPKvSB_SB_SB_, symObjAddr: 0x2B98, symBinAddr: 0x10001F728, symSize: 0x20 }
  - { offsetInCU: 0x29B63, offset: 0x7D767, size: 0x8, addend: 0x0, symName: __ZNKSt3__16vectorINS_9sub_matchINS_11__wrap_iterIPKcEEEENS_9allocatorIS6_EEE4dataB7v160006Ev, symObjAddr: 0x2BB8, symBinAddr: 0x10001F748, symSize: 0x28 }
  - { offsetInCU: 0x29B88, offset: 0x7D78C, size: 0x8, addend: 0x0, symName: __ZNKSt3__16vectorINS_9sub_matchINS_11__wrap_iterIPKcEEEENS_9allocatorIS6_EEE4sizeB7v160006Ev, symObjAddr: 0x2BE0, symBinAddr: 0x10001F770, symSize: 0x28 }
  - { offsetInCU: 0x29BAD, offset: 0x7D7B1, size: 0x8, addend: 0x0, symName: __ZNSt3__16vectorINS_9sub_matchINS_11__wrap_iterIPKcEEEENS_9allocatorIS6_EEE22__base_destruct_at_endB7v160006EPS6_, symObjAddr: 0x2C1C, symBinAddr: 0x10001F7AC, symSize: 0x8C }
  - { offsetInCU: 0x29BF0, offset: 0x7D7F4, size: 0x8, addend: 0x0, symName: __ZNSt3__116allocator_traitsINS_9allocatorINS_9sub_matchINS_11__wrap_iterIPKcEEEEEEE7destroyB7v160006IS7_vEEvRS8_PT_, symObjAddr: 0x2CA8, symBinAddr: 0x10001F838, symSize: 0x2C }
  - { offsetInCU: 0x29C2D, offset: 0x7D831, size: 0x8, addend: 0x0, symName: __ZNSt3__19allocatorINS_9sub_matchINS_11__wrap_iterIPKcEEEEE7destroyB7v160006EPS6_, symObjAddr: 0x2CD4, symBinAddr: 0x10001F864, symSize: 0x14 }
  - { offsetInCU: 0x29C60, offset: 0x7D864, size: 0x8, addend: 0x0, symName: __ZNSt3__19allocatorINS_9sub_matchINS_11__wrap_iterIPKcEEEEE10deallocateB7v160006EPS6_m, symObjAddr: 0x2CE8, symBinAddr: 0x10001F878, symSize: 0x44 }
  - { offsetInCU: 0x29CA1, offset: 0x7D8A5, size: 0x8, addend: 0x0, symName: __ZNSt3__117__compressed_pairIPNS_9sub_matchINS_11__wrap_iterIPKcEEEENS_9allocatorIS6_EEE6secondB7v160006Ev, symObjAddr: 0x2D2C, symBinAddr: 0x10001F8BC, symSize: 0x24 }
  - { offsetInCU: 0x29CC6, offset: 0x7D8CA, size: 0x8, addend: 0x0, symName: __ZNSt3__122__compressed_pair_elemINS_9allocatorINS_9sub_matchINS_11__wrap_iterIPKcEEEEEELi1ELb1EE5__getB7v160006Ev, symObjAddr: 0x2D50, symBinAddr: 0x10001F8E0, symSize: 0x14 }
  - { offsetInCU: 0x29CEB, offset: 0x7D8EF, size: 0x8, addend: 0x0, symName: __ZNKSt3__16vectorINS_9sub_matchINS_11__wrap_iterIPKcEEEENS_9allocatorIS6_EEE9__end_capB7v160006Ev, symObjAddr: 0x2D64, symBinAddr: 0x10001F8F4, symSize: 0x28 }
  - { offsetInCU: 0x29D10, offset: 0x7D914, size: 0x8, addend: 0x0, symName: __ZNKSt3__117__compressed_pairIPNS_9sub_matchINS_11__wrap_iterIPKcEEEENS_9allocatorIS6_EEE5firstB7v160006Ev, symObjAddr: 0x2D8C, symBinAddr: 0x10001F91C, symSize: 0x24 }
  - { offsetInCU: 0x29D35, offset: 0x7D939, size: 0x8, addend: 0x0, symName: __ZNKSt3__122__compressed_pair_elemIPNS_9sub_matchINS_11__wrap_iterIPKcEEEELi0ELb0EE5__getB7v160006Ev, symObjAddr: 0x2DB0, symBinAddr: 0x10001F940, symSize: 0x14 }
  - { offsetInCU: 0x29D5A, offset: 0x7D95E, size: 0x8, addend: 0x0, symName: __ZNSt3__119basic_istringstreamIcNS_11char_traitsIcEENS_9allocatorIcEEED2Ev, symObjAddr: 0x2DC4, symBinAddr: 0x10001F954, symSize: 0x64 }
  - { offsetInCU: 0x29D92, offset: 0x7D996, size: 0x8, addend: 0x0, symName: __ZTv0_n24_NSt3__119basic_istringstreamIcNS_11char_traitsIcEENS_9allocatorIcEEED1Ev, symObjAddr: 0x2E28, symBinAddr: 0x10001F9B8, symSize: 0x28 }
  - { offsetInCU: 0x29DAE, offset: 0x7D9B2, size: 0x8, addend: 0x0, symName: __ZNSt3__115basic_stringbufIcNS_11char_traitsIcEENS_9allocatorIcEEED1Ev, symObjAddr: 0x2E50, symBinAddr: 0x10001F9E0, symSize: 0x2C }
  - { offsetInCU: 0x29DDA, offset: 0x7D9DE, size: 0x8, addend: 0x0, symName: __ZNSt3__115basic_stringbufIcNS_11char_traitsIcEENS_9allocatorIcEEED2Ev, symObjAddr: 0x2E7C, symBinAddr: 0x10001FA0C, symSize: 0x48 }
  - { offsetInCU: 0x29E06, offset: 0x7DA0A, size: 0x8, addend: 0x0, symName: __ZNSt3__111basic_regexIcNS_12regex_traitsIcEEED2Ev, symObjAddr: 0x2EC4, symBinAddr: 0x10001FA54, symSize: 0x38 }
  - { offsetInCU: 0x29E32, offset: 0x7DA36, size: 0x8, addend: 0x0, symName: __ZNSt3__110shared_ptrINS_13__empty_stateIcEEED1B7v160006Ev, symObjAddr: 0x2EFC, symBinAddr: 0x10001FA8C, symSize: 0x2C }
  - { offsetInCU: 0x29E5A, offset: 0x7DA5E, size: 0x8, addend: 0x0, symName: __ZNSt3__112regex_traitsIcED1Ev, symObjAddr: 0x2F28, symBinAddr: 0x10001FAB8, symSize: 0x2C }
  - { offsetInCU: 0x29E86, offset: 0x7DA8A, size: 0x8, addend: 0x0, symName: __ZNSt3__110shared_ptrINS_13__empty_stateIcEEED2B7v160006Ev, symObjAddr: 0x2F54, symBinAddr: 0x10001FAE4, symSize: 0x54 }
  - { offsetInCU: 0x29EAE, offset: 0x7DAB2, size: 0x8, addend: 0x0, symName: __ZNSt3__119__shared_weak_count16__release_sharedB7v160006Ev, symObjAddr: 0x2FA8, symBinAddr: 0x10001FB38, symSize: 0x3C }
  - { offsetInCU: 0x29ED3, offset: 0x7DAD7, size: 0x8, addend: 0x0, symName: __ZNSt3__114__shared_count16__release_sharedB7v160006Ev, symObjAddr: 0x2FE4, symBinAddr: 0x10001FB74, symSize: 0x7C }
  - { offsetInCU: 0x29EF8, offset: 0x7DAFC, size: 0x8, addend: 0x0, symName: __ZNSt3__112regex_traitsIcED2Ev, symObjAddr: 0x3090, symBinAddr: 0x10001FC20, symSize: 0x2C }
  - { offsetInCU: 0x29F24, offset: 0x7DB28, size: 0x8, addend: 0x0, symName: __ZN8ParseJobD2Ev, symObjAddr: 0x30BC, symBinAddr: 0x10001FC4C, symSize: 0x54 }
  - { offsetInCU: 0x29F4C, offset: 0x7DB50, size: 0x8, addend: 0x0, symName: __ZNSt3__113unordered_mapINS_12basic_stringIcNS_11char_traitsIcEENS_9allocatorIcEEEENS_6vectorI5ErrorNS4_IS8_EEEENS_4hashIS6_EENS_8equal_toIS6_EENS4_INS_4pairIKS6_SA_EEEEED1B7v160006Ev, symObjAddr: 0x3110, symBinAddr: 0x10001FCA0, symSize: 0x2C }
  - { offsetInCU: 0x29F74, offset: 0x7DB78, size: 0x8, addend: 0x0, symName: __ZNSt3__113unordered_mapINS_12basic_stringIcNS_11char_traitsIcEENS_9allocatorIcEEEENS_6vectorI5ErrorNS4_IS8_EEEENS_4hashIS6_EENS_8equal_toIS6_EENS4_INS_4pairIKS6_SA_EEEEED2B7v160006Ev, symObjAddr: 0x3194, symBinAddr: 0x10001FCCC, symSize: 0x2C }
  - { offsetInCU: 0x29F9C, offset: 0x7DBA0, size: 0x8, addend: 0x0, symName: __ZNSt3__112__hash_tableINS_17__hash_value_typeINS_12basic_stringIcNS_11char_traitsIcEENS_9allocatorIcEEEENS_6vectorI5ErrorNS5_IS9_EEEEEENS_22__unordered_map_hasherIS7_SC_NS_4hashIS7_EENS_8equal_toIS7_EELb1EEENS_21__unordered_map_equalIS7_SC_SH_SF_Lb1EEENS5_ISC_EEED1Ev, symObjAddr: 0x31C0, symBinAddr: 0x10001FCF8, symSize: 0x2C }
  - { offsetInCU: 0x29FC7, offset: 0x7DBCB, size: 0x8, addend: 0x0, symName: __ZNSt3__112__hash_tableINS_17__hash_value_typeINS_12basic_stringIcNS_11char_traitsIcEENS_9allocatorIcEEEENS_6vectorI5ErrorNS5_IS9_EEEEEENS_22__unordered_map_hasherIS7_SC_NS_4hashIS7_EENS_8equal_toIS7_EELb1EEENS_21__unordered_map_equalIS7_SC_SH_SF_Lb1EEENS5_ISC_EEED2Ev, symObjAddr: 0x31EC, symBinAddr: 0x10001FD24, symSize: 0x58 }
  - { offsetInCU: 0x29FF2, offset: 0x7DBF6, size: 0x8, addend: 0x0, symName: __ZNSt3__112__hash_tableINS_17__hash_value_typeINS_12basic_stringIcNS_11char_traitsIcEENS_9allocatorIcEEEENS_6vectorI5ErrorNS5_IS9_EEEEEENS_22__unordered_map_hasherIS7_SC_NS_4hashIS7_EENS_8equal_toIS7_EELb1EEENS_21__unordered_map_equalIS7_SC_SH_SF_Lb1EEENS5_ISC_EEE17__deallocate_nodeEPNS_16__hash_node_baseIPNS_11__hash_nodeISC_PvEEEE, symObjAddr: 0x3244, symBinAddr: 0x10001FD7C, symSize: 0xA8 }
  - { offsetInCU: 0x2A05B, offset: 0x7DC5F, size: 0x8, addend: 0x0, symName: __ZNSt3__117__compressed_pairINS_16__hash_node_baseIPNS_11__hash_nodeINS_17__hash_value_typeINS_12basic_stringIcNS_11char_traitsIcEENS_9allocatorIcEEEENS_6vectorI5ErrorNS7_ISB_EEEEEEPvEEEENS7_ISG_EEE5firstB7v160006Ev, symObjAddr: 0x32EC, symBinAddr: 0x10001FE24, symSize: 0x24 }
  - { offsetInCU: 0x2A080, offset: 0x7DC84, size: 0x8, addend: 0x0, symName: __ZNSt3__110unique_ptrIA_PNS_16__hash_node_baseIPNS_11__hash_nodeINS_17__hash_value_typeINS_12basic_stringIcNS_11char_traitsIcEENS_9allocatorIcEEEENS_6vectorI5ErrorNS7_ISB_EEEEEEPvEEEENS_25__bucket_list_deallocatorINS7_ISJ_EEEEED1B7v160006Ev, symObjAddr: 0x3320, symBinAddr: 0x10001FE58, symSize: 0x2C }
  - { offsetInCU: 0x2A0A8, offset: 0x7DCAC, size: 0x8, addend: 0x0, symName: __ZNSt3__112__hash_tableINS_17__hash_value_typeINS_12basic_stringIcNS_11char_traitsIcEENS_9allocatorIcEEEENS_6vectorI5ErrorNS5_IS9_EEEEEENS_22__unordered_map_hasherIS7_SC_NS_4hashIS7_EENS_8equal_toIS7_EELb1EEENS_21__unordered_map_equalIS7_SC_SH_SF_Lb1EEENS5_ISC_EEE12__node_allocB7v160006Ev, symObjAddr: 0x334C, symBinAddr: 0x10001FE84, symSize: 0x28 }
  - { offsetInCU: 0x2A0CD, offset: 0x7DCD1, size: 0x8, addend: 0x0, symName: __ZNSt3__116__hash_node_baseIPNS_11__hash_nodeINS_17__hash_value_typeINS_12basic_stringIcNS_11char_traitsIcEENS_9allocatorIcEEEENS_6vectorI5ErrorNS6_ISA_EEEEEEPvEEE8__upcastB7v160006Ev, symObjAddr: 0x3374, symBinAddr: 0x10001FEAC, symSize: 0x24 }
  - { offsetInCU: 0x2A0F7, offset: 0x7DCFB, size: 0x8, addend: 0x0, symName: __ZNSt3__116allocator_traitsINS_9allocatorINS_11__hash_nodeINS_17__hash_value_typeINS_12basic_stringIcNS_11char_traitsIcEENS1_IcEEEENS_6vectorI5ErrorNS1_ISA_EEEEEEPvEEEEE7destroyB7v160006INS_4pairIKS8_SC_EEvvEEvRSG_PT_, symObjAddr: 0x3398, symBinAddr: 0x10001FED0, symSize: 0x28 }
  - { offsetInCU: 0x2A132, offset: 0x7DD36, size: 0x8, addend: 0x0, symName: __ZNSt3__122__hash_key_value_typesINS_17__hash_value_typeINS_12basic_stringIcNS_11char_traitsIcEENS_9allocatorIcEEEENS_6vectorI5ErrorNS5_IS9_EEEEEEE9__get_ptrB7v160006ERSC_, symObjAddr: 0x33C0, symBinAddr: 0x10001FEF8, symSize: 0x24 }
  - { offsetInCU: 0x2A155, offset: 0x7DD59, size: 0x8, addend: 0x0, symName: __ZNSt3__116allocator_traitsINS_9allocatorINS_11__hash_nodeINS_17__hash_value_typeINS_12basic_stringIcNS_11char_traitsIcEENS1_IcEEEENS_6vectorI5ErrorNS1_ISA_EEEEEEPvEEEEE10deallocateB7v160006ERSG_PSF_m, symObjAddr: 0x33E4, symBinAddr: 0x10001FF1C, symSize: 0x34 }
  - { offsetInCU: 0x2A197, offset: 0x7DD9B, size: 0x8, addend: 0x0, symName: __ZNSt3__117__compressed_pairINS_16__hash_node_baseIPNS_11__hash_nodeINS_17__hash_value_typeINS_12basic_stringIcNS_11char_traitsIcEENS_9allocatorIcEEEENS_6vectorI5ErrorNS7_ISB_EEEEEEPvEEEENS7_ISG_EEE6secondB7v160006Ev, symObjAddr: 0x3418, symBinAddr: 0x10001FF50, symSize: 0x24 }
  - { offsetInCU: 0x2A1BC, offset: 0x7DDC0, size: 0x8, addend: 0x0, symName: __ZNSt3__122__compressed_pair_elemINS_9allocatorINS_11__hash_nodeINS_17__hash_value_typeINS_12basic_stringIcNS_11char_traitsIcEENS1_IcEEEENS_6vectorI5ErrorNS1_ISA_EEEEEEPvEEEELi1ELb1EE5__getB7v160006Ev, symObjAddr: 0x343C, symBinAddr: 0x10001FF74, symSize: 0x14 }
  - { offsetInCU: 0x2A1E1, offset: 0x7DDE5, size: 0x8, addend: 0x0, symName: __ZNSt3__114pointer_traitsIPNS_16__hash_node_baseIPNS_11__hash_nodeINS_17__hash_value_typeINS_12basic_stringIcNS_11char_traitsIcEENS_9allocatorIcEEEENS_6vectorI5ErrorNS7_ISB_EEEEEEPvEEEEE10pointer_toB7v160006ERSI_, symObjAddr: 0x3450, symBinAddr: 0x10001FF88, symSize: 0x14 }
  - { offsetInCU: 0x2A204, offset: 0x7DE08, size: 0x8, addend: 0x0, symName: __ZNSt3__117__hash_value_typeINS_12basic_stringIcNS_11char_traitsIcEENS_9allocatorIcEEEENS_6vectorI5ErrorNS4_IS8_EEEEE11__get_valueB7v160006Ev, symObjAddr: 0x3464, symBinAddr: 0x10001FF9C, symSize: 0x24 }
  - { offsetInCU: 0x2A229, offset: 0x7DE2D, size: 0x8, addend: 0x0, symName: __ZNSt3__19allocatorINS_11__hash_nodeINS_17__hash_value_typeINS_12basic_stringIcNS_11char_traitsIcEENS0_IcEEEENS_6vectorI5ErrorNS0_IS9_EEEEEEPvEEE10deallocateB7v160006EPSE_m, symObjAddr: 0x34C0, symBinAddr: 0x10001FFC0, symSize: 0x40 }
  - { offsetInCU: 0x2A26A, offset: 0x7DE6E, size: 0x8, addend: 0x0, symName: __ZNSt3__122__compressed_pair_elemINS_16__hash_node_baseIPNS_11__hash_nodeINS_17__hash_value_typeINS_12basic_stringIcNS_11char_traitsIcEENS_9allocatorIcEEEENS_6vectorI5ErrorNS7_ISB_EEEEEEPvEEEELi0ELb0EE5__getB7v160006Ev, symObjAddr: 0x3500, symBinAddr: 0x100020000, symSize: 0x14 }
  - { offsetInCU: 0x2A28F, offset: 0x7DE93, size: 0x8, addend: 0x0, symName: __ZNSt3__110unique_ptrIA_PNS_16__hash_node_baseIPNS_11__hash_nodeINS_17__hash_value_typeINS_12basic_stringIcNS_11char_traitsIcEENS_9allocatorIcEEEENS_6vectorI5ErrorNS7_ISB_EEEEEEPvEEEENS_25__bucket_list_deallocatorINS7_ISJ_EEEEED2B7v160006Ev, symObjAddr: 0x3514, symBinAddr: 0x100020014, symSize: 0x30 }
  - { offsetInCU: 0x2A2B7, offset: 0x7DEBB, size: 0x8, addend: 0x0, symName: __ZNSt3__110unique_ptrIA_PNS_16__hash_node_baseIPNS_11__hash_nodeINS_17__hash_value_typeINS_12basic_stringIcNS_11char_traitsIcEENS_9allocatorIcEEEENS_6vectorI5ErrorNS7_ISB_EEEEEEPvEEEENS_25__bucket_list_deallocatorINS7_ISJ_EEEEE5resetB7v160006EDn, symObjAddr: 0x3544, symBinAddr: 0x100020044, symSize: 0x6C }
  - { offsetInCU: 0x2A2F7, offset: 0x7DEFB, size: 0x8, addend: 0x0, symName: __ZNSt3__117__compressed_pairIPPNS_16__hash_node_baseIPNS_11__hash_nodeINS_17__hash_value_typeINS_12basic_stringIcNS_11char_traitsIcEENS_9allocatorIcEEEENS_6vectorI5ErrorNS7_ISB_EEEEEEPvEEEENS_25__bucket_list_deallocatorINS7_ISJ_EEEEE5firstB7v160006Ev, symObjAddr: 0x35B0, symBinAddr: 0x1000200B0, symSize: 0x24 }
  - { offsetInCU: 0x2A31C, offset: 0x7DF20, size: 0x8, addend: 0x0, symName: __ZNSt3__117__compressed_pairIPPNS_16__hash_node_baseIPNS_11__hash_nodeINS_17__hash_value_typeINS_12basic_stringIcNS_11char_traitsIcEENS_9allocatorIcEEEENS_6vectorI5ErrorNS7_ISB_EEEEEEPvEEEENS_25__bucket_list_deallocatorINS7_ISJ_EEEEE6secondB7v160006Ev, symObjAddr: 0x35D4, symBinAddr: 0x1000200D4, symSize: 0x28 }
  - { offsetInCU: 0x2A341, offset: 0x7DF45, size: 0x8, addend: 0x0, symName: __ZNSt3__125__bucket_list_deallocatorINS_9allocatorIPNS_16__hash_node_baseIPNS_11__hash_nodeINS_17__hash_value_typeINS_12basic_stringIcNS_11char_traitsIcEENS1_IcEEEENS_6vectorI5ErrorNS1_ISB_EEEEEEPvEEEEEEEclB7v160006EPSJ_, symObjAddr: 0x35FC, symBinAddr: 0x1000200FC, symSize: 0x58 }
  - { offsetInCU: 0x2A375, offset: 0x7DF79, size: 0x8, addend: 0x0, symName: __ZNSt3__122__compressed_pair_elemIPPNS_16__hash_node_baseIPNS_11__hash_nodeINS_17__hash_value_typeINS_12basic_stringIcNS_11char_traitsIcEENS_9allocatorIcEEEENS_6vectorI5ErrorNS7_ISB_EEEEEEPvEEEELi0ELb0EE5__getB7v160006Ev, symObjAddr: 0x3654, symBinAddr: 0x100020154, symSize: 0x14 }
  - { offsetInCU: 0x2A39A, offset: 0x7DF9E, size: 0x8, addend: 0x0, symName: __ZNSt3__122__compressed_pair_elemINS_25__bucket_list_deallocatorINS_9allocatorIPNS_16__hash_node_baseIPNS_11__hash_nodeINS_17__hash_value_typeINS_12basic_stringIcNS_11char_traitsIcEENS2_IcEEEENS_6vectorI5ErrorNS2_ISC_EEEEEEPvEEEEEEEELi1ELb0EE5__getB7v160006Ev, symObjAddr: 0x3668, symBinAddr: 0x100020168, symSize: 0x14 }
  - { offsetInCU: 0x2A3BF, offset: 0x7DFC3, size: 0x8, addend: 0x0, symName: __ZNSt3__116allocator_traitsINS_9allocatorIPNS_16__hash_node_baseIPNS_11__hash_nodeINS_17__hash_value_typeINS_12basic_stringIcNS_11char_traitsIcEENS1_IcEEEENS_6vectorI5ErrorNS1_ISB_EEEEEEPvEEEEEEE10deallocateB7v160006ERSK_PSJ_m, symObjAddr: 0x367C, symBinAddr: 0x10002017C, symSize: 0x34 }
  - { offsetInCU: 0x2A401, offset: 0x7E005, size: 0x8, addend: 0x0, symName: __ZNSt3__125__bucket_list_deallocatorINS_9allocatorIPNS_16__hash_node_baseIPNS_11__hash_nodeINS_17__hash_value_typeINS_12basic_stringIcNS_11char_traitsIcEENS1_IcEEEENS_6vectorI5ErrorNS1_ISB_EEEEEEPvEEEEEEE7__allocB7v160006Ev, symObjAddr: 0x36B0, symBinAddr: 0x1000201B0, symSize: 0x24 }
  - { offsetInCU: 0x2A426, offset: 0x7E02A, size: 0x8, addend: 0x0, symName: __ZNSt3__125__bucket_list_deallocatorINS_9allocatorIPNS_16__hash_node_baseIPNS_11__hash_nodeINS_17__hash_value_typeINS_12basic_stringIcNS_11char_traitsIcEENS1_IcEEEENS_6vectorI5ErrorNS1_ISB_EEEEEEPvEEEEEEE4sizeB7v160006Ev, symObjAddr: 0x36D4, symBinAddr: 0x1000201D4, symSize: 0x24 }
  - { offsetInCU: 0x2A44B, offset: 0x7E04F, size: 0x8, addend: 0x0, symName: __ZNSt3__19allocatorIPNS_16__hash_node_baseIPNS_11__hash_nodeINS_17__hash_value_typeINS_12basic_stringIcNS_11char_traitsIcEENS0_IcEEEENS_6vectorI5ErrorNS0_ISA_EEEEEEPvEEEEE10deallocateB7v160006EPSI_m, symObjAddr: 0x36F8, symBinAddr: 0x1000201F8, symSize: 0x40 }
  - { offsetInCU: 0x2A48C, offset: 0x7E090, size: 0x8, addend: 0x0, symName: __ZNSt3__117__compressed_pairImNS_9allocatorIPNS_16__hash_node_baseIPNS_11__hash_nodeINS_17__hash_value_typeINS_12basic_stringIcNS_11char_traitsIcEENS1_IcEEEENS_6vectorI5ErrorNS1_ISB_EEEEEEPvEEEEEEE6secondB7v160006Ev, symObjAddr: 0x3738, symBinAddr: 0x100020238, symSize: 0x24 }
  - { offsetInCU: 0x2A4B1, offset: 0x7E0B5, size: 0x8, addend: 0x0, symName: __ZNSt3__122__compressed_pair_elemINS_9allocatorIPNS_16__hash_node_baseIPNS_11__hash_nodeINS_17__hash_value_typeINS_12basic_stringIcNS_11char_traitsIcEENS1_IcEEEENS_6vectorI5ErrorNS1_ISB_EEEEEEPvEEEEEELi1ELb1EE5__getB7v160006Ev, symObjAddr: 0x375C, symBinAddr: 0x10002025C, symSize: 0x14 }
  - { offsetInCU: 0x2A4D6, offset: 0x7E0DA, size: 0x8, addend: 0x0, symName: __ZNSt3__117__compressed_pairImNS_9allocatorIPNS_16__hash_node_baseIPNS_11__hash_nodeINS_17__hash_value_typeINS_12basic_stringIcNS_11char_traitsIcEENS1_IcEEEENS_6vectorI5ErrorNS1_ISB_EEEEEEPvEEEEEEE5firstB7v160006Ev, symObjAddr: 0x3770, symBinAddr: 0x100020270, symSize: 0x24 }
  - { offsetInCU: 0x2A500, offset: 0x7E104, size: 0x8, addend: 0x0, symName: __ZNSt3__111basic_regexIcNS_12regex_traitsIcEEEC2B7v160006EPKcNS_15regex_constants18syntax_option_typeE, symObjAddr: 0x4890, symBinAddr: 0x100020294, symSize: 0xC8 }
  - { offsetInCU: 0x2A546, offset: 0x7E14A, size: 0x8, addend: 0x0, symName: __ZNSt3__112regex_traitsIcEC1Ev, symObjAddr: 0x4958, symBinAddr: 0x10002035C, symSize: 0x2C }
  - { offsetInCU: 0x2A571, offset: 0x7E175, size: 0x8, addend: 0x0, symName: __ZNSt3__110shared_ptrINS_13__empty_stateIcEEEC1B7v160006Ev, symObjAddr: 0x4984, symBinAddr: 0x100020388, symSize: 0x2C }
  - { offsetInCU: 0x2A599, offset: 0x7E19D, size: 0x8, addend: 0x0, symName: __ZNSt3__111basic_regexIcNS_12regex_traitsIcEEE6__initIPKcEEvT_S7_, symObjAddr: 0x49B0, symBinAddr: 0x1000203B4, symSize: 0x88 }
  - { offsetInCU: 0x2A5F6, offset: 0x7E1FA, size: 0x8, addend: 0x0, symName: __ZNSt3__112regex_traitsIcE6lengthB7v160006EPKc, symObjAddr: 0x4A38, symBinAddr: 0x10002043C, symSize: 0x24 }
  - { offsetInCU: 0x2A61A, offset: 0x7E21E, size: 0x8, addend: 0x0, symName: __ZNSt3__112regex_traitsIcEC2Ev, symObjAddr: 0x4A5C, symBinAddr: 0x100020460, symSize: 0x5C }
  - { offsetInCU: 0x2A645, offset: 0x7E249, size: 0x8, addend: 0x0, symName: __ZNSt3__112regex_traitsIcE6__initEv, symObjAddr: 0x4AB8, symBinAddr: 0x1000204BC, symSize: 0x40 }
  - { offsetInCU: 0x2A66C, offset: 0x7E270, size: 0x8, addend: 0x0, symName: __ZNSt3__110shared_ptrINS_13__empty_stateIcEEEC2B7v160006Ev, symObjAddr: 0x4B24, symBinAddr: 0x100020528, symSize: 0x1C }
  - { offsetInCU: 0x2A695, offset: 0x7E299, size: 0x8, addend: 0x0, symName: __ZNSt3__111basic_regexIcNS_12regex_traitsIcEEE7__parseIPKcEET_S7_S7_, symObjAddr: 0x4B94, symBinAddr: 0x100020598, symSize: 0x21C }
  - { offsetInCU: 0x2A70C, offset: 0x7E310, size: 0x8, addend: 0x0, symName: __ZNSt3__111__end_stateIcEC1B7v160006Ev, symObjAddr: 0x4E30, symBinAddr: 0x100020834, symSize: 0x2C }
  - { offsetInCU: 0x2A7C0, offset: 0x7E3C4, size: 0x8, addend: 0x0, symName: __ZNSt3__110unique_ptrINS_6__nodeIcEENS_14default_deleteIS2_EEEC1B7v160006ILb1EvEEPS2_, symObjAddr: 0x4E5C, symBinAddr: 0x100020860, symSize: 0x34 }
  - { offsetInCU: 0x2A806, offset: 0x7E40A, size: 0x8, addend: 0x0, symName: __ZNSt3__110shared_ptrINS_13__empty_stateIcEEE5resetB7v160006IS2_vEEvPT_, symObjAddr: 0x4E90, symBinAddr: 0x100020894, symSize: 0x4C }
  - { offsetInCU: 0x2A844, offset: 0x7E448, size: 0x8, addend: 0x0, symName: __ZNKSt3__110unique_ptrINS_6__nodeIcEENS_14default_deleteIS2_EEE3getB7v160006Ev, symObjAddr: 0x4EDC, symBinAddr: 0x1000208E0, symSize: 0x28 }
  - { offsetInCU: 0x2A869, offset: 0x7E46D, size: 0x8, addend: 0x0, symName: __ZNSt3__113__empty_stateIcEC1B7v160006EPNS_6__nodeIcEE, symObjAddr: 0x4F04, symBinAddr: 0x100020908, symSize: 0x34 }
  - { offsetInCU: 0x2A8A0, offset: 0x7E4A4, size: 0x8, addend: 0x0, symName: __ZNSt3__110unique_ptrINS_6__nodeIcEENS_14default_deleteIS2_EEE7releaseB7v160006Ev, symObjAddr: 0x4F38, symBinAddr: 0x10002093C, symSize: 0x44 }
  - { offsetInCU: 0x2A8D4, offset: 0x7E4D8, size: 0x8, addend: 0x0, symName: __ZNKSt3__110shared_ptrINS_13__empty_stateIcEEE3getB7v160006Ev, symObjAddr: 0x4F7C, symBinAddr: 0x100020980, symSize: 0x18 }
  - { offsetInCU: 0x2A8F9, offset: 0x7E4FD, size: 0x8, addend: 0x0, symName: __ZNSt3__110unique_ptrINS_6__nodeIcEENS_14default_deleteIS2_EEED1B7v160006Ev, symObjAddr: 0x4F94, symBinAddr: 0x100020998, symSize: 0x2C }
  - { offsetInCU: 0x2A921, offset: 0x7E525, size: 0x8, addend: 0x0, symName: __ZNSt3__111basic_regexIcNS_12regex_traitsIcEEE16__parse_ecma_expIPKcEET_S7_S7_, symObjAddr: 0x4FC0, symBinAddr: 0x1000209C4, symSize: 0x124 }
  - { offsetInCU: 0x2A9AA, offset: 0x7E5AE, size: 0x8, addend: 0x0, symName: __ZNSt3__111basic_regexIcNS_12regex_traitsIcEEE21__parse_basic_reg_expIPKcEET_S7_S7_, symObjAddr: 0x50E4, symBinAddr: 0x100020AE8, symSize: 0x13C }
  - { offsetInCU: 0x2AA15, offset: 0x7E619, size: 0x8, addend: 0x0, symName: __ZNSt3__111basic_regexIcNS_12regex_traitsIcEEE24__parse_extended_reg_expIPKcEET_S7_S7_, symObjAddr: 0x5220, symBinAddr: 0x100020C24, symSize: 0x114 }
  - { offsetInCU: 0x2AA9E, offset: 0x7E6A2, size: 0x8, addend: 0x0, symName: __ZNSt3__111basic_regexIcNS_12regex_traitsIcEEE12__parse_grepIPKcEET_S7_S7_, symObjAddr: 0x5334, symBinAddr: 0x100020D38, symSize: 0x17C }
  - { offsetInCU: 0x2AB27, offset: 0x7E72B, size: 0x8, addend: 0x0, symName: __ZNSt3__111basic_regexIcNS_12regex_traitsIcEEE13__parse_egrepIPKcEET_S7_S7_, symObjAddr: 0x54B0, symBinAddr: 0x100020EB4, symSize: 0x17C }
  - { offsetInCU: 0x2ABB0, offset: 0x7E7B4, size: 0x8, addend: 0x0, symName: __ZNSt3__111__end_stateIcEC2B7v160006Ev, symObjAddr: 0x568C, symBinAddr: 0x100021090, symSize: 0x44 }
  - { offsetInCU: 0x2ABD8, offset: 0x7E7DC, size: 0x8, addend: 0x0, symName: __ZNSt3__16__nodeIcEC2B7v160006Ev, symObjAddr: 0x56D0, symBinAddr: 0x1000210D4, symSize: 0x24 }
  - { offsetInCU: 0x2AC01, offset: 0x7E805, size: 0x8, addend: 0x0, symName: __ZNSt3__111__end_stateIcED1Ev, symObjAddr: 0x56F4, symBinAddr: 0x1000210F8, symSize: 0x2C }
  - { offsetInCU: 0x2AC2D, offset: 0x7E831, size: 0x8, addend: 0x0, symName: __ZNSt3__111__end_stateIcED0Ev, symObjAddr: 0x5720, symBinAddr: 0x100021124, symSize: 0x30 }
  - { offsetInCU: 0x2AC59, offset: 0x7E85D, size: 0x8, addend: 0x0, symName: __ZNKSt3__111__end_stateIcE6__execERNS_7__stateIcEE, symObjAddr: 0x5750, symBinAddr: 0x100021154, symSize: 0x20 }
  - { offsetInCU: 0x2AC8F, offset: 0x7E893, size: 0x8, addend: 0x0, symName: __ZNKSt3__16__nodeIcE12__exec_splitEbRNS_7__stateIcEE, symObjAddr: 0x5770, symBinAddr: 0x100021174, symSize: 0x1C }
  - { offsetInCU: 0x2ACCC, offset: 0x7E8D0, size: 0x8, addend: 0x0, symName: __ZNSt3__16__nodeIcED1Ev, symObjAddr: 0x578C, symBinAddr: 0x100021190, symSize: 0x2C }
  - { offsetInCU: 0x2ACF4, offset: 0x7E8F8, size: 0x8, addend: 0x0, symName: __ZNSt3__16__nodeIcED0Ev, symObjAddr: 0x57B8, symBinAddr: 0x1000211BC, symSize: 0x30 }
  - { offsetInCU: 0x2AD1C, offset: 0x7E920, size: 0x8, addend: 0x0, symName: __ZNKSt3__16__nodeIcE6__execERNS_7__stateIcEE, symObjAddr: 0x57E8, symBinAddr: 0x1000211EC, symSize: 0x14 }
  - { offsetInCU: 0x2AD4D, offset: 0x7E951, size: 0x8, addend: 0x0, symName: __ZNSt3__16__nodeIcED2Ev, symObjAddr: 0x57FC, symBinAddr: 0x100021200, symSize: 0x14 }
  - { offsetInCU: 0x2AD76, offset: 0x7E97A, size: 0x8, addend: 0x0, symName: __ZNSt3__111__end_stateIcED2Ev, symObjAddr: 0x5810, symBinAddr: 0x100021214, symSize: 0x2C }
  - { offsetInCU: 0x2ADA2, offset: 0x7E9A6, size: 0x8, addend: 0x0, symName: __ZNSt3__110unique_ptrINS_6__nodeIcEENS_14default_deleteIS2_EEEC2B7v160006ILb1EvEEPS2_, symObjAddr: 0x583C, symBinAddr: 0x100021240, symSize: 0x44 }
  - { offsetInCU: 0x2ADE8, offset: 0x7E9EC, size: 0x8, addend: 0x0, symName: __ZNSt3__117__compressed_pairIPNS_6__nodeIcEENS_14default_deleteIS2_EEEC1B7v160006IRS3_NS_16__value_init_tagEEEOT_OT0_, symObjAddr: 0x5880, symBinAddr: 0x100021284, symSize: 0x3C }
  - { offsetInCU: 0x2AE3E, offset: 0x7EA42, size: 0x8, addend: 0x0, symName: __ZNSt3__117__compressed_pairIPNS_6__nodeIcEENS_14default_deleteIS2_EEEC2B7v160006IRS3_NS_16__value_init_tagEEEOT_OT0_, symObjAddr: 0x58BC, symBinAddr: 0x1000212C0, symSize: 0x40 }
  - { offsetInCU: 0x2AE94, offset: 0x7EA98, size: 0x8, addend: 0x0, symName: __ZNSt3__122__compressed_pair_elemIPNS_6__nodeIcEELi0ELb0EEC2B7v160006IRS3_vEEOT_, symObjAddr: 0x58FC, symBinAddr: 0x100021300, symSize: 0x24 }
  - { offsetInCU: 0x2AED5, offset: 0x7EAD9, size: 0x8, addend: 0x0, symName: __ZNSt3__122__compressed_pair_elemINS_14default_deleteINS_6__nodeIcEEEELi1ELb1EEC2B7v160006ENS_16__value_init_tagE, symObjAddr: 0x5920, symBinAddr: 0x100021324, symSize: 0x14 }
  - { offsetInCU: 0x2AF09, offset: 0x7EB0D, size: 0x8, addend: 0x0, symName: __ZNSt3__110shared_ptrINS_13__empty_stateIcEEEC1IS2_vEEPT_, symObjAddr: 0x5934, symBinAddr: 0x100021338, symSize: 0x34 }
  - { offsetInCU: 0x2AF4A, offset: 0x7EB4E, size: 0x8, addend: 0x0, symName: __ZNSt3__110shared_ptrINS_13__empty_stateIcEEE4swapB7v160006ERS3_, symObjAddr: 0x5968, symBinAddr: 0x10002136C, symSize: 0x44 }
  - { offsetInCU: 0x2AF7E, offset: 0x7EB82, size: 0x8, addend: 0x0, symName: __ZNSt3__110shared_ptrINS_13__empty_stateIcEEEC2IS2_vEEPT_, symObjAddr: 0x59AC, symBinAddr: 0x1000213B0, symSize: 0xEC }
  - { offsetInCU: 0x2B065, offset: 0x7EC69, size: 0x8, addend: 0x0, symName: __ZNSt3__110unique_ptrINS_13__empty_stateIcEENS_14default_deleteIS2_EEEC1B7v160006ILb1EvEEPS2_, symObjAddr: 0x5A98, symBinAddr: 0x10002149C, symSize: 0x34 }
  - { offsetInCU: 0x2B0C4, offset: 0x7ECC8, size: 0x8, addend: 0x0, symName: __ZNSt3__19allocatorINS_13__empty_stateIcEEEC1B7v160006Ev, symObjAddr: 0x5ACC, symBinAddr: 0x1000214D0, symSize: 0x2C }
  - { offsetInCU: 0x2B187, offset: 0x7ED8B, size: 0x8, addend: 0x0, symName: __ZNSt3__120__shared_ptr_pointerIPNS_13__empty_stateIcEENS_10shared_ptrIS2_E27__shared_ptr_default_deleteIS2_S2_EENS_9allocatorIS2_EEEC1B7v160006ES3_S7_S9_, symObjAddr: 0x5AF8, symBinAddr: 0x1000214FC, symSize: 0x34 }
  - { offsetInCU: 0x2B1D9, offset: 0x7EDDD, size: 0x8, addend: 0x0, symName: __ZNSt3__110unique_ptrINS_13__empty_stateIcEENS_14default_deleteIS2_EEE7releaseB7v160006Ev, symObjAddr: 0x5B2C, symBinAddr: 0x100021530, symSize: 0x44 }
  - { offsetInCU: 0x2B20D, offset: 0x7EE11, size: 0x8, addend: 0x0, symName: __ZNSt3__110shared_ptrINS_13__empty_stateIcEEE18__enable_weak_thisB7v160006Ez, symObjAddr: 0x5B70, symBinAddr: 0x100021574, symSize: 0x10 }
  - { offsetInCU: 0x2B233, offset: 0x7EE37, size: 0x8, addend: 0x0, symName: __ZNSt3__110unique_ptrINS_13__empty_stateIcEENS_14default_deleteIS2_EEED1B7v160006Ev, symObjAddr: 0x5B80, symBinAddr: 0x100021584, symSize: 0x2C }
  - { offsetInCU: 0x2B25B, offset: 0x7EE5F, size: 0x8, addend: 0x0, symName: __ZNSt3__110unique_ptrINS_13__empty_stateIcEENS_14default_deleteIS2_EEEC2B7v160006ILb1EvEEPS2_, symObjAddr: 0x5BAC, symBinAddr: 0x1000215B0, symSize: 0x44 }
  - { offsetInCU: 0x2B29C, offset: 0x7EEA0, size: 0x8, addend: 0x0, symName: __ZNSt3__117__compressed_pairIPNS_13__empty_stateIcEENS_14default_deleteIS2_EEEC1B7v160006IRS3_NS_16__value_init_tagEEEOT_OT0_, symObjAddr: 0x5BF0, symBinAddr: 0x1000215F4, symSize: 0x3C }
  - { offsetInCU: 0x2B2F2, offset: 0x7EEF6, size: 0x8, addend: 0x0, symName: __ZNSt3__117__compressed_pairIPNS_13__empty_stateIcEENS_14default_deleteIS2_EEEC2B7v160006IRS3_NS_16__value_init_tagEEEOT_OT0_, symObjAddr: 0x5C2C, symBinAddr: 0x100021630, symSize: 0x40 }
  - { offsetInCU: 0x2B348, offset: 0x7EF4C, size: 0x8, addend: 0x0, symName: __ZNSt3__122__compressed_pair_elemIPNS_13__empty_stateIcEELi0ELb0EEC2B7v160006IRS3_vEEOT_, symObjAddr: 0x5C6C, symBinAddr: 0x100021670, symSize: 0x24 }
  - { offsetInCU: 0x2B389, offset: 0x7EF8D, size: 0x8, addend: 0x0, symName: __ZNSt3__122__compressed_pair_elemINS_14default_deleteINS_13__empty_stateIcEEEELi1ELb1EEC2B7v160006ENS_16__value_init_tagE, symObjAddr: 0x5C90, symBinAddr: 0x100021694, symSize: 0x14 }
  - { offsetInCU: 0x2B3BD, offset: 0x7EFC1, size: 0x8, addend: 0x0, symName: __ZNSt3__19allocatorINS_13__empty_stateIcEEEC2B7v160006Ev, symObjAddr: 0x5CA4, symBinAddr: 0x1000216A8, symSize: 0x2C }
  - { offsetInCU: 0x2B3E5, offset: 0x7EFE9, size: 0x8, addend: 0x0, symName: __ZNSt3__116__non_trivial_ifILb1ENS_9allocatorINS_13__empty_stateIcEEEEEC2B7v160006Ev, symObjAddr: 0x5CD0, symBinAddr: 0x1000216D4, symSize: 0x14 }
  - { offsetInCU: 0x2B40E, offset: 0x7F012, size: 0x8, addend: 0x0, symName: __ZNSt3__120__shared_ptr_pointerIPNS_13__empty_stateIcEENS_10shared_ptrIS2_E27__shared_ptr_default_deleteIS2_S2_EENS_9allocatorIS2_EEEC2B7v160006ES3_S7_S9_, symObjAddr: 0x5CE4, symBinAddr: 0x1000216E8, symSize: 0xA8 }
  - { offsetInCU: 0x2B460, offset: 0x7F064, size: 0x8, addend: 0x0, symName: __ZNSt3__119__shared_weak_countC2B7v160006El, symObjAddr: 0x5D8C, symBinAddr: 0x100021790, symSize: 0x54 }
  - { offsetInCU: 0x2B49B, offset: 0x7F09F, size: 0x8, addend: 0x0, symName: __ZNSt3__117__compressed_pairIPNS_13__empty_stateIcEENS_10shared_ptrIS2_E27__shared_ptr_default_deleteIS2_S2_EEEC1B7v160006IRS3_S7_EEOT_OT0_, symObjAddr: 0x5DE0, symBinAddr: 0x1000217E4, symSize: 0x3C }
  - { offsetInCU: 0x2B4FB, offset: 0x7F0FF, size: 0x8, addend: 0x0, symName: __ZNSt3__117__compressed_pairINS0_IPNS_13__empty_stateIcEENS_10shared_ptrIS2_E27__shared_ptr_default_deleteIS2_S2_EEEENS_9allocatorIS2_EEEC1B7v160006IS8_SA_EEOT_OT0_, symObjAddr: 0x5E1C, symBinAddr: 0x100021820, symSize: 0x3C }
  - { offsetInCU: 0x2B551, offset: 0x7F155, size: 0x8, addend: 0x0, symName: __ZNSt3__120__shared_ptr_pointerIPNS_13__empty_stateIcEENS_10shared_ptrIS2_E27__shared_ptr_default_deleteIS2_S2_EENS_9allocatorIS2_EEED1Ev, symObjAddr: 0x5E58, symBinAddr: 0x10002185C, symSize: 0x2C }
  - { offsetInCU: 0x2B57C, offset: 0x7F180, size: 0x8, addend: 0x0, symName: __ZNSt3__120__shared_ptr_pointerIPNS_13__empty_stateIcEENS_10shared_ptrIS2_E27__shared_ptr_default_deleteIS2_S2_EENS_9allocatorIS2_EEED0Ev, symObjAddr: 0x5E84, symBinAddr: 0x100021888, symSize: 0x30 }
  - { offsetInCU: 0x2B5A7, offset: 0x7F1AB, size: 0x8, addend: 0x0, symName: __ZNSt3__120__shared_ptr_pointerIPNS_13__empty_stateIcEENS_10shared_ptrIS2_E27__shared_ptr_default_deleteIS2_S2_EENS_9allocatorIS2_EEE16__on_zero_sharedEv, symObjAddr: 0x5EB4, symBinAddr: 0x1000218B8, symSize: 0x64 }
  - { offsetInCU: 0x2B5CD, offset: 0x7F1D1, size: 0x8, addend: 0x0, symName: __ZNKSt3__120__shared_ptr_pointerIPNS_13__empty_stateIcEENS_10shared_ptrIS2_E27__shared_ptr_default_deleteIS2_S2_EENS_9allocatorIS2_EEE13__get_deleterERKSt9type_info, symObjAddr: 0x5F18, symBinAddr: 0x10002191C, symSize: 0x68 }
  - { offsetInCU: 0x2B601, offset: 0x7F205, size: 0x8, addend: 0x0, symName: __ZNSt3__120__shared_ptr_pointerIPNS_13__empty_stateIcEENS_10shared_ptrIS2_E27__shared_ptr_default_deleteIS2_S2_EENS_9allocatorIS2_EEE21__on_zero_shared_weakEv, symObjAddr: 0x5F80, symBinAddr: 0x100021984, symSize: 0x60 }
  - { offsetInCU: 0x2B641, offset: 0x7F245, size: 0x8, addend: 0x0, symName: __ZNSt3__114__shared_countC2B7v160006El, symObjAddr: 0x5FE0, symBinAddr: 0x1000219E4, symSize: 0x30 }
  - { offsetInCU: 0x2B678, offset: 0x7F27C, size: 0x8, addend: 0x0, symName: __ZNSt3__117__compressed_pairIPNS_13__empty_stateIcEENS_10shared_ptrIS2_E27__shared_ptr_default_deleteIS2_S2_EEEC2B7v160006IRS3_S7_EEOT_OT0_, symObjAddr: 0x6010, symBinAddr: 0x100021A14, symSize: 0x44 }
  - { offsetInCU: 0x2B6CE, offset: 0x7F2D2, size: 0x8, addend: 0x0, symName: __ZNSt3__122__compressed_pair_elemINS_10shared_ptrINS_13__empty_stateIcEEE27__shared_ptr_default_deleteIS3_S3_EELi1ELb1EEC2B7v160006IS6_vEEOT_, symObjAddr: 0x6054, symBinAddr: 0x100021A58, symSize: 0x18 }
  - { offsetInCU: 0x2B70F, offset: 0x7F313, size: 0x8, addend: 0x0, symName: __ZNSt3__117__compressed_pairINS0_IPNS_13__empty_stateIcEENS_10shared_ptrIS2_E27__shared_ptr_default_deleteIS2_S2_EEEENS_9allocatorIS2_EEEC2B7v160006IS8_SA_EEOT_OT0_, symObjAddr: 0x606C, symBinAddr: 0x100021A70, symSize: 0x44 }
  - { offsetInCU: 0x2B765, offset: 0x7F369, size: 0x8, addend: 0x0, symName: __ZNSt3__122__compressed_pair_elemINS_17__compressed_pairIPNS_13__empty_stateIcEENS_10shared_ptrIS3_E27__shared_ptr_default_deleteIS3_S3_EEEELi0ELb0EEC2B7v160006IS9_vEEOT_, symObjAddr: 0x60B0, symBinAddr: 0x100021AB4, symSize: 0x24 }
  - { offsetInCU: 0x2B7A6, offset: 0x7F3AA, size: 0x8, addend: 0x0, symName: __ZNSt3__122__compressed_pair_elemINS_9allocatorINS_13__empty_stateIcEEEELi1ELb1EEC2B7v160006IS4_vEEOT_, symObjAddr: 0x60D4, symBinAddr: 0x100021AD8, symSize: 0x18 }
  - { offsetInCU: 0x2B7E7, offset: 0x7F3EB, size: 0x8, addend: 0x0, symName: __ZNSt3__120__shared_ptr_pointerIPNS_13__empty_stateIcEENS_10shared_ptrIS2_E27__shared_ptr_default_deleteIS2_S2_EENS_9allocatorIS2_EEED2Ev, symObjAddr: 0x60EC, symBinAddr: 0x100021AF0, symSize: 0x2C }
  - { offsetInCU: 0x2B812, offset: 0x7F416, size: 0x8, addend: 0x0, symName: __ZNSt3__117__compressed_pairINS0_IPNS_13__empty_stateIcEENS_10shared_ptrIS2_E27__shared_ptr_default_deleteIS2_S2_EEEENS_9allocatorIS2_EEE5firstB7v160006Ev, symObjAddr: 0x6118, symBinAddr: 0x100021B1C, symSize: 0x24 }
  - { offsetInCU: 0x2B837, offset: 0x7F43B, size: 0x8, addend: 0x0, symName: __ZNSt3__117__compressed_pairIPNS_13__empty_stateIcEENS_10shared_ptrIS2_E27__shared_ptr_default_deleteIS2_S2_EEE6secondB7v160006Ev, symObjAddr: 0x613C, symBinAddr: 0x100021B40, symSize: 0x24 }
  - { offsetInCU: 0x2B85C, offset: 0x7F460, size: 0x8, addend: 0x0, symName: __ZNKSt3__114default_deleteINS_13__empty_stateIcEEEclB7v160006EPS2_, symObjAddr: 0x6160, symBinAddr: 0x100021B64, symSize: 0x4C }
  - { offsetInCU: 0x2B88F, offset: 0x7F493, size: 0x8, addend: 0x0, symName: __ZNSt3__117__compressed_pairIPNS_13__empty_stateIcEENS_10shared_ptrIS2_E27__shared_ptr_default_deleteIS2_S2_EEE5firstB7v160006Ev, symObjAddr: 0x61AC, symBinAddr: 0x100021BB0, symSize: 0x24 }
  - { offsetInCU: 0x2B8B4, offset: 0x7F4B8, size: 0x8, addend: 0x0, symName: __ZNSt3__122__compressed_pair_elemINS_17__compressed_pairIPNS_13__empty_stateIcEENS_10shared_ptrIS3_E27__shared_ptr_default_deleteIS3_S3_EEEELi0ELb0EE5__getB7v160006Ev, symObjAddr: 0x61D0, symBinAddr: 0x100021BD4, symSize: 0x14 }
  - { offsetInCU: 0x2B8D9, offset: 0x7F4DD, size: 0x8, addend: 0x0, symName: __ZNSt3__122__compressed_pair_elemINS_10shared_ptrINS_13__empty_stateIcEEE27__shared_ptr_default_deleteIS3_S3_EELi1ELb1EE5__getB7v160006Ev, symObjAddr: 0x61E4, symBinAddr: 0x100021BE8, symSize: 0x14 }
  - { offsetInCU: 0x2B8FE, offset: 0x7F502, size: 0x8, addend: 0x0, symName: __ZNSt3__122__compressed_pair_elemIPNS_13__empty_stateIcEELi0ELb0EE5__getB7v160006Ev, symObjAddr: 0x61F8, symBinAddr: 0x100021BFC, symSize: 0x14 }
  - { offsetInCU: 0x2B959, offset: 0x7F55D, size: 0x8, addend: 0x0, symName: __ZNKSt9type_infoeqB7v160006ERKS_, symObjAddr: 0x620C, symBinAddr: 0x100021C10, symSize: 0xDC }
  - { offsetInCU: 0x2B9F6, offset: 0x7F5FA, size: 0x8, addend: 0x0, symName: __ZNKSt3__117__compressed_pairINS0_IPNS_13__empty_stateIcEENS_10shared_ptrIS2_E27__shared_ptr_default_deleteIS2_S2_EEEENS_9allocatorIS2_EEE5firstB7v160006Ev, symObjAddr: 0x62E8, symBinAddr: 0x100021CEC, symSize: 0x24 }
  - { offsetInCU: 0x2BA1B, offset: 0x7F61F, size: 0x8, addend: 0x0, symName: __ZNKSt3__117__compressed_pairIPNS_13__empty_stateIcEENS_10shared_ptrIS2_E27__shared_ptr_default_deleteIS2_S2_EEE6secondB7v160006Ev, symObjAddr: 0x630C, symBinAddr: 0x100021D10, symSize: 0x24 }
  - { offsetInCU: 0x2BA40, offset: 0x7F644, size: 0x8, addend: 0x0, symName: __ZNSt27__type_info_implementations30__non_unique_arm_rtti_bit_impl21__is_type_name_uniqueB7v160006Em, symObjAddr: 0x6330, symBinAddr: 0x100021D34, symSize: 0x20 }
  - { offsetInCU: 0x2BA64, offset: 0x7F668, size: 0x8, addend: 0x0, symName: __ZNKSt3__122__compressed_pair_elemINS_17__compressed_pairIPNS_13__empty_stateIcEENS_10shared_ptrIS3_E27__shared_ptr_default_deleteIS3_S3_EEEELi0ELb0EE5__getB7v160006Ev, symObjAddr: 0x6350, symBinAddr: 0x100021D54, symSize: 0x14 }
  - { offsetInCU: 0x2BA89, offset: 0x7F68D, size: 0x8, addend: 0x0, symName: __ZNKSt3__122__compressed_pair_elemINS_10shared_ptrINS_13__empty_stateIcEEE27__shared_ptr_default_deleteIS3_S3_EELi1ELb1EE5__getB7v160006Ev, symObjAddr: 0x6364, symBinAddr: 0x100021D68, symSize: 0x14 }
  - { offsetInCU: 0x2BAAE, offset: 0x7F6B2, size: 0x8, addend: 0x0, symName: __ZNSt3__117__compressed_pairINS0_IPNS_13__empty_stateIcEENS_10shared_ptrIS2_E27__shared_ptr_default_deleteIS2_S2_EEEENS_9allocatorIS2_EEE6secondB7v160006Ev, symObjAddr: 0x6378, symBinAddr: 0x100021D7C, symSize: 0x24 }
  - { offsetInCU: 0x2BAFB, offset: 0x7F6FF, size: 0x8, addend: 0x0, symName: __ZNSt3__19allocatorINS_20__shared_ptr_pointerIPNS_13__empty_stateIcEENS_10shared_ptrIS3_E27__shared_ptr_default_deleteIS3_S3_EENS0_IS3_EEEEEC1B7v160006IS3_EERKNS0_IT_EE, symObjAddr: 0x639C, symBinAddr: 0x100021DA0, symSize: 0x34 }
  - { offsetInCU: 0x2BB37, offset: 0x7F73B, size: 0x8, addend: 0x0, symName: __ZNSt3__19allocatorINS_20__shared_ptr_pointerIPNS_13__empty_stateIcEENS_10shared_ptrIS3_E27__shared_ptr_default_deleteIS3_S3_EENS0_IS3_EEEEE10deallocateB7v160006EPSA_m, symObjAddr: 0x63D0, symBinAddr: 0x100021DD4, symSize: 0x40 }
  - { offsetInCU: 0x2BB78, offset: 0x7F77C, size: 0x8, addend: 0x0, symName: __ZNSt3__114pointer_traitsIPNS_20__shared_ptr_pointerIPNS_13__empty_stateIcEENS_10shared_ptrIS3_E27__shared_ptr_default_deleteIS3_S3_EENS_9allocatorIS3_EEEEE10pointer_toB7v160006ERSB_, symObjAddr: 0x6410, symBinAddr: 0x100021E14, symSize: 0x14 }
  - { offsetInCU: 0x2BB9B, offset: 0x7F79F, size: 0x8, addend: 0x0, symName: __ZNSt3__122__compressed_pair_elemINS_9allocatorINS_13__empty_stateIcEEEELi1ELb1EE5__getB7v160006Ev, symObjAddr: 0x6424, symBinAddr: 0x100021E28, symSize: 0x14 }
  - { offsetInCU: 0x2BBC0, offset: 0x7F7C4, size: 0x8, addend: 0x0, symName: __ZNSt3__19allocatorINS_20__shared_ptr_pointerIPNS_13__empty_stateIcEENS_10shared_ptrIS3_E27__shared_ptr_default_deleteIS3_S3_EENS0_IS3_EEEEEC2B7v160006IS3_EERKNS0_IT_EE, symObjAddr: 0x6438, symBinAddr: 0x100021E3C, symSize: 0x30 }
  - { offsetInCU: 0x2BBFC, offset: 0x7F800, size: 0x8, addend: 0x0, symName: __ZNSt3__116__non_trivial_ifILb1ENS_9allocatorINS_20__shared_ptr_pointerIPNS_13__empty_stateIcEENS_10shared_ptrIS4_E27__shared_ptr_default_deleteIS4_S4_EENS1_IS4_EEEEEEEC2B7v160006Ev, symObjAddr: 0x6468, symBinAddr: 0x100021E6C, symSize: 0x14 }
  - { offsetInCU: 0x2BC25, offset: 0x7F829, size: 0x8, addend: 0x0, symName: __ZNSt3__117__compressed_pairIPNS_13__empty_stateIcEENS_14default_deleteIS2_EEE5firstB7v160006Ev, symObjAddr: 0x647C, symBinAddr: 0x100021E80, symSize: 0x24 }
  - { offsetInCU: 0x2BC4A, offset: 0x7F84E, size: 0x8, addend: 0x0, symName: __ZNSt3__110unique_ptrINS_13__empty_stateIcEENS_14default_deleteIS2_EEED2B7v160006Ev, symObjAddr: 0x64A0, symBinAddr: 0x100021EA4, symSize: 0x30 }
  - { offsetInCU: 0x2BC72, offset: 0x7F876, size: 0x8, addend: 0x0, symName: __ZNSt3__110unique_ptrINS_13__empty_stateIcEENS_14default_deleteIS2_EEE5resetB7v160006EPS2_, symObjAddr: 0x64D0, symBinAddr: 0x100021ED4, symSize: 0x78 }
  - { offsetInCU: 0x2BCB5, offset: 0x7F8B9, size: 0x8, addend: 0x0, symName: __ZNSt3__117__compressed_pairIPNS_13__empty_stateIcEENS_14default_deleteIS2_EEE6secondB7v160006Ev, symObjAddr: 0x6548, symBinAddr: 0x100021F4C, symSize: 0x24 }
  - { offsetInCU: 0x2BCDA, offset: 0x7F8DE, size: 0x8, addend: 0x0, symName: __ZNSt3__122__compressed_pair_elemINS_14default_deleteINS_13__empty_stateIcEEEELi1ELb1EE5__getB7v160006Ev, symObjAddr: 0x656C, symBinAddr: 0x100021F70, symSize: 0x14 }
  - { offsetInCU: 0x2BCFF, offset: 0x7F903, size: 0x8, addend: 0x0, symName: __ZNKSt3__117__compressed_pairIPNS_6__nodeIcEENS_14default_deleteIS2_EEE5firstB7v160006Ev, symObjAddr: 0x65F8, symBinAddr: 0x100021FFC, symSize: 0x24 }
  - { offsetInCU: 0x2BD24, offset: 0x7F928, size: 0x8, addend: 0x0, symName: __ZNKSt3__122__compressed_pair_elemIPNS_6__nodeIcEELi0ELb0EE5__getB7v160006Ev, symObjAddr: 0x661C, symBinAddr: 0x100022020, symSize: 0x14 }
  - { offsetInCU: 0x2BD49, offset: 0x7F94D, size: 0x8, addend: 0x0, symName: __ZNSt3__113__empty_stateIcEC2B7v160006EPNS_6__nodeIcEE, symObjAddr: 0x6630, symBinAddr: 0x100022034, symSize: 0x4C }
  - { offsetInCU: 0x2BD80, offset: 0x7F984, size: 0x8, addend: 0x0, symName: __ZNSt3__116__owns_one_stateIcEC2B7v160006EPNS_6__nodeIcEE, symObjAddr: 0x667C, symBinAddr: 0x100022080, symSize: 0x4C }
  - { offsetInCU: 0x2BDB7, offset: 0x7F9BB, size: 0x8, addend: 0x0, symName: __ZNSt3__113__empty_stateIcED1Ev, symObjAddr: 0x66C8, symBinAddr: 0x1000220CC, symSize: 0x2C }
  - { offsetInCU: 0x2BDE3, offset: 0x7F9E7, size: 0x8, addend: 0x0, symName: __ZNSt3__113__empty_stateIcED0Ev, symObjAddr: 0x66F4, symBinAddr: 0x1000220F8, symSize: 0x30 }
  - { offsetInCU: 0x2BE0F, offset: 0x7FA13, size: 0x8, addend: 0x0, symName: __ZNKSt3__113__empty_stateIcE6__execERNS_7__stateIcEE, symObjAddr: 0x6724, symBinAddr: 0x100022128, symSize: 0x3C }
  - { offsetInCU: 0x2BE45, offset: 0x7FA49, size: 0x8, addend: 0x0, symName: __ZNSt3__115__has_one_stateIcEC2B7v160006EPNS_6__nodeIcEE, symObjAddr: 0x6760, symBinAddr: 0x100022164, symSize: 0x50 }
  - { offsetInCU: 0x2BE7C, offset: 0x7FA80, size: 0x8, addend: 0x0, symName: __ZNSt3__116__owns_one_stateIcED1Ev, symObjAddr: 0x67B0, symBinAddr: 0x1000221B4, symSize: 0x2C }
  - { offsetInCU: 0x2BEA7, offset: 0x7FAAB, size: 0x8, addend: 0x0, symName: __ZNSt3__116__owns_one_stateIcED0Ev, symObjAddr: 0x67DC, symBinAddr: 0x1000221E0, symSize: 0x30 }
  - { offsetInCU: 0x2BED2, offset: 0x7FAD6, size: 0x8, addend: 0x0, symName: __ZNSt3__115__has_one_stateIcED1Ev, symObjAddr: 0x680C, symBinAddr: 0x100022210, symSize: 0x2C }
  - { offsetInCU: 0x2BEFE, offset: 0x7FB02, size: 0x8, addend: 0x0, symName: __ZNSt3__115__has_one_stateIcED0Ev, symObjAddr: 0x6838, symBinAddr: 0x10002223C, symSize: 0x30 }
  - { offsetInCU: 0x2BF2A, offset: 0x7FB2E, size: 0x8, addend: 0x0, symName: __ZNSt3__115__has_one_stateIcED2Ev, symObjAddr: 0x6868, symBinAddr: 0x10002226C, symSize: 0x2C }
  - { offsetInCU: 0x2BF56, offset: 0x7FB5A, size: 0x8, addend: 0x0, symName: __ZNSt3__116__owns_one_stateIcED2Ev, symObjAddr: 0x6894, symBinAddr: 0x100022298, symSize: 0x88 }
  - { offsetInCU: 0x2BF81, offset: 0x7FB85, size: 0x8, addend: 0x0, symName: __ZNSt3__115__has_one_stateIcE5firstB7v160006Ev, symObjAddr: 0x691C, symBinAddr: 0x100022320, symSize: 0x18 }
  - { offsetInCU: 0x2BFA6, offset: 0x7FBAA, size: 0x8, addend: 0x0, symName: __ZNSt3__113__empty_stateIcED2Ev, symObjAddr: 0x6934, symBinAddr: 0x100022338, symSize: 0x2C }
  - { offsetInCU: 0x2BFD2, offset: 0x7FBD6, size: 0x8, addend: 0x0, symName: __ZNKSt3__115__has_one_stateIcE5firstB7v160006Ev, symObjAddr: 0x6960, symBinAddr: 0x100022364, symSize: 0x18 }
  - { offsetInCU: 0x2BFF7, offset: 0x7FBFB, size: 0x8, addend: 0x0, symName: __ZNSt3__117__compressed_pairIPNS_6__nodeIcEENS_14default_deleteIS2_EEE5firstB7v160006Ev, symObjAddr: 0x6978, symBinAddr: 0x10002237C, symSize: 0x24 }
  - { offsetInCU: 0x2C01C, offset: 0x7FC20, size: 0x8, addend: 0x0, symName: __ZNSt3__122__compressed_pair_elemIPNS_6__nodeIcEELi0ELb0EE5__getB7v160006Ev, symObjAddr: 0x699C, symBinAddr: 0x1000223A0, symSize: 0x14 }
  - { offsetInCU: 0x2C041, offset: 0x7FC45, size: 0x8, addend: 0x0, symName: __ZNSt3__110unique_ptrINS_6__nodeIcEENS_14default_deleteIS2_EEED2B7v160006Ev, symObjAddr: 0x69B0, symBinAddr: 0x1000223B4, symSize: 0x30 }
  - { offsetInCU: 0x2C069, offset: 0x7FC6D, size: 0x8, addend: 0x0, symName: __ZNSt3__110unique_ptrINS_6__nodeIcEENS_14default_deleteIS2_EEE5resetB7v160006EPS2_, symObjAddr: 0x69E0, symBinAddr: 0x1000223E4, symSize: 0x78 }
  - { offsetInCU: 0x2C0AC, offset: 0x7FCB0, size: 0x8, addend: 0x0, symName: __ZNSt3__117__compressed_pairIPNS_6__nodeIcEENS_14default_deleteIS2_EEE6secondB7v160006Ev, symObjAddr: 0x6A58, symBinAddr: 0x10002245C, symSize: 0x24 }
  - { offsetInCU: 0x2C0D1, offset: 0x7FCD5, size: 0x8, addend: 0x0, symName: __ZNKSt3__114default_deleteINS_6__nodeIcEEEclB7v160006EPS2_, symObjAddr: 0x6A7C, symBinAddr: 0x100022480, symSize: 0x4C }
  - { offsetInCU: 0x2C104, offset: 0x7FD08, size: 0x8, addend: 0x0, symName: __ZNSt3__122__compressed_pair_elemINS_14default_deleteINS_6__nodeIcEEEELi1ELb1EE5__getB7v160006Ev, symObjAddr: 0x6AC8, symBinAddr: 0x1000224CC, symSize: 0x14 }
  - { offsetInCU: 0x2C129, offset: 0x7FD2D, size: 0x8, addend: 0x0, symName: __ZNSt3__111basic_regexIcNS_12regex_traitsIcEEE19__parse_alternativeIPKcEET_S7_S7_, symObjAddr: 0x6ADC, symBinAddr: 0x1000224E0, symSize: 0x70 }
  - { offsetInCU: 0x2C194, offset: 0x7FD98, size: 0x8, addend: 0x0, symName: __ZNSt3__111basic_regexIcNS_12regex_traitsIcEEE12__push_emptyEv, symObjAddr: 0x6B4C, symBinAddr: 0x100022550, symSize: 0xA0 }
  - { offsetInCU: 0x2C1BB, offset: 0x7FDBF, size: 0x8, addend: 0x0, symName: __ZNSt3__111basic_regexIcNS_12regex_traitsIcEEE18__push_alternationEPNS_16__owns_one_stateIcEES6_, symObjAddr: 0x6BEC, symBinAddr: 0x1000225F0, symSize: 0x17C }
  - { offsetInCU: 0x2C200, offset: 0x7FE04, size: 0x8, addend: 0x0, symName: __ZNSt3__111basic_regexIcNS_12regex_traitsIcEEE12__parse_termIPKcEET_S7_S7_, symObjAddr: 0x6D68, symBinAddr: 0x10002276C, symSize: 0xD0 }
  - { offsetInCU: 0x2C289, offset: 0x7FE8D, size: 0x8, addend: 0x0, symName: __ZNSt3__111basic_regexIcNS_12regex_traitsIcEEE17__parse_assertionIPKcEET_S7_S7_, symObjAddr: 0x6E38, symBinAddr: 0x10002283C, symSize: 0x484 }
  - { offsetInCU: 0x2C355, offset: 0x7FF59, size: 0x8, addend: 0x0, symName: __ZNSt3__111basic_regexIcNS_12regex_traitsIcEEE12__parse_atomIPKcEET_S7_S7_, symObjAddr: 0x72BC, symBinAddr: 0x100022CC0, symSize: 0x2DC }
  - { offsetInCU: 0x2C3DD, offset: 0x7FFE1, size: 0x8, addend: 0x0, symName: __ZNSt3__111basic_regexIcNS_12regex_traitsIcEEE23__parse_ERE_dupl_symbolIPKcEET_S7_S7_PNS_16__owns_one_stateIcEEjj, symObjAddr: 0x7598, symBinAddr: 0x100022F9C, symSize: 0x63C }
  - { offsetInCU: 0x2C4BE, offset: 0x800C2, size: 0x8, addend: 0x0, symName: __ZNSt3__111basic_regexIcNS_12regex_traitsIcEEE15__push_l_anchorEv, symObjAddr: 0x7BD4, symBinAddr: 0x1000235D8, symSize: 0xBC }
  - { offsetInCU: 0x2C4E5, offset: 0x800E9, size: 0x8, addend: 0x0, symName: __ZNSt3__111basic_regexIcNS_12regex_traitsIcEEE15__push_r_anchorEv, symObjAddr: 0x7C90, symBinAddr: 0x100023694, symSize: 0xBC }
  - { offsetInCU: 0x2C50C, offset: 0x80110, size: 0x8, addend: 0x0, symName: __ZNSt3__111basic_regexIcNS_12regex_traitsIcEEE20__push_word_boundaryEb, symObjAddr: 0x7D94, symBinAddr: 0x100023798, symSize: 0xC0 }
  - { offsetInCU: 0x2C542, offset: 0x80146, size: 0x8, addend: 0x0, symName: __ZNSt3__111basic_regexIcNS_12regex_traitsIcEEEC1B7v160006Ev, symObjAddr: 0x7E54, symBinAddr: 0x100023858, symSize: 0x2C }
  - { offsetInCU: 0x2C56A, offset: 0x8016E, size: 0x8, addend: 0x0, symName: __ZNSt3__111basic_regexIcNS_12regex_traitsIcEEE16__push_lookaheadERKS3_bj, symObjAddr: 0x7E80, symBinAddr: 0x100023884, symSize: 0xD4 }
  - { offsetInCU: 0x2C5BE, offset: 0x801C2, size: 0x8, addend: 0x0, symName: __ZNKSt3__111basic_regexIcNS_12regex_traitsIcEEE15__use_multilineB7v160006Ev, symObjAddr: 0x7FB4, symBinAddr: 0x1000239B8, symSize: 0x6C }
  - { offsetInCU: 0x2C5F7, offset: 0x801FB, size: 0x8, addend: 0x0, symName: __ZNSt3__120__l_anchor_multilineIcEC1B7v160006EbPNS_6__nodeIcEE, symObjAddr: 0x8020, symBinAddr: 0x100023A24, symSize: 0x48 }
  - { offsetInCU: 0x2C63D, offset: 0x80241, size: 0x8, addend: 0x0, symName: __ZNSt3__120__l_anchor_multilineIcEC2B7v160006EbPNS_6__nodeIcEE, symObjAddr: 0x8088, symBinAddr: 0x100023A8C, symSize: 0x64 }
  - { offsetInCU: 0x2C683, offset: 0x80287, size: 0x8, addend: 0x0, symName: __ZNSt3__120__l_anchor_multilineIcED1Ev, symObjAddr: 0x80EC, symBinAddr: 0x100023AF0, symSize: 0x2C }
  - { offsetInCU: 0x2C6AF, offset: 0x802B3, size: 0x8, addend: 0x0, symName: __ZNSt3__120__l_anchor_multilineIcED0Ev, symObjAddr: 0x8118, symBinAddr: 0x100023B1C, symSize: 0x30 }
  - { offsetInCU: 0x2C6DB, offset: 0x802DF, size: 0x8, addend: 0x0, symName: __ZNKSt3__120__l_anchor_multilineIcE6__execERNS_7__stateIcEE, symObjAddr: 0x8148, symBinAddr: 0x100023B4C, symSize: 0x114 }
  - { offsetInCU: 0x2C711, offset: 0x80315, size: 0x8, addend: 0x0, symName: __ZNSt3__120__l_anchor_multilineIcED2Ev, symObjAddr: 0x825C, symBinAddr: 0x100023C60, symSize: 0x2C }
  - { offsetInCU: 0x2C751, offset: 0x80355, size: 0x8, addend: 0x0, symName: __ZNSt3__120__r_anchor_multilineIcEC1B7v160006EbPNS_6__nodeIcEE, symObjAddr: 0x83CC, symBinAddr: 0x100023DBC, symSize: 0x48 }
  - { offsetInCU: 0x2C797, offset: 0x8039B, size: 0x8, addend: 0x0, symName: __ZNSt3__120__r_anchor_multilineIcEC2B7v160006EbPNS_6__nodeIcEE, symObjAddr: 0x8414, symBinAddr: 0x100023E04, symSize: 0x64 }
  - { offsetInCU: 0x2C7DD, offset: 0x803E1, size: 0x8, addend: 0x0, symName: __ZNSt3__120__r_anchor_multilineIcED1Ev, symObjAddr: 0x8478, symBinAddr: 0x100023E68, symSize: 0x2C }
  - { offsetInCU: 0x2C809, offset: 0x8040D, size: 0x8, addend: 0x0, symName: __ZNSt3__120__r_anchor_multilineIcED0Ev, symObjAddr: 0x84A4, symBinAddr: 0x100023E94, symSize: 0x30 }
  - { offsetInCU: 0x2C835, offset: 0x80439, size: 0x8, addend: 0x0, symName: __ZNKSt3__120__r_anchor_multilineIcE6__execERNS_7__stateIcEE, symObjAddr: 0x84D4, symBinAddr: 0x100023EC4, symSize: 0xEC }
  - { offsetInCU: 0x2C86B, offset: 0x8046F, size: 0x8, addend: 0x0, symName: __ZNSt3__120__r_anchor_multilineIcED2Ev, symObjAddr: 0x85C0, symBinAddr: 0x100023FB0, symSize: 0x2C }
  - { offsetInCU: 0x2C8AB, offset: 0x804AF, size: 0x8, addend: 0x0, symName: __ZNSt3__115__word_boundaryIcNS_12regex_traitsIcEEEC1B7v160006ERKS2_bPNS_6__nodeIcEE, symObjAddr: 0x85EC, symBinAddr: 0x100023FDC, symSize: 0x50 }
  - { offsetInCU: 0x2C900, offset: 0x80504, size: 0x8, addend: 0x0, symName: __ZNSt3__115__word_boundaryIcNS_12regex_traitsIcEEEC2B7v160006ERKS2_bPNS_6__nodeIcEE, symObjAddr: 0x863C, symBinAddr: 0x10002402C, symSize: 0x78 }
  - { offsetInCU: 0x2C955, offset: 0x80559, size: 0x8, addend: 0x0, symName: __ZNSt3__112regex_traitsIcEC1ERKS1_, symObjAddr: 0x86B4, symBinAddr: 0x1000240A4, symSize: 0x34 }
  - { offsetInCU: 0x2C98A, offset: 0x8058E, size: 0x8, addend: 0x0, symName: __ZNSt3__115__word_boundaryIcNS_12regex_traitsIcEEED1Ev, symObjAddr: 0x86E8, symBinAddr: 0x1000240D8, symSize: 0x2C }
  - { offsetInCU: 0x2C9B6, offset: 0x805BA, size: 0x8, addend: 0x0, symName: __ZNSt3__115__word_boundaryIcNS_12regex_traitsIcEEED0Ev, symObjAddr: 0x8714, symBinAddr: 0x100024104, symSize: 0x30 }
  - { offsetInCU: 0x2C9E2, offset: 0x805E6, size: 0x8, addend: 0x0, symName: __ZNKSt3__115__word_boundaryIcNS_12regex_traitsIcEEE6__execERNS_7__stateIcEE, symObjAddr: 0x8744, symBinAddr: 0x100024134, symSize: 0x2E4 }
  - { offsetInCU: 0x2CAAB, offset: 0x806AF, size: 0x8, addend: 0x0, symName: __ZNSt3__112regex_traitsIcEC2ERKS1_, symObjAddr: 0x8A28, symBinAddr: 0x100024418, symSize: 0x40 }
  - { offsetInCU: 0x2CAE0, offset: 0x806E4, size: 0x8, addend: 0x0, symName: __ZNSt3__115__word_boundaryIcNS_12regex_traitsIcEEED2Ev, symObjAddr: 0x8A68, symBinAddr: 0x100024458, symSize: 0x48 }
  - { offsetInCU: 0x2CB0C, offset: 0x80710, size: 0x8, addend: 0x0, symName: __ZNKSt3__112regex_traitsIcE7isctypeEcj, symObjAddr: 0x8AB0, symBinAddr: 0x1000244A0, symSize: 0xA0 }
  - { offsetInCU: 0x2CB51, offset: 0x80755, size: 0x8, addend: 0x0, symName: __ZNKSt3__15ctypeIcE2isB7v160006Ejc, symObjAddr: 0x8B50, symBinAddr: 0x100024540, symSize: 0x7C }
  - { offsetInCU: 0x2CB93, offset: 0x80797, size: 0x8, addend: 0x0, symName: __Z7isasciii, symObjAddr: 0x8BCC, symBinAddr: 0x1000245BC, symSize: 0x24 }
  - { offsetInCU: 0x2CBC0, offset: 0x807C4, size: 0x8, addend: 0x0, symName: __ZNSt3__111basic_regexIcNS_12regex_traitsIcEEEC2B7v160006Ev, symObjAddr: 0x8BF0, symBinAddr: 0x1000245E0, symSize: 0x4C }
  - { offsetInCU: 0x2CC06, offset: 0x8080A, size: 0x8, addend: 0x0, symName: __ZNSt3__111__lookaheadIcNS_12regex_traitsIcEEEC1B7v160006ERKNS_11basic_regexIcS2_EEbPNS_6__nodeIcEEj, symObjAddr: 0x8C3C, symBinAddr: 0x10002462C, symSize: 0x58 }
  - { offsetInCU: 0x2CC6A, offset: 0x8086E, size: 0x8, addend: 0x0, symName: __ZNSt3__111__lookaheadIcNS_12regex_traitsIcEEEC2B7v160006ERKNS_11basic_regexIcS2_EEbPNS_6__nodeIcEEj, symObjAddr: 0x8C94, symBinAddr: 0x100024684, symSize: 0x84 }
  - { offsetInCU: 0x2CCCE, offset: 0x808D2, size: 0x8, addend: 0x0, symName: __ZNSt3__111basic_regexIcNS_12regex_traitsIcEEEC1ERKS3_, symObjAddr: 0x8D18, symBinAddr: 0x100024708, symSize: 0x34 }
  - { offsetInCU: 0x2CD03, offset: 0x80907, size: 0x8, addend: 0x0, symName: __ZNSt3__111__lookaheadIcNS_12regex_traitsIcEEED1Ev, symObjAddr: 0x8D4C, symBinAddr: 0x10002473C, symSize: 0x2C }
  - { offsetInCU: 0x2CD2F, offset: 0x80933, size: 0x8, addend: 0x0, symName: __ZNSt3__111__lookaheadIcNS_12regex_traitsIcEEED0Ev, symObjAddr: 0x8D78, symBinAddr: 0x100024768, symSize: 0x30 }
  - { offsetInCU: 0x2CD5B, offset: 0x8095F, size: 0x8, addend: 0x0, symName: __ZNKSt3__111__lookaheadIcNS_12regex_traitsIcEEE6__execERNS_7__stateIcEE, symObjAddr: 0x8DA8, symBinAddr: 0x100024798, symSize: 0x274 }
  - { offsetInCU: 0x2CDCF, offset: 0x809D3, size: 0x8, addend: 0x0, symName: __ZNSt3__111basic_regexIcNS_12regex_traitsIcEEEC2ERKS3_, symObjAddr: 0x901C, symBinAddr: 0x100024A0C, symSize: 0x60 }
  - { offsetInCU: 0x2CE04, offset: 0x80A08, size: 0x8, addend: 0x0, symName: __ZNSt3__110shared_ptrINS_13__empty_stateIcEEEC1B7v160006ERKS3_, symObjAddr: 0x907C, symBinAddr: 0x100024A6C, symSize: 0x34 }
  - { offsetInCU: 0x2CE3B, offset: 0x80A3F, size: 0x8, addend: 0x0, symName: __ZNSt3__110shared_ptrINS_13__empty_stateIcEEEC2B7v160006ERKS3_, symObjAddr: 0x90B0, symBinAddr: 0x100024AA0, symSize: 0x70 }
  - { offsetInCU: 0x2CE72, offset: 0x80A76, size: 0x8, addend: 0x0, symName: __ZNSt3__119__shared_weak_count12__add_sharedB7v160006Ev, symObjAddr: 0x9120, symBinAddr: 0x100024B10, symSize: 0x24 }
  - { offsetInCU: 0x2CE97, offset: 0x80A9B, size: 0x8, addend: 0x0, symName: __ZNSt3__114__shared_count12__add_sharedB7v160006Ev, symObjAddr: 0x9144, symBinAddr: 0x100024B34, symSize: 0x28 }
  - { offsetInCU: 0x2CEBC, offset: 0x80AC0, size: 0x8, addend: 0x0, symName: __ZNSt3__111__lookaheadIcNS_12regex_traitsIcEEED2Ev, symObjAddr: 0x919C, symBinAddr: 0x100024B8C, symSize: 0x48 }
  - { offsetInCU: 0x2CF1A, offset: 0x80B1E, size: 0x8, addend: 0x0, symName: __ZNSt3__113match_resultsIPKcNS_9allocatorINS_9sub_matchIS2_EEEEEC1Ev, symObjAddr: 0x91E4, symBinAddr: 0x100024BD4, symSize: 0x40 }
  - { offsetInCU: 0x2CF42, offset: 0x80B46, size: 0x8, addend: 0x0, symName: __ZNSt3__113match_resultsIPKcNS_9allocatorINS_9sub_matchIS2_EEEEE6__initEjS2_S2_b, symObjAddr: 0x9224, symBinAddr: 0x100024C14, symSize: 0xB0 }
  - { offsetInCU: 0x2CFA5, offset: 0x80BA9, size: 0x8, addend: 0x0, symName: __ZNKSt3__111basic_regexIcNS_12regex_traitsIcEEE10mark_countB7v160006Ev, symObjAddr: 0x92D4, symBinAddr: 0x100024CC4, symSize: 0x18 }
  - { offsetInCU: 0x2CFCF, offset: 0x80BD3, size: 0x8, addend: 0x0, symName: __ZNKSt3__111basic_regexIcNS_12regex_traitsIcEEE21__match_at_start_ecmaINS_9allocatorINS_9sub_matchIPKcEEEEEEbS8_S8_RNS_13match_resultsIS8_T_EENS_15regex_constants15match_flag_typeEb, symObjAddr: 0x92EC, symBinAddr: 0x100024CDC, symSize: 0x590 }
  - { offsetInCU: 0x2D0F2, offset: 0x80CF6, size: 0x8, addend: 0x0, symName: __ZNKSt3__113match_resultsIPKcNS_9allocatorINS_9sub_matchIS2_EEEEE4sizeB7v160006Ev, symObjAddr: 0x98E0, symBinAddr: 0x1000252D0, symSize: 0x24 }
  - { offsetInCU: 0x2D117, offset: 0x80D1B, size: 0x8, addend: 0x0, symName: __ZNSt3__16vectorINS_9sub_matchIPKcEENS_9allocatorIS4_EEEixB7v160006Em, symObjAddr: 0x9904, symBinAddr: 0x1000252F4, symSize: 0x2C }
  - { offsetInCU: 0x2D14D, offset: 0x80D51, size: 0x8, addend: 0x0, symName: __ZNSt3__19sub_matchIPKcEaSERKS3_, symObjAddr: 0x9930, symBinAddr: 0x100025320, symSize: 0x44 }
  - { offsetInCU: 0x2D183, offset: 0x80D87, size: 0x8, addend: 0x0, symName: __ZNSt3__113match_resultsIPKcNS_9allocatorINS_9sub_matchIS2_EEEEED1Ev, symObjAddr: 0x9974, symBinAddr: 0x100025364, symSize: 0x2C }
  - { offsetInCU: 0x2D1AF, offset: 0x80DB3, size: 0x8, addend: 0x0, symName: __ZNSt3__19allocatorINS_9sub_matchIPKcEEEC1B7v160006Ev, symObjAddr: 0x99A0, symBinAddr: 0x100025390, symSize: 0x2C }
  - { offsetInCU: 0x2D1D7, offset: 0x80DDB, size: 0x8, addend: 0x0, symName: __ZNSt3__113match_resultsIPKcNS_9allocatorINS_9sub_matchIS2_EEEEEC1ERKS6_, symObjAddr: 0x99CC, symBinAddr: 0x1000253BC, symSize: 0x34 }
  - { offsetInCU: 0x2D211, offset: 0x80E15, size: 0x8, addend: 0x0, symName: __ZNSt3__19allocatorINS_9sub_matchIPKcEEEC2B7v160006Ev, symObjAddr: 0x9A00, symBinAddr: 0x1000253F0, symSize: 0x2C }
  - { offsetInCU: 0x2D239, offset: 0x80E3D, size: 0x8, addend: 0x0, symName: __ZNSt3__116__non_trivial_ifILb1ENS_9allocatorINS_9sub_matchIPKcEEEEEC2B7v160006Ev, symObjAddr: 0x9A2C, symBinAddr: 0x10002541C, symSize: 0x14 }
  - { offsetInCU: 0x2D262, offset: 0x80E66, size: 0x8, addend: 0x0, symName: __ZNSt3__113match_resultsIPKcNS_9allocatorINS_9sub_matchIS2_EEEEEC2ERKS6_, symObjAddr: 0x9A40, symBinAddr: 0x100025430, symSize: 0x90 }
  - { offsetInCU: 0x2D29C, offset: 0x80EA0, size: 0x8, addend: 0x0, symName: __ZNSt3__16vectorINS_9sub_matchIPKcEENS_9allocatorIS4_EEEC1B7v160006ERKS6_, symObjAddr: 0x9AD0, symBinAddr: 0x1000254C0, symSize: 0x34 }
  - { offsetInCU: 0x2D2D3, offset: 0x80ED7, size: 0x8, addend: 0x0, symName: __ZNSt3__19sub_matchIPKcEC1B7v160006Ev, symObjAddr: 0x9B04, symBinAddr: 0x1000254F4, symSize: 0x2C }
  - { offsetInCU: 0x2D2FB, offset: 0x80EFF, size: 0x8, addend: 0x0, symName: __ZNSt3__16vectorINS_9sub_matchIPKcEENS_9allocatorIS4_EEED1B7v160006Ev, symObjAddr: 0x9B30, symBinAddr: 0x100025520, symSize: 0x2C }
  - { offsetInCU: 0x2D323, offset: 0x80F27, size: 0x8, addend: 0x0, symName: __ZNSt3__16vectorINS_9sub_matchIPKcEENS_9allocatorIS4_EEEC2B7v160006ERKS6_, symObjAddr: 0x9B5C, symBinAddr: 0x10002554C, symSize: 0x5C }
  - { offsetInCU: 0x2D35A, offset: 0x80F5E, size: 0x8, addend: 0x0, symName: __ZNSt3__117__compressed_pairIPNS_9sub_matchIPKcEENS_9allocatorIS4_EEEC1B7v160006IDnRKS7_EEOT_OT0_, symObjAddr: 0x9BB8, symBinAddr: 0x1000255A8, symSize: 0x3C }
  - { offsetInCU: 0x2D3B0, offset: 0x80FB4, size: 0x8, addend: 0x0, symName: __ZNSt3__117__compressed_pairIPNS_9sub_matchIPKcEENS_9allocatorIS4_EEEC2B7v160006IDnRKS7_EEOT_OT0_, symObjAddr: 0x9C04, symBinAddr: 0x1000255F4, symSize: 0x44 }
  - { offsetInCU: 0x2D406, offset: 0x8100A, size: 0x8, addend: 0x0, symName: __ZNSt3__122__compressed_pair_elemIPNS_9sub_matchIPKcEELi0ELb0EEC2B7v160006IDnvEEOT_, symObjAddr: 0x9C48, symBinAddr: 0x100025638, symSize: 0x1C }
  - { offsetInCU: 0x2D447, offset: 0x8104B, size: 0x8, addend: 0x0, symName: __ZNSt3__122__compressed_pair_elemINS_9allocatorINS_9sub_matchIPKcEEEELi1ELb1EEC2B7v160006IRKS6_vEEOT_, symObjAddr: 0x9C64, symBinAddr: 0x100025654, symSize: 0x18 }
  - { offsetInCU: 0x2D488, offset: 0x8108C, size: 0x8, addend: 0x0, symName: __ZNSt3__19sub_matchIPKcEC2B7v160006Ev, symObjAddr: 0x9C7C, symBinAddr: 0x10002566C, symSize: 0x30 }
  - { offsetInCU: 0x2D4B0, offset: 0x810B4, size: 0x8, addend: 0x0, symName: __ZNSt3__14pairIPKcS2_EC2B7v160006ILb1ELPv0EEEv, symObjAddr: 0x9CAC, symBinAddr: 0x10002569C, symSize: 0x1C }
  - { offsetInCU: 0x2D4EA, offset: 0x810EE, size: 0x8, addend: 0x0, symName: __ZNSt3__16vectorINS_9sub_matchIPKcEENS_9allocatorIS4_EEED2B7v160006Ev, symObjAddr: 0x9CC8, symBinAddr: 0x1000256B8, symSize: 0x44 }
  - { offsetInCU: 0x2D512, offset: 0x81116, size: 0x8, addend: 0x0, symName: __ZNSt3__16vectorINS_9sub_matchIPKcEENS_9allocatorIS4_EEE16__destroy_vectorC1ERS7_, symObjAddr: 0x9D0C, symBinAddr: 0x1000256FC, symSize: 0x34 }
  - { offsetInCU: 0x2D549, offset: 0x8114D, size: 0x8, addend: 0x0, symName: __ZNSt3__16vectorINS_9sub_matchIPKcEENS_9allocatorIS4_EEE16__destroy_vectorclB7v160006Ev, symObjAddr: 0x9D40, symBinAddr: 0x100025730, symSize: 0x9C }
  - { offsetInCU: 0x2D56E, offset: 0x81172, size: 0x8, addend: 0x0, symName: __ZNSt3__16vectorINS_9sub_matchIPKcEENS_9allocatorIS4_EEE16__destroy_vectorC2ERS7_, symObjAddr: 0x9DDC, symBinAddr: 0x1000257CC, symSize: 0x20 }
  - { offsetInCU: 0x2D5A6, offset: 0x811AA, size: 0x8, addend: 0x0, symName: __ZNKSt3__16vectorINS_9sub_matchIPKcEENS_9allocatorIS4_EEE17__annotate_deleteB7v160006Ev, symObjAddr: 0x9DFC, symBinAddr: 0x1000257EC, symSize: 0xD4 }
  - { offsetInCU: 0x2D5CB, offset: 0x811CF, size: 0x8, addend: 0x0, symName: __ZNSt3__16vectorINS_9sub_matchIPKcEENS_9allocatorIS4_EEE7__clearB7v160006Ev, symObjAddr: 0x9EE0, symBinAddr: 0x1000258D0, symSize: 0x28 }
  - { offsetInCU: 0x2D5F0, offset: 0x811F4, size: 0x8, addend: 0x0, symName: __ZNSt3__116allocator_traitsINS_9allocatorINS_9sub_matchIPKcEEEEE10deallocateB7v160006ERS6_PS5_m, symObjAddr: 0x9F08, symBinAddr: 0x1000258F8, symSize: 0x34 }
  - { offsetInCU: 0x2D632, offset: 0x81236, size: 0x8, addend: 0x0, symName: __ZNSt3__16vectorINS_9sub_matchIPKcEENS_9allocatorIS4_EEE7__allocB7v160006Ev, symObjAddr: 0x9F3C, symBinAddr: 0x10002592C, symSize: 0x28 }
  - { offsetInCU: 0x2D657, offset: 0x8125B, size: 0x8, addend: 0x0, symName: __ZNKSt3__16vectorINS_9sub_matchIPKcEENS_9allocatorIS4_EEE8capacityB7v160006Ev, symObjAddr: 0x9F64, symBinAddr: 0x100025954, symSize: 0x40 }
  - { offsetInCU: 0x2D67C, offset: 0x81280, size: 0x8, addend: 0x0, symName: __ZNKSt3__16vectorINS_9sub_matchIPKcEENS_9allocatorIS4_EEE31__annotate_contiguous_containerB7v160006EPKvS9_S9_S9_, symObjAddr: 0x9FA4, symBinAddr: 0x100025994, symSize: 0x20 }
  - { offsetInCU: 0x2D6D1, offset: 0x812D5, size: 0x8, addend: 0x0, symName: __ZNKSt3__16vectorINS_9sub_matchIPKcEENS_9allocatorIS4_EEE4dataB7v160006Ev, symObjAddr: 0x9FC4, symBinAddr: 0x1000259B4, symSize: 0x28 }
  - { offsetInCU: 0x2D6F6, offset: 0x812FA, size: 0x8, addend: 0x0, symName: __ZNKSt3__16vectorINS_9sub_matchIPKcEENS_9allocatorIS4_EEE4sizeB7v160006Ev, symObjAddr: 0x9FEC, symBinAddr: 0x1000259DC, symSize: 0x28 }
  - { offsetInCU: 0x2D71B, offset: 0x8131F, size: 0x8, addend: 0x0, symName: __ZNSt3__16vectorINS_9sub_matchIPKcEENS_9allocatorIS4_EEE22__base_destruct_at_endB7v160006EPS4_, symObjAddr: 0xA028, symBinAddr: 0x100025A18, symSize: 0x8C }
  - { offsetInCU: 0x2D75E, offset: 0x81362, size: 0x8, addend: 0x0, symName: __ZNSt3__116allocator_traitsINS_9allocatorINS_9sub_matchIPKcEEEEE7destroyB7v160006IS5_vEEvRS6_PT_, symObjAddr: 0xA0B4, symBinAddr: 0x100025AA4, symSize: 0x2C }
  - { offsetInCU: 0x2D79B, offset: 0x8139F, size: 0x8, addend: 0x0, symName: __ZNSt3__19allocatorINS_9sub_matchIPKcEEE7destroyB7v160006EPS4_, symObjAddr: 0xA0E0, symBinAddr: 0x100025AD0, symSize: 0x14 }
  - { offsetInCU: 0x2D7CE, offset: 0x813D2, size: 0x8, addend: 0x0, symName: __ZNSt3__19allocatorINS_9sub_matchIPKcEEE10deallocateB7v160006EPS4_m, symObjAddr: 0xA0F4, symBinAddr: 0x100025AE4, symSize: 0x44 }
  - { offsetInCU: 0x2D80F, offset: 0x81413, size: 0x8, addend: 0x0, symName: __ZNSt3__117__compressed_pairIPNS_9sub_matchIPKcEENS_9allocatorIS4_EEE6secondB7v160006Ev, symObjAddr: 0xA138, symBinAddr: 0x100025B28, symSize: 0x24 }
  - { offsetInCU: 0x2D834, offset: 0x81438, size: 0x8, addend: 0x0, symName: __ZNSt3__122__compressed_pair_elemINS_9allocatorINS_9sub_matchIPKcEEEELi1ELb1EE5__getB7v160006Ev, symObjAddr: 0xA15C, symBinAddr: 0x100025B4C, symSize: 0x14 }
  - { offsetInCU: 0x2D859, offset: 0x8145D, size: 0x8, addend: 0x0, symName: __ZNKSt3__16vectorINS_9sub_matchIPKcEENS_9allocatorIS4_EEE9__end_capB7v160006Ev, symObjAddr: 0xA170, symBinAddr: 0x100025B60, symSize: 0x28 }
  - { offsetInCU: 0x2D87E, offset: 0x81482, size: 0x8, addend: 0x0, symName: __ZNKSt3__117__compressed_pairIPNS_9sub_matchIPKcEENS_9allocatorIS4_EEE5firstB7v160006Ev, symObjAddr: 0xA198, symBinAddr: 0x100025B88, symSize: 0x24 }
  - { offsetInCU: 0x2D8A3, offset: 0x814A7, size: 0x8, addend: 0x0, symName: __ZNKSt3__122__compressed_pair_elemIPNS_9sub_matchIPKcEELi0ELb0EE5__getB7v160006Ev, symObjAddr: 0xA1BC, symBinAddr: 0x100025BAC, symSize: 0x14 }
  - { offsetInCU: 0x2D8C8, offset: 0x814CC, size: 0x8, addend: 0x0, symName: __ZNSt3__16vectorINS_9sub_matchIPKcEENS_9allocatorIS4_EEE6assignEmRKS4_, symObjAddr: 0xA1D0, symBinAddr: 0x100025BC0, symSize: 0x118 }
  - { offsetInCU: 0x2D92A, offset: 0x8152E, size: 0x8, addend: 0x0, symName: __ZNSt3__16vectorINS_9sub_matchIPKcEENS_9allocatorIS4_EEE18__construct_at_endEmRKS4_, symObjAddr: 0xA32C, symBinAddr: 0x100025D1C, symSize: 0xD0 }
  - { offsetInCU: 0x2D9AA, offset: 0x815AE, size: 0x8, addend: 0x0, symName: __ZNSt3__16vectorINS_9sub_matchIPKcEENS_9allocatorIS4_EEE17__destruct_at_endB7v160006EPS4_, symObjAddr: 0xA3FC, symBinAddr: 0x100025DEC, symSize: 0x60 }
  - { offsetInCU: 0x2D9ED, offset: 0x815F1, size: 0x8, addend: 0x0, symName: __ZNSt3__16vectorINS_9sub_matchIPKcEENS_9allocatorIS4_EEE13__vdeallocateEv, symObjAddr: 0xA45C, symBinAddr: 0x100025E4C, symSize: 0x8C }
  - { offsetInCU: 0x2DA14, offset: 0x81618, size: 0x8, addend: 0x0, symName: __ZNSt3__16vectorINS_9sub_matchIPKcEENS_9allocatorIS4_EEE11__vallocateB7v160006Em, symObjAddr: 0xA4E8, symBinAddr: 0x100025ED8, symSize: 0xB4 }
  - { offsetInCU: 0x2DA57, offset: 0x8165B, size: 0x8, addend: 0x0, symName: __ZNKSt3__16vectorINS_9sub_matchIPKcEENS_9allocatorIS4_EEE11__recommendB7v160006Em, symObjAddr: 0xA59C, symBinAddr: 0x100025F8C, symSize: 0xB4 }
  - { offsetInCU: 0x2DAC4, offset: 0x816C8, size: 0x8, addend: 0x0, symName: __ZNSt3__16vectorINS_9sub_matchIPKcEENS_9allocatorIS4_EEE21_ConstructTransactionC1B7v160006ERS7_m, symObjAddr: 0xA6E0, symBinAddr: 0x1000260BC, symSize: 0x3C }
  - { offsetInCU: 0x2DB0A, offset: 0x8170E, size: 0x8, addend: 0x0, symName: __ZNSt3__116allocator_traitsINS_9allocatorINS_9sub_matchIPKcEEEEE9constructB7v160006IS5_JRKS5_EvEEvRS6_PT_DpOT0_, symObjAddr: 0xA71C, symBinAddr: 0x1000260F8, symSize: 0x34 }
  - { offsetInCU: 0x2DB61, offset: 0x81765, size: 0x8, addend: 0x0, symName: __ZNSt3__16vectorINS_9sub_matchIPKcEENS_9allocatorIS4_EEE21_ConstructTransactionD1B7v160006Ev, symObjAddr: 0xA750, symBinAddr: 0x10002612C, symSize: 0x2C }
  - { offsetInCU: 0x2DB89, offset: 0x8178D, size: 0x8, addend: 0x0, symName: __ZNSt3__16vectorINS_9sub_matchIPKcEENS_9allocatorIS4_EEE21_ConstructTransactionC2B7v160006ERS7_m, symObjAddr: 0xA77C, symBinAddr: 0x100026158, symSize: 0x4C }
  - { offsetInCU: 0x2DBD0, offset: 0x817D4, size: 0x8, addend: 0x0, symName: __ZNSt3__19allocatorINS_9sub_matchIPKcEEE9constructB7v160006IS4_JRKS4_EEEvPT_DpOT0_, symObjAddr: 0xA7C8, symBinAddr: 0x1000261A4, symSize: 0x30 }
  - { offsetInCU: 0x2DC25, offset: 0x81829, size: 0x8, addend: 0x0, symName: __ZNSt3__16vectorINS_9sub_matchIPKcEENS_9allocatorIS4_EEE21_ConstructTransactionD2B7v160006Ev, symObjAddr: 0xA7F8, symBinAddr: 0x1000261D4, symSize: 0x20 }
  - { offsetInCU: 0x2DC4E, offset: 0x81852, size: 0x8, addend: 0x0, symName: __ZNSt3__16vectorINS_9sub_matchIPKcEENS_9allocatorIS4_EEE27__invalidate_iterators_pastB7v160006EPS4_, symObjAddr: 0xA818, symBinAddr: 0x1000261F4, symSize: 0x14 }
  - { offsetInCU: 0x2DC84, offset: 0x81888, size: 0x8, addend: 0x0, symName: __ZNKSt3__16vectorINS_9sub_matchIPKcEENS_9allocatorIS4_EEE17__annotate_shrinkB7v160006Em, symObjAddr: 0xA82C, symBinAddr: 0x100026208, symSize: 0xD0 }
  - { offsetInCU: 0x2DCB8, offset: 0x818BC, size: 0x8, addend: 0x0, symName: __ZNSt3__16vectorINS_9sub_matchIPKcEENS_9allocatorIS4_EEE5clearB7v160006Ev, symObjAddr: 0xA8FC, symBinAddr: 0x1000262D8, symSize: 0x54 }
  - { offsetInCU: 0x2DCEC, offset: 0x818F0, size: 0x8, addend: 0x0, symName: __ZNSt3__16vectorINS_9sub_matchIPKcEENS_9allocatorIS4_EEE9__end_capB7v160006Ev, symObjAddr: 0xA950, symBinAddr: 0x10002632C, symSize: 0x28 }
  - { offsetInCU: 0x2DD11, offset: 0x81915, size: 0x8, addend: 0x0, symName: __ZNSt3__117__compressed_pairIPNS_9sub_matchIPKcEENS_9allocatorIS4_EEE5firstB7v160006Ev, symObjAddr: 0xA978, symBinAddr: 0x100026354, symSize: 0x24 }
  - { offsetInCU: 0x2DD36, offset: 0x8193A, size: 0x8, addend: 0x0, symName: __ZNSt3__122__compressed_pair_elemIPNS_9sub_matchIPKcEELi0ELb0EE5__getB7v160006Ev, symObjAddr: 0xA99C, symBinAddr: 0x100026378, symSize: 0x14 }
  - { offsetInCU: 0x2DD5B, offset: 0x8195F, size: 0x8, addend: 0x0, symName: __ZNKSt3__16vectorINS_9sub_matchIPKcEENS_9allocatorIS4_EEE8max_sizeEv, symObjAddr: 0xA9B0, symBinAddr: 0x10002638C, symSize: 0x60 }
  - { offsetInCU: 0x2DD82, offset: 0x81986, size: 0x8, addend: 0x0, symName: __ZNKSt3__16vectorINS_9sub_matchIPKcEENS_9allocatorIS4_EEE20__throw_length_errorB7v160006Ev, symObjAddr: 0xAA10, symBinAddr: 0x1000263EC, symSize: 0x1C }
  - { offsetInCU: 0x2DDA7, offset: 0x819AB, size: 0x8, addend: 0x0, symName: __ZNKSt3__16vectorINS_9sub_matchIPKcEENS_9allocatorIS4_EEE14__annotate_newB7v160006Em, symObjAddr: 0xAA6C, symBinAddr: 0x100026448, symSize: 0xC8 }
  - { offsetInCU: 0x2DDE5, offset: 0x819E9, size: 0x8, addend: 0x0, symName: __ZNSt3__116allocator_traitsINS_9allocatorINS_9sub_matchIPKcEEEEE8max_sizeB7v160006IS6_vEEmRKS6_, symObjAddr: 0xAB34, symBinAddr: 0x100026510, symSize: 0x24 }
  - { offsetInCU: 0x2DE13, offset: 0x81A17, size: 0x8, addend: 0x0, symName: __ZNKSt3__16vectorINS_9sub_matchIPKcEENS_9allocatorIS4_EEE7__allocB7v160006Ev, symObjAddr: 0xAB58, symBinAddr: 0x100026534, symSize: 0x28 }
  - { offsetInCU: 0x2DE38, offset: 0x81A3C, size: 0x8, addend: 0x0, symName: __ZNKSt3__19allocatorINS_9sub_matchIPKcEEE8max_sizeB7v160006Ev, symObjAddr: 0xAB80, symBinAddr: 0x10002655C, symSize: 0x18 }
  - { offsetInCU: 0x2DE5D, offset: 0x81A61, size: 0x8, addend: 0x0, symName: __ZNKSt3__117__compressed_pairIPNS_9sub_matchIPKcEENS_9allocatorIS4_EEE6secondB7v160006Ev, symObjAddr: 0xAB98, symBinAddr: 0x100026574, symSize: 0x24 }
  - { offsetInCU: 0x2DE82, offset: 0x81A86, size: 0x8, addend: 0x0, symName: __ZNKSt3__122__compressed_pair_elemINS_9allocatorINS_9sub_matchIPKcEEEELi1ELb1EE5__getB7v160006Ev, symObjAddr: 0xABBC, symBinAddr: 0x100026598, symSize: 0x14 }
  - { offsetInCU: 0x2DEA7, offset: 0x81AAB, size: 0x8, addend: 0x0, symName: __ZNSt3__19allocatorINS_9sub_matchIPKcEEE8allocateB7v160006Em, symObjAddr: 0xABD0, symBinAddr: 0x1000265AC, symSize: 0x5C }
  - { offsetInCU: 0x2DEDA, offset: 0x81ADE, size: 0x8, addend: 0x0, symName: __ZNSt3__16vectorINS_7__stateIcEENS_9allocatorIS2_EEEC1B7v160006Ev, symObjAddr: 0xACAC, symBinAddr: 0x100026608, symSize: 0x2C }
  - { offsetInCU: 0x2DF02, offset: 0x81B06, size: 0x8, addend: 0x0, symName: __ZNSt3__16vectorINS_7__stateIcEENS_9allocatorIS2_EEE9push_backB7v160006EOS2_, symObjAddr: 0xACD8, symBinAddr: 0x100026634, symSize: 0x6C }
  - { offsetInCU: 0x2DF38, offset: 0x81B3C, size: 0x8, addend: 0x0, symName: __ZNSt3__17__stateIcEC1B7v160006Ev, symObjAddr: 0xAD44, symBinAddr: 0x1000266A0, symSize: 0x2C }
  - { offsetInCU: 0x2DF60, offset: 0x81B64, size: 0x8, addend: 0x0, symName: __ZNSt3__17__stateIcED1Ev, symObjAddr: 0xAD70, symBinAddr: 0x1000266CC, symSize: 0x2C }
  - { offsetInCU: 0x2DF8C, offset: 0x81B90, size: 0x8, addend: 0x0, symName: __ZNSt3__16vectorINS_7__stateIcEENS_9allocatorIS2_EEE4backB7v160006Ev, symObjAddr: 0xAD9C, symBinAddr: 0x1000266F8, symSize: 0x1C }
  - { offsetInCU: 0x2DFB1, offset: 0x81BB5, size: 0x8, addend: 0x0, symName: __ZNSt3__16vectorINS_9sub_matchIPKcEENS_9allocatorIS4_EEE6resizeEmRKS4_, symObjAddr: 0xADB8, symBinAddr: 0x100026714, symSize: 0xA4 }
  - { offsetInCU: 0x2E005, offset: 0x81C09, size: 0x8, addend: 0x0, symName: __ZNSt3__16vectorINS_4pairImPKcEENS_9allocatorIS4_EEE6resizeEm, symObjAddr: 0xAE5C, symBinAddr: 0x1000267B8, symSize: 0x94 }
  - { offsetInCU: 0x2E04A, offset: 0x81C4E, size: 0x8, addend: 0x0, symName: __ZNKSt3__111basic_regexIcNS_12regex_traitsIcEEE12__loop_countB7v160006Ev, symObjAddr: 0xAEF0, symBinAddr: 0x10002684C, symSize: 0x18 }
  - { offsetInCU: 0x2E06F, offset: 0x81C73, size: 0x8, addend: 0x0, symName: __ZNSt3__16vectorINS_7__stateIcEENS_9allocatorIS2_EEE8pop_backEv, symObjAddr: 0xAF68, symBinAddr: 0x1000268C4, symSize: 0x2C }
  - { offsetInCU: 0x2E096, offset: 0x81C9A, size: 0x8, addend: 0x0, symName: __ZNSt3__17__stateIcEC1ERKS1_, symObjAddr: 0xAF94, symBinAddr: 0x1000268F0, symSize: 0x34 }
  - { offsetInCU: 0x2E0CB, offset: 0x81CCF, size: 0x8, addend: 0x0, symName: __ZNKSt3__16vectorINS_7__stateIcEENS_9allocatorIS2_EEE5emptyB7v160006Ev, symObjAddr: 0xB028, symBinAddr: 0x100026984, symSize: 0x28 }
  - { offsetInCU: 0x2E0F0, offset: 0x81CF4, size: 0x8, addend: 0x0, symName: __ZNSt3__16vectorINS_7__stateIcEENS_9allocatorIS2_EEED1B7v160006Ev, symObjAddr: 0xB050, symBinAddr: 0x1000269AC, symSize: 0x2C }
  - { offsetInCU: 0x2E118, offset: 0x81D1C, size: 0x8, addend: 0x0, symName: __ZNSt3__16vectorINS_7__stateIcEENS_9allocatorIS2_EEEC2B7v160006Ev, symObjAddr: 0xB07C, symBinAddr: 0x1000269D8, symSize: 0x58 }
  - { offsetInCU: 0x2E140, offset: 0x81D44, size: 0x8, addend: 0x0, symName: __ZNSt3__117__compressed_pairIPNS_7__stateIcEENS_9allocatorIS2_EEEC1B7v160006IDnNS_18__default_init_tagEEEOT_OT0_, symObjAddr: 0xB0D4, symBinAddr: 0x100026A30, symSize: 0x3C }
  - { offsetInCU: 0x2E196, offset: 0x81D9A, size: 0x8, addend: 0x0, symName: __ZNSt3__117__compressed_pairIPNS_7__stateIcEENS_9allocatorIS2_EEEC2B7v160006IDnNS_18__default_init_tagEEEOT_OT0_, symObjAddr: 0xB120, symBinAddr: 0x100026A7C, symSize: 0x40 }
  - { offsetInCU: 0x2E1EC, offset: 0x81DF0, size: 0x8, addend: 0x0, symName: __ZNSt3__122__compressed_pair_elemIPNS_7__stateIcEELi0ELb0EEC2B7v160006IDnvEEOT_, symObjAddr: 0xB160, symBinAddr: 0x100026ABC, symSize: 0x1C }
  - { offsetInCU: 0x2E22D, offset: 0x81E31, size: 0x8, addend: 0x0, symName: __ZNSt3__122__compressed_pair_elemINS_9allocatorINS_7__stateIcEEEELi1ELb1EEC2B7v160006ENS_18__default_init_tagE, symObjAddr: 0xB17C, symBinAddr: 0x100026AD8, symSize: 0x2C }
  - { offsetInCU: 0x2E260, offset: 0x81E64, size: 0x8, addend: 0x0, symName: __ZNSt3__19allocatorINS_7__stateIcEEEC2B7v160006Ev, symObjAddr: 0xB1A8, symBinAddr: 0x100026B04, symSize: 0x2C }
  - { offsetInCU: 0x2E288, offset: 0x81E8C, size: 0x8, addend: 0x0, symName: __ZNSt3__116__non_trivial_ifILb1ENS_9allocatorINS_7__stateIcEEEEEC2B7v160006Ev, symObjAddr: 0xB1D4, symBinAddr: 0x100026B30, symSize: 0x14 }
  - { offsetInCU: 0x2E2B1, offset: 0x81EB5, size: 0x8, addend: 0x0, symName: __ZNSt3__16vectorINS_7__stateIcEENS_9allocatorIS2_EEE9__end_capB7v160006Ev, symObjAddr: 0xB1E8, symBinAddr: 0x100026B44, symSize: 0x28 }
  - { offsetInCU: 0x2E2DB, offset: 0x81EDF, size: 0x8, addend: 0x0, symName: __ZNSt3__16vectorINS_7__stateIcEENS_9allocatorIS2_EEE22__construct_one_at_endB7v160006IJS2_EEEvDpOT_, symObjAddr: 0xB210, symBinAddr: 0x100026B6C, symSize: 0x90 }
  - { offsetInCU: 0x2E329, offset: 0x81F2D, size: 0x8, addend: 0x0, symName: __ZNSt3__16vectorINS_7__stateIcEENS_9allocatorIS2_EEE21__push_back_slow_pathIS2_EEvOT_, symObjAddr: 0xB2A0, symBinAddr: 0x100026BFC, symSize: 0xD8 }
  - { offsetInCU: 0x2E386, offset: 0x81F8A, size: 0x8, addend: 0x0, symName: __ZNSt3__117__compressed_pairIPNS_7__stateIcEENS_9allocatorIS2_EEE5firstB7v160006Ev, symObjAddr: 0xB378, symBinAddr: 0x100026CD4, symSize: 0x24 }
  - { offsetInCU: 0x2E3AB, offset: 0x81FAF, size: 0x8, addend: 0x0, symName: __ZNSt3__122__compressed_pair_elemIPNS_7__stateIcEELi0ELb0EE5__getB7v160006Ev, symObjAddr: 0xB39C, symBinAddr: 0x100026CF8, symSize: 0x14 }
  - { offsetInCU: 0x2E3E9, offset: 0x81FED, size: 0x8, addend: 0x0, symName: __ZNSt3__16vectorINS_7__stateIcEENS_9allocatorIS2_EEE21_ConstructTransactionC1B7v160006ERS5_m, symObjAddr: 0xB3B0, symBinAddr: 0x100026D0C, symSize: 0x3C }
  - { offsetInCU: 0x2E42F, offset: 0x82033, size: 0x8, addend: 0x0, symName: __ZNSt3__116allocator_traitsINS_9allocatorINS_7__stateIcEEEEE9constructB7v160006IS3_JS3_EvEEvRS4_PT_DpOT0_, symObjAddr: 0xB3EC, symBinAddr: 0x100026D48, symSize: 0x34 }
  - { offsetInCU: 0x2E486, offset: 0x8208A, size: 0x8, addend: 0x0, symName: __ZNSt3__16vectorINS_7__stateIcEENS_9allocatorIS2_EEE7__allocB7v160006Ev, symObjAddr: 0xB420, symBinAddr: 0x100026D7C, symSize: 0x28 }
  - { offsetInCU: 0x2E4AB, offset: 0x820AF, size: 0x8, addend: 0x0, symName: __ZNSt3__16vectorINS_7__stateIcEENS_9allocatorIS2_EEE21_ConstructTransactionD1B7v160006Ev, symObjAddr: 0xB45C, symBinAddr: 0x100026DB8, symSize: 0x2C }
  - { offsetInCU: 0x2E4D3, offset: 0x820D7, size: 0x8, addend: 0x0, symName: __ZNSt3__16vectorINS_7__stateIcEENS_9allocatorIS2_EEE21_ConstructTransactionC2B7v160006ERS5_m, symObjAddr: 0xB488, symBinAddr: 0x100026DE4, symSize: 0x4C }
  - { offsetInCU: 0x2E51A, offset: 0x8211E, size: 0x8, addend: 0x0, symName: __ZNSt3__19allocatorINS_7__stateIcEEE9constructB7v160006IS2_JS2_EEEvPT_DpOT0_, symObjAddr: 0xB4D4, symBinAddr: 0x100026E30, symSize: 0x30 }
  - { offsetInCU: 0x2E56F, offset: 0x82173, size: 0x8, addend: 0x0, symName: __ZNSt3__17__stateIcEC1EOS1_, symObjAddr: 0xB504, symBinAddr: 0x100026E60, symSize: 0x34 }
  - { offsetInCU: 0x2E5A4, offset: 0x821A8, size: 0x8, addend: 0x0, symName: __ZNSt3__17__stateIcEC2EOS1_, symObjAddr: 0xB538, symBinAddr: 0x100026E94, symSize: 0x78 }
  - { offsetInCU: 0x2E5D9, offset: 0x821DD, size: 0x8, addend: 0x0, symName: __ZNSt3__16vectorINS_9sub_matchIPKcEENS_9allocatorIS4_EEEC1B7v160006EOS7_, symObjAddr: 0xB5B0, symBinAddr: 0x100026F0C, symSize: 0x34 }
  - { offsetInCU: 0x2E613, offset: 0x82217, size: 0x8, addend: 0x0, symName: __ZNSt3__16vectorINS_4pairImPKcEENS_9allocatorIS4_EEEC1B7v160006EOS7_, symObjAddr: 0xB5E4, symBinAddr: 0x100026F40, symSize: 0x34 }
  - { offsetInCU: 0x2E64D, offset: 0x82251, size: 0x8, addend: 0x0, symName: __ZNSt3__16vectorINS_9sub_matchIPKcEENS_9allocatorIS4_EEEC2B7v160006EOS7_, symObjAddr: 0xB618, symBinAddr: 0x100026F74, symSize: 0xDC }
  - { offsetInCU: 0x2E68C, offset: 0x82290, size: 0x8, addend: 0x0, symName: __ZNSt3__117__compressed_pairIPNS_9sub_matchIPKcEENS_9allocatorIS4_EEEC1B7v160006IDnS7_EEOT_OT0_, symObjAddr: 0xB6F4, symBinAddr: 0x100027050, symSize: 0x3C }
  - { offsetInCU: 0x2E6E2, offset: 0x822E6, size: 0x8, addend: 0x0, symName: __ZNSt3__117__compressed_pairIPNS_9sub_matchIPKcEENS_9allocatorIS4_EEEC2B7v160006IDnS7_EEOT_OT0_, symObjAddr: 0xB744, symBinAddr: 0x1000270A0, symSize: 0x44 }
  - { offsetInCU: 0x2E738, offset: 0x8233C, size: 0x8, addend: 0x0, symName: __ZNSt3__122__compressed_pair_elemINS_9allocatorINS_9sub_matchIPKcEEEELi1ELb1EEC2B7v160006IS6_vEEOT_, symObjAddr: 0xB788, symBinAddr: 0x1000270E4, symSize: 0x18 }
  - { offsetInCU: 0x2E779, offset: 0x8237D, size: 0x8, addend: 0x0, symName: __ZNSt3__16vectorINS_4pairImPKcEENS_9allocatorIS4_EEEC2B7v160006EOS7_, symObjAddr: 0xB7A0, symBinAddr: 0x1000270FC, symSize: 0xE0 }
  - { offsetInCU: 0x2E7B3, offset: 0x823B7, size: 0x8, addend: 0x0, symName: __ZNSt3__16vectorINS_4pairImPKcEENS_9allocatorIS4_EEE7__allocB7v160006Ev, symObjAddr: 0xB880, symBinAddr: 0x1000271DC, symSize: 0x28 }
  - { offsetInCU: 0x2E7DD, offset: 0x823E1, size: 0x8, addend: 0x0, symName: __ZNSt3__117__compressed_pairIPNS_4pairImPKcEENS_9allocatorIS4_EEEC1B7v160006IDnS7_EEOT_OT0_, symObjAddr: 0xB8A8, symBinAddr: 0x100027204, symSize: 0x3C }
  - { offsetInCU: 0x2E833, offset: 0x82437, size: 0x8, addend: 0x0, symName: __ZNSt3__16vectorINS_4pairImPKcEENS_9allocatorIS4_EEE9__end_capB7v160006Ev, symObjAddr: 0xB908, symBinAddr: 0x100027264, symSize: 0x28 }
  - { offsetInCU: 0x2E858, offset: 0x8245C, size: 0x8, addend: 0x0, symName: __ZNSt3__117__compressed_pairIPNS_4pairImPKcEENS_9allocatorIS4_EEE6secondB7v160006Ev, symObjAddr: 0xB930, symBinAddr: 0x10002728C, symSize: 0x24 }
  - { offsetInCU: 0x2E87D, offset: 0x82481, size: 0x8, addend: 0x0, symName: __ZNSt3__122__compressed_pair_elemINS_9allocatorINS_4pairImPKcEEEELi1ELb1EE5__getB7v160006Ev, symObjAddr: 0xB954, symBinAddr: 0x1000272B0, symSize: 0x14 }
  - { offsetInCU: 0x2E8A2, offset: 0x824A6, size: 0x8, addend: 0x0, symName: __ZNSt3__117__compressed_pairIPNS_4pairImPKcEENS_9allocatorIS4_EEEC2B7v160006IDnS7_EEOT_OT0_, symObjAddr: 0xB968, symBinAddr: 0x1000272C4, symSize: 0x44 }
  - { offsetInCU: 0x2E8F8, offset: 0x824FC, size: 0x8, addend: 0x0, symName: __ZNSt3__122__compressed_pair_elemIPNS_4pairImPKcEELi0ELb0EEC2B7v160006IDnvEEOT_, symObjAddr: 0xB9AC, symBinAddr: 0x100027308, symSize: 0x1C }
  - { offsetInCU: 0x2E939, offset: 0x8253D, size: 0x8, addend: 0x0, symName: __ZNSt3__122__compressed_pair_elemINS_9allocatorINS_4pairImPKcEEEELi1ELb1EEC2B7v160006IS6_vEEOT_, symObjAddr: 0xB9C8, symBinAddr: 0x100027324, symSize: 0x18 }
  - { offsetInCU: 0x2E97A, offset: 0x8257E, size: 0x8, addend: 0x0, symName: __ZNSt3__117__compressed_pairIPNS_4pairImPKcEENS_9allocatorIS4_EEE5firstB7v160006Ev, symObjAddr: 0xB9E0, symBinAddr: 0x10002733C, symSize: 0x24 }
  - { offsetInCU: 0x2E99F, offset: 0x825A3, size: 0x8, addend: 0x0, symName: __ZNSt3__122__compressed_pair_elemIPNS_4pairImPKcEELi0ELb0EE5__getB7v160006Ev, symObjAddr: 0xBA04, symBinAddr: 0x100027360, symSize: 0x14 }
  - { offsetInCU: 0x2E9C4, offset: 0x825C8, size: 0x8, addend: 0x0, symName: __ZNSt3__117__compressed_pairIPNS_7__stateIcEENS_9allocatorIS2_EEE6secondB7v160006Ev, symObjAddr: 0xBA18, symBinAddr: 0x100027374, symSize: 0x24 }
  - { offsetInCU: 0x2E9E9, offset: 0x825ED, size: 0x8, addend: 0x0, symName: __ZNSt3__122__compressed_pair_elemINS_9allocatorINS_7__stateIcEEEELi1ELb1EE5__getB7v160006Ev, symObjAddr: 0xBA3C, symBinAddr: 0x100027398, symSize: 0x14 }
  - { offsetInCU: 0x2EA0E, offset: 0x82612, size: 0x8, addend: 0x0, symName: __ZNSt3__16vectorINS_7__stateIcEENS_9allocatorIS2_EEE21_ConstructTransactionD2B7v160006Ev, symObjAddr: 0xBA50, symBinAddr: 0x1000273AC, symSize: 0x20 }
  - { offsetInCU: 0x2EA37, offset: 0x8263B, size: 0x8, addend: 0x0, symName: __ZNKSt3__16vectorINS_7__stateIcEENS_9allocatorIS2_EEE11__recommendB7v160006Em, symObjAddr: 0xBA70, symBinAddr: 0x1000273CC, symSize: 0xB4 }
  - { offsetInCU: 0x2EA8B, offset: 0x8268F, size: 0x8, addend: 0x0, symName: __ZNKSt3__16vectorINS_7__stateIcEENS_9allocatorIS2_EEE4sizeB7v160006Ev, symObjAddr: 0xBB24, symBinAddr: 0x100027480, symSize: 0x28 }
  - { offsetInCU: 0x2EAB0, offset: 0x826B4, size: 0x8, addend: 0x0, symName: __ZNSt3__114__split_bufferINS_7__stateIcEERNS_9allocatorIS2_EEEC1EmmS5_, symObjAddr: 0xBB4C, symBinAddr: 0x1000274A8, symSize: 0x44 }
  - { offsetInCU: 0x2EB05, offset: 0x82709, size: 0x8, addend: 0x0, symName: __ZNSt3__114__split_bufferINS_7__stateIcEERNS_9allocatorIS2_EEED1Ev, symObjAddr: 0xBCA8, symBinAddr: 0x100027604, symSize: 0x2C }
  - { offsetInCU: 0x2EB30, offset: 0x82734, size: 0x8, addend: 0x0, symName: __ZNKSt3__16vectorINS_7__stateIcEENS_9allocatorIS2_EEE8max_sizeEv, symObjAddr: 0xBCD4, symBinAddr: 0x100027630, symSize: 0x60 }
  - { offsetInCU: 0x2EB57, offset: 0x8275B, size: 0x8, addend: 0x0, symName: __ZNKSt3__16vectorINS_7__stateIcEENS_9allocatorIS2_EEE20__throw_length_errorB7v160006Ev, symObjAddr: 0xBD34, symBinAddr: 0x100027690, symSize: 0x1C }
  - { offsetInCU: 0x2EB7C, offset: 0x82780, size: 0x8, addend: 0x0, symName: __ZNKSt3__16vectorINS_7__stateIcEENS_9allocatorIS2_EEE8capacityB7v160006Ev, symObjAddr: 0xBD50, symBinAddr: 0x1000276AC, symSize: 0x40 }
  - { offsetInCU: 0x2EBAB, offset: 0x827AF, size: 0x8, addend: 0x0, symName: __ZNSt3__116allocator_traitsINS_9allocatorINS_7__stateIcEEEEE8max_sizeB7v160006IS4_vEEmRKS4_, symObjAddr: 0xBD90, symBinAddr: 0x1000276EC, symSize: 0x24 }
  - { offsetInCU: 0x2EBD9, offset: 0x827DD, size: 0x8, addend: 0x0, symName: __ZNKSt3__16vectorINS_7__stateIcEENS_9allocatorIS2_EEE7__allocB7v160006Ev, symObjAddr: 0xBDB4, symBinAddr: 0x100027710, symSize: 0x28 }
  - { offsetInCU: 0x2EBFE, offset: 0x82802, size: 0x8, addend: 0x0, symName: __ZNKSt3__19allocatorINS_7__stateIcEEE8max_sizeB7v160006Ev, symObjAddr: 0xBDDC, symBinAddr: 0x100027738, symSize: 0x18 }
  - { offsetInCU: 0x2EC23, offset: 0x82827, size: 0x8, addend: 0x0, symName: __ZNKSt3__117__compressed_pairIPNS_7__stateIcEENS_9allocatorIS2_EEE6secondB7v160006Ev, symObjAddr: 0xBDF4, symBinAddr: 0x100027750, symSize: 0x24 }
  - { offsetInCU: 0x2EC48, offset: 0x8284C, size: 0x8, addend: 0x0, symName: __ZNKSt3__122__compressed_pair_elemINS_9allocatorINS_7__stateIcEEEELi1ELb1EE5__getB7v160006Ev, symObjAddr: 0xBE18, symBinAddr: 0x100027774, symSize: 0x14 }
  - { offsetInCU: 0x2EC6D, offset: 0x82871, size: 0x8, addend: 0x0, symName: __ZNKSt3__16vectorINS_7__stateIcEENS_9allocatorIS2_EEE9__end_capB7v160006Ev, symObjAddr: 0xBE2C, symBinAddr: 0x100027788, symSize: 0x28 }
  - { offsetInCU: 0x2EC92, offset: 0x82896, size: 0x8, addend: 0x0, symName: __ZNKSt3__117__compressed_pairIPNS_7__stateIcEENS_9allocatorIS2_EEE5firstB7v160006Ev, symObjAddr: 0xBE54, symBinAddr: 0x1000277B0, symSize: 0x24 }
  - { offsetInCU: 0x2ECB7, offset: 0x828BB, size: 0x8, addend: 0x0, symName: __ZNKSt3__122__compressed_pair_elemIPNS_7__stateIcEELi0ELb0EE5__getB7v160006Ev, symObjAddr: 0xBE78, symBinAddr: 0x1000277D4, symSize: 0x14 }
  - { offsetInCU: 0x2ECDC, offset: 0x828E0, size: 0x8, addend: 0x0, symName: __ZNSt3__114__split_bufferINS_7__stateIcEERNS_9allocatorIS2_EEEC2EmmS5_, symObjAddr: 0xBE8C, symBinAddr: 0x1000277E8, symSize: 0xE0 }
  - { offsetInCU: 0x2ED4E, offset: 0x82952, size: 0x8, addend: 0x0, symName: __ZNSt3__117__compressed_pairIPNS_7__stateIcEERNS_9allocatorIS2_EEEC1B7v160006IDnS6_EEOT_OT0_, symObjAddr: 0xBF6C, symBinAddr: 0x1000278C8, symSize: 0x3C }
  - { offsetInCU: 0x2EDA4, offset: 0x829A8, size: 0x8, addend: 0x0, symName: __ZNSt3__114__split_bufferINS_7__stateIcEERNS_9allocatorIS2_EEE7__allocB7v160006Ev, symObjAddr: 0xBFE8, symBinAddr: 0x100027944, symSize: 0x28 }
  - { offsetInCU: 0x2EDC9, offset: 0x829CD, size: 0x8, addend: 0x0, symName: __ZNSt3__114__split_bufferINS_7__stateIcEERNS_9allocatorIS2_EEE9__end_capB7v160006Ev, symObjAddr: 0xC010, symBinAddr: 0x10002796C, symSize: 0x28 }
  - { offsetInCU: 0x2EDEE, offset: 0x829F2, size: 0x8, addend: 0x0, symName: __ZNSt3__117__compressed_pairIPNS_7__stateIcEERNS_9allocatorIS2_EEEC2B7v160006IDnS6_EEOT_OT0_, symObjAddr: 0xC038, symBinAddr: 0x100027994, symSize: 0x48 }
  - { offsetInCU: 0x2EE44, offset: 0x82A48, size: 0x8, addend: 0x0, symName: __ZNSt3__122__compressed_pair_elemIRNS_9allocatorINS_7__stateIcEEEELi1ELb0EEC2B7v160006IS5_vEEOT_, symObjAddr: 0xC080, symBinAddr: 0x1000279DC, symSize: 0x20 }
  - { offsetInCU: 0x2EE85, offset: 0x82A89, size: 0x8, addend: 0x0, symName: __ZNSt3__19allocatorINS_7__stateIcEEE8allocateB7v160006Em, symObjAddr: 0xC0A0, symBinAddr: 0x1000279FC, symSize: 0x5C }
  - { offsetInCU: 0x2EEB8, offset: 0x82ABC, size: 0x8, addend: 0x0, symName: __ZNSt3__117__compressed_pairIPNS_7__stateIcEERNS_9allocatorIS2_EEE6secondB7v160006Ev, symObjAddr: 0xC0FC, symBinAddr: 0x100027A58, symSize: 0x28 }
  - { offsetInCU: 0x2EEDD, offset: 0x82AE1, size: 0x8, addend: 0x0, symName: __ZNSt3__122__compressed_pair_elemIRNS_9allocatorINS_7__stateIcEEEELi1ELb0EE5__getB7v160006Ev, symObjAddr: 0xC124, symBinAddr: 0x100027A80, symSize: 0x18 }
  - { offsetInCU: 0x2EF02, offset: 0x82B06, size: 0x8, addend: 0x0, symName: __ZNSt3__117__compressed_pairIPNS_7__stateIcEERNS_9allocatorIS2_EEE5firstB7v160006Ev, symObjAddr: 0xC13C, symBinAddr: 0x100027A98, symSize: 0x24 }
  - { offsetInCU: 0x2EF27, offset: 0x82B2B, size: 0x8, addend: 0x0, symName: __ZNKSt3__16vectorINS_7__stateIcEENS_9allocatorIS2_EEE17__annotate_deleteB7v160006Ev, symObjAddr: 0xC160, symBinAddr: 0x100027ABC, symSize: 0xD4 }
  - { offsetInCU: 0x2EF4C, offset: 0x82B50, size: 0x8, addend: 0x0, symName: __ZNSt3__116reverse_iteratorIPNS_7__stateIcEEEC1B7v160006ES3_, symObjAddr: 0xC360, symBinAddr: 0x100027CBC, symSize: 0x34 }
  - { offsetInCU: 0x2EF82, offset: 0x82B86, size: 0x8, addend: 0x0, symName: __ZNKSt3__116reverse_iteratorIPNS_7__stateIcEEE4baseB7v160006Ev, symObjAddr: 0xC394, symBinAddr: 0x100027CF0, symSize: 0x18 }
  - { offsetInCU: 0x2EFA7, offset: 0x82BAB, size: 0x8, addend: 0x0, symName: __ZNKSt3__16vectorINS_7__stateIcEENS_9allocatorIS2_EEE14__annotate_newB7v160006Em, symObjAddr: 0xC3E8, symBinAddr: 0x100027D44, symSize: 0xC8 }
  - { offsetInCU: 0x2EFDB, offset: 0x82BDF, size: 0x8, addend: 0x0, symName: __ZNKSt3__16vectorINS_7__stateIcEENS_9allocatorIS2_EEE31__annotate_contiguous_containerB7v160006EPKvS7_S7_S7_, symObjAddr: 0xC4C0, symBinAddr: 0x100027E1C, symSize: 0x20 }
  - { offsetInCU: 0x2F030, offset: 0x82C34, size: 0x8, addend: 0x0, symName: __ZNKSt3__16vectorINS_7__stateIcEENS_9allocatorIS2_EEE4dataB7v160006Ev, symObjAddr: 0xC4E0, symBinAddr: 0x100027E3C, symSize: 0x28 }
  - { offsetInCU: 0x2F055, offset: 0x82C59, size: 0x8, addend: 0x0, symName: __ZNSt3__129_AllocatorDestroyRangeReverseINS_9allocatorINS_7__stateIcEEEENS_16reverse_iteratorIPS3_EEEC1B7v160006ERS4_RS7_SA_, symObjAddr: 0xC554, symBinAddr: 0x100027EB0, symSize: 0x44 }
  - { offsetInCU: 0x2F0AA, offset: 0x82CAE, size: 0x8, addend: 0x0, symName: __ZNKSt3__116reverse_iteratorIPNS_7__stateIcEEEdeB7v160006Ev, symObjAddr: 0xC604, symBinAddr: 0x100027F60, symSize: 0x28 }
  - { offsetInCU: 0x2F0DD, offset: 0x82CE1, size: 0x8, addend: 0x0, symName: __ZNSt3__116reverse_iteratorIPNS_7__stateIcEEEppB7v160006Ev, symObjAddr: 0xC62C, symBinAddr: 0x100027F88, symSize: 0x20 }
  - { offsetInCU: 0x2F102, offset: 0x82D06, size: 0x8, addend: 0x0, symName: __ZNSt3__128__exception_guard_exceptionsINS_29_AllocatorDestroyRangeReverseINS_9allocatorINS_7__stateIcEEEENS_16reverse_iteratorIPS4_EEEEE10__completeB7v160006Ev, symObjAddr: 0xC64C, symBinAddr: 0x100027FA8, symSize: 0x1C }
  - { offsetInCU: 0x2F127, offset: 0x82D2B, size: 0x8, addend: 0x0, symName: __ZNSt3__128__exception_guard_exceptionsINS_29_AllocatorDestroyRangeReverseINS_9allocatorINS_7__stateIcEEEENS_16reverse_iteratorIPS4_EEEEED1B7v160006Ev, symObjAddr: 0xC668, symBinAddr: 0x100027FC4, symSize: 0x2C }
  - { offsetInCU: 0x2F14F, offset: 0x82D53, size: 0x8, addend: 0x0, symName: __ZNSt3__128__exception_guard_exceptionsINS_29_AllocatorDestroyRangeReverseINS_9allocatorINS_7__stateIcEEEENS_16reverse_iteratorIPS4_EEEEEC1B7v160006ES9_, symObjAddr: 0xC694, symBinAddr: 0x100027FF0, symSize: 0x34 }
  - { offsetInCU: 0x2F186, offset: 0x82D8A, size: 0x8, addend: 0x0, symName: __ZNSt3__128__exception_guard_exceptionsINS_29_AllocatorDestroyRangeReverseINS_9allocatorINS_7__stateIcEEEENS_16reverse_iteratorIPS4_EEEEEC2B7v160006ES9_, symObjAddr: 0xC6C8, symBinAddr: 0x100028024, symSize: 0x30 }
  - { offsetInCU: 0x2F1BE, offset: 0x82DC2, size: 0x8, addend: 0x0, symName: __ZNSt3__129_AllocatorDestroyRangeReverseINS_9allocatorINS_7__stateIcEEEENS_16reverse_iteratorIPS3_EEEC2B7v160006ERS4_RS7_SA_, symObjAddr: 0xC6F8, symBinAddr: 0x100028054, symSize: 0x38 }
  - { offsetInCU: 0x2F219, offset: 0x82E1D, size: 0x8, addend: 0x0, symName: __ZNSt3__119__to_address_helperINS_16reverse_iteratorIPNS_7__stateIcEEEEvE6__callB7v160006ERKS5_, symObjAddr: 0xC730, symBinAddr: 0x10002808C, symSize: 0x38 }
  - { offsetInCU: 0x2F23C, offset: 0x82E40, size: 0x8, addend: 0x0, symName: __ZNKSt3__116reverse_iteratorIPNS_7__stateIcEEEptB7v160006Ev, symObjAddr: 0xC768, symBinAddr: 0x1000280C4, symSize: 0x24 }
  - { offsetInCU: 0x2F261, offset: 0x82E65, size: 0x8, addend: 0x0, symName: __ZNSt3__128__exception_guard_exceptionsINS_29_AllocatorDestroyRangeReverseINS_9allocatorINS_7__stateIcEEEENS_16reverse_iteratorIPS4_EEEEED2B7v160006Ev, symObjAddr: 0xC78C, symBinAddr: 0x1000280E8, symSize: 0x50 }
  - { offsetInCU: 0x2F289, offset: 0x82E8D, size: 0x8, addend: 0x0, symName: __ZNKSt3__129_AllocatorDestroyRangeReverseINS_9allocatorINS_7__stateIcEEEENS_16reverse_iteratorIPS3_EEEclB7v160006Ev, symObjAddr: 0xC7DC, symBinAddr: 0x100028138, symSize: 0xB4 }
  - { offsetInCU: 0x2F2AF, offset: 0x82EB3, size: 0x8, addend: 0x0, symName: __ZNSt3__116reverse_iteratorINS0_IPNS_7__stateIcEEEEEC1B7v160006ES4_, symObjAddr: 0xC900, symBinAddr: 0x10002825C, symSize: 0x3C }
  - { offsetInCU: 0x2F2E5, offset: 0x82EE9, size: 0x8, addend: 0x0, symName: __ZNSt3__116allocator_traitsINS_9allocatorINS_7__stateIcEEEEE7destroyB7v160006IS3_vEEvRS4_PT_, symObjAddr: 0xC99C, symBinAddr: 0x1000282F8, symSize: 0x2C }
  - { offsetInCU: 0x2F322, offset: 0x82F26, size: 0x8, addend: 0x0, symName: __ZNSt3__116reverse_iteratorINS0_IPNS_7__stateIcEEEEEppB7v160006Ev, symObjAddr: 0xC9EC, symBinAddr: 0x100028348, symSize: 0x30 }
  - { offsetInCU: 0x2F347, offset: 0x82F4B, size: 0x8, addend: 0x0, symName: __ZNKSt3__116reverse_iteratorINS0_IPNS_7__stateIcEEEEE4baseB7v160006Ev, symObjAddr: 0xCA1C, symBinAddr: 0x100028378, symSize: 0x24 }
  - { offsetInCU: 0x2F36C, offset: 0x82F70, size: 0x8, addend: 0x0, symName: __ZNSt3__19allocatorINS_7__stateIcEEE7destroyB7v160006EPS2_, symObjAddr: 0xCA40, symBinAddr: 0x10002839C, symSize: 0x28 }
  - { offsetInCU: 0x2F3A4, offset: 0x82FA8, size: 0x8, addend: 0x0, symName: __ZNSt3__119__to_address_helperINS_16reverse_iteratorINS1_IPNS_7__stateIcEEEEEEvE6__callB7v160006ERKS6_, symObjAddr: 0xCA68, symBinAddr: 0x1000283C4, symSize: 0x38 }
  - { offsetInCU: 0x2F3C7, offset: 0x82FCB, size: 0x8, addend: 0x0, symName: __ZNKSt3__116reverse_iteratorINS0_IPNS_7__stateIcEEEEEptB7v160006Ev, symObjAddr: 0xCAA0, symBinAddr: 0x1000283FC, symSize: 0x24 }
  - { offsetInCU: 0x2F3EC, offset: 0x82FF0, size: 0x8, addend: 0x0, symName: __ZNKSt3__116reverse_iteratorINS0_IPNS_7__stateIcEEEEEdeB7v160006Ev, symObjAddr: 0xCAC4, symBinAddr: 0x100028420, symSize: 0x34 }
  - { offsetInCU: 0x2F41F, offset: 0x83023, size: 0x8, addend: 0x0, symName: __ZNSt3__116reverse_iteratorIPNS_7__stateIcEEEmmB7v160006Ev, symObjAddr: 0xCAF8, symBinAddr: 0x100028454, symSize: 0x20 }
  - { offsetInCU: 0x2F444, offset: 0x83048, size: 0x8, addend: 0x0, symName: __ZNSt3__116reverse_iteratorINS0_IPNS_7__stateIcEEEEEC2B7v160006ES4_, symObjAddr: 0xCB18, symBinAddr: 0x100028474, symSize: 0x2C }
  - { offsetInCU: 0x2F47B, offset: 0x8307F, size: 0x8, addend: 0x0, symName: __ZNSt3__116reverse_iteratorIPNS_7__stateIcEEEC2B7v160006ES3_, symObjAddr: 0xCB44, symBinAddr: 0x1000284A0, symSize: 0x28 }
  - { offsetInCU: 0x2F4B2, offset: 0x830B6, size: 0x8, addend: 0x0, symName: __ZNSt3__114__split_bufferINS_7__stateIcEERNS_9allocatorIS2_EEED2Ev, symObjAddr: 0xCB6C, symBinAddr: 0x1000284C8, symSize: 0x8C }
  - { offsetInCU: 0x2F4DD, offset: 0x830E1, size: 0x8, addend: 0x0, symName: __ZNSt3__114__split_bufferINS_7__stateIcEERNS_9allocatorIS2_EEE5clearB7v160006Ev, symObjAddr: 0xCBF8, symBinAddr: 0x100028554, symSize: 0x28 }
  - { offsetInCU: 0x2F502, offset: 0x83106, size: 0x8, addend: 0x0, symName: __ZNSt3__116allocator_traitsINS_9allocatorINS_7__stateIcEEEEE10deallocateB7v160006ERS4_PS3_m, symObjAddr: 0xCC20, symBinAddr: 0x10002857C, symSize: 0x34 }
  - { offsetInCU: 0x2F544, offset: 0x83148, size: 0x8, addend: 0x0, symName: __ZNKSt3__114__split_bufferINS_7__stateIcEERNS_9allocatorIS2_EEE8capacityB7v160006Ev, symObjAddr: 0xCC54, symBinAddr: 0x1000285B0, symSize: 0x40 }
  - { offsetInCU: 0x2F569, offset: 0x8316D, size: 0x8, addend: 0x0, symName: __ZNSt3__114__split_bufferINS_7__stateIcEERNS_9allocatorIS2_EEE17__destruct_at_endB7v160006EPS2_, symObjAddr: 0xCC94, symBinAddr: 0x1000285F0, symSize: 0x2C }
  - { offsetInCU: 0x2F59C, offset: 0x831A0, size: 0x8, addend: 0x0, symName: __ZNSt3__114__split_bufferINS_7__stateIcEERNS_9allocatorIS2_EEE17__destruct_at_endB7v160006EPS2_NS_17integral_constantIbLb0EEE, symObjAddr: 0xCCC0, symBinAddr: 0x10002861C, symSize: 0x80 }
  - { offsetInCU: 0x2F5DC, offset: 0x831E0, size: 0x8, addend: 0x0, symName: __ZNSt3__19allocatorINS_7__stateIcEEE10deallocateB7v160006EPS2_m, symObjAddr: 0xCD40, symBinAddr: 0x10002869C, symSize: 0x44 }
  - { offsetInCU: 0x2F61D, offset: 0x83221, size: 0x8, addend: 0x0, symName: __ZNKSt3__114__split_bufferINS_7__stateIcEERNS_9allocatorIS2_EEE9__end_capB7v160006Ev, symObjAddr: 0xCD84, symBinAddr: 0x1000286E0, symSize: 0x28 }
  - { offsetInCU: 0x2F642, offset: 0x83246, size: 0x8, addend: 0x0, symName: __ZNKSt3__117__compressed_pairIPNS_7__stateIcEERNS_9allocatorIS2_EEE5firstB7v160006Ev, symObjAddr: 0xCDAC, symBinAddr: 0x100028708, symSize: 0x24 }
  - { offsetInCU: 0x2F667, offset: 0x8326B, size: 0x8, addend: 0x0, symName: __ZNSt3__17__stateIcEC2B7v160006Ev, symObjAddr: 0xCDD0, symBinAddr: 0x10002872C, symSize: 0x54 }
  - { offsetInCU: 0x2F68F, offset: 0x83293, size: 0x8, addend: 0x0, symName: __ZNSt3__16vectorINS_9sub_matchIPKcEENS_9allocatorIS4_EEEC1B7v160006Ev, symObjAddr: 0xCE24, symBinAddr: 0x100028780, symSize: 0x2C }
  - { offsetInCU: 0x2F6B7, offset: 0x832BB, size: 0x8, addend: 0x0, symName: __ZNSt3__16vectorINS_4pairImPKcEENS_9allocatorIS4_EEEC1B7v160006Ev, symObjAddr: 0xCE50, symBinAddr: 0x1000287AC, symSize: 0x2C }
  - { offsetInCU: 0x2F6DF, offset: 0x832E3, size: 0x8, addend: 0x0, symName: __ZNSt3__16vectorINS_9sub_matchIPKcEENS_9allocatorIS4_EEEC2B7v160006Ev, symObjAddr: 0xCE7C, symBinAddr: 0x1000287D8, symSize: 0x54 }
  - { offsetInCU: 0x2F707, offset: 0x8330B, size: 0x8, addend: 0x0, symName: __ZNSt3__117__compressed_pairIPNS_9sub_matchIPKcEENS_9allocatorIS4_EEEC1B7v160006IDnNS_18__default_init_tagEEEOT_OT0_, symObjAddr: 0xCED0, symBinAddr: 0x10002882C, symSize: 0x3C }
  - { offsetInCU: 0x2F75D, offset: 0x83361, size: 0x8, addend: 0x0, symName: __ZNSt3__117__compressed_pairIPNS_9sub_matchIPKcEENS_9allocatorIS4_EEEC2B7v160006IDnNS_18__default_init_tagEEEOT_OT0_, symObjAddr: 0xCF0C, symBinAddr: 0x100028868, symSize: 0x40 }
  - { offsetInCU: 0x2F7B3, offset: 0x833B7, size: 0x8, addend: 0x0, symName: __ZNSt3__122__compressed_pair_elemINS_9allocatorINS_9sub_matchIPKcEEEELi1ELb1EEC2B7v160006ENS_18__default_init_tagE, symObjAddr: 0xCF4C, symBinAddr: 0x1000288A8, symSize: 0x2C }
  - { offsetInCU: 0x2F7E6, offset: 0x833EA, size: 0x8, addend: 0x0, symName: __ZNSt3__16vectorINS_4pairImPKcEENS_9allocatorIS4_EEEC2B7v160006Ev, symObjAddr: 0xCF78, symBinAddr: 0x1000288D4, symSize: 0x54 }
  - { offsetInCU: 0x2F80E, offset: 0x83412, size: 0x8, addend: 0x0, symName: __ZNSt3__117__compressed_pairIPNS_4pairImPKcEENS_9allocatorIS4_EEEC1B7v160006IDnNS_18__default_init_tagEEEOT_OT0_, symObjAddr: 0xCFCC, symBinAddr: 0x100028928, symSize: 0x3C }
  - { offsetInCU: 0x2F864, offset: 0x83468, size: 0x8, addend: 0x0, symName: __ZNSt3__117__compressed_pairIPNS_4pairImPKcEENS_9allocatorIS4_EEEC2B7v160006IDnNS_18__default_init_tagEEEOT_OT0_, symObjAddr: 0xD008, symBinAddr: 0x100028964, symSize: 0x40 }
  - { offsetInCU: 0x2F8BA, offset: 0x834BE, size: 0x8, addend: 0x0, symName: __ZNSt3__122__compressed_pair_elemINS_9allocatorINS_4pairImPKcEEEELi1ELb1EEC2B7v160006ENS_18__default_init_tagE, symObjAddr: 0xD048, symBinAddr: 0x1000289A4, symSize: 0x2C }
  - { offsetInCU: 0x2F8ED, offset: 0x834F1, size: 0x8, addend: 0x0, symName: __ZNSt3__19allocatorINS_4pairImPKcEEEC2B7v160006Ev, symObjAddr: 0xD074, symBinAddr: 0x1000289D0, symSize: 0x2C }
  - { offsetInCU: 0x2F915, offset: 0x83519, size: 0x8, addend: 0x0, symName: __ZNSt3__116__non_trivial_ifILb1ENS_9allocatorINS_4pairImPKcEEEEEC2B7v160006Ev, symObjAddr: 0xD0A0, symBinAddr: 0x1000289FC, symSize: 0x14 }
  - { offsetInCU: 0x2F93E, offset: 0x83542, size: 0x8, addend: 0x0, symName: __ZNSt3__17__stateIcED2Ev, symObjAddr: 0xD0B4, symBinAddr: 0x100028A10, symSize: 0x3C }
  - { offsetInCU: 0x2F96A, offset: 0x8356E, size: 0x8, addend: 0x0, symName: __ZNSt3__16vectorINS_4pairImPKcEENS_9allocatorIS4_EEED1B7v160006Ev, symObjAddr: 0xD0F0, symBinAddr: 0x100028A4C, symSize: 0x2C }
  - { offsetInCU: 0x2F992, offset: 0x83596, size: 0x8, addend: 0x0, symName: __ZNSt3__16vectorINS_4pairImPKcEENS_9allocatorIS4_EEED2B7v160006Ev, symObjAddr: 0xD11C, symBinAddr: 0x100028A78, symSize: 0x44 }
  - { offsetInCU: 0x2F9BA, offset: 0x835BE, size: 0x8, addend: 0x0, symName: __ZNSt3__16vectorINS_4pairImPKcEENS_9allocatorIS4_EEE16__destroy_vectorC1ERS7_, symObjAddr: 0xD160, symBinAddr: 0x100028ABC, symSize: 0x34 }
  - { offsetInCU: 0x2F9F1, offset: 0x835F5, size: 0x8, addend: 0x0, symName: __ZNSt3__16vectorINS_4pairImPKcEENS_9allocatorIS4_EEE16__destroy_vectorclB7v160006Ev, symObjAddr: 0xD194, symBinAddr: 0x100028AF0, symSize: 0x9C }
  - { offsetInCU: 0x2FA16, offset: 0x8361A, size: 0x8, addend: 0x0, symName: __ZNSt3__16vectorINS_4pairImPKcEENS_9allocatorIS4_EEE16__destroy_vectorC2ERS7_, symObjAddr: 0xD230, symBinAddr: 0x100028B8C, symSize: 0x20 }
  - { offsetInCU: 0x2FA4E, offset: 0x83652, size: 0x8, addend: 0x0, symName: __ZNKSt3__16vectorINS_4pairImPKcEENS_9allocatorIS4_EEE17__annotate_deleteB7v160006Ev, symObjAddr: 0xD250, symBinAddr: 0x100028BAC, symSize: 0xB8 }
  - { offsetInCU: 0x2FA73, offset: 0x83677, size: 0x8, addend: 0x0, symName: __ZNSt3__16vectorINS_4pairImPKcEENS_9allocatorIS4_EEE7__clearB7v160006Ev, symObjAddr: 0xD318, symBinAddr: 0x100028C74, symSize: 0x28 }
  - { offsetInCU: 0x2FA98, offset: 0x8369C, size: 0x8, addend: 0x0, symName: __ZNSt3__116allocator_traitsINS_9allocatorINS_4pairImPKcEEEEE10deallocateB7v160006ERS6_PS5_m, symObjAddr: 0xD340, symBinAddr: 0x100028C9C, symSize: 0x34 }
  - { offsetInCU: 0x2FADA, offset: 0x836DE, size: 0x8, addend: 0x0, symName: __ZNKSt3__16vectorINS_4pairImPKcEENS_9allocatorIS4_EEE8capacityB7v160006Ev, symObjAddr: 0xD374, symBinAddr: 0x100028CD0, symSize: 0x40 }
  - { offsetInCU: 0x2FAFF, offset: 0x83703, size: 0x8, addend: 0x0, symName: __ZNKSt3__16vectorINS_4pairImPKcEENS_9allocatorIS4_EEE31__annotate_contiguous_containerB7v160006EPKvS9_S9_S9_, symObjAddr: 0xD3B4, symBinAddr: 0x100028D10, symSize: 0x20 }
  - { offsetInCU: 0x2FB54, offset: 0x83758, size: 0x8, addend: 0x0, symName: __ZNKSt3__16vectorINS_4pairImPKcEENS_9allocatorIS4_EEE4dataB7v160006Ev, symObjAddr: 0xD3D4, symBinAddr: 0x100028D30, symSize: 0x28 }
